   1              		.cpu cortex-m0
   2              		.eabi_attribute 20, 1
   3              		.eabi_attribute 21, 1
   4              		.eabi_attribute 23, 3
   5              		.eabi_attribute 24, 1
   6              		.eabi_attribute 25, 1
   7              		.eabi_attribute 26, 1
   8              		.eabi_attribute 30, 4
   9              		.eabi_attribute 34, 0
  10              		.eabi_attribute 18, 2
  11              		.file	"chthreads.c"
  12              		.text
  13              	.Ltext0:
  14              		.cfi_sections	.debug_frame
  15              		.section	.text._thread_init,"ax",%progbits
  16              		.align	1
  17              		.global	_thread_init
  18              		.arch armv6s-m
  19              		.syntax unified
  20              		.code	16
  21              		.thumb_func
  22              		.fpu softvfp
  24              	_thread_init:
  25              	.LVL0:
  26              	.LFB154:
  27              		.file 1 "lib/chibios/os/rt/src/chthreads.c"
   1:lib/chibios/os/rt/src/chthreads.c **** /*
   2:lib/chibios/os/rt/src/chthreads.c ****     ChibiOS - Copyright (C) 2006..2018 Giovanni Di Sirio.
   3:lib/chibios/os/rt/src/chthreads.c **** 
   4:lib/chibios/os/rt/src/chthreads.c ****     This file is part of ChibiOS.
   5:lib/chibios/os/rt/src/chthreads.c **** 
   6:lib/chibios/os/rt/src/chthreads.c ****     ChibiOS is free software; you can redistribute it and/or modify
   7:lib/chibios/os/rt/src/chthreads.c ****     it under the terms of the GNU General Public License as published by
   8:lib/chibios/os/rt/src/chthreads.c ****     the Free Software Foundation; either version 3 of the License, or
   9:lib/chibios/os/rt/src/chthreads.c ****     (at your option) any later version.
  10:lib/chibios/os/rt/src/chthreads.c **** 
  11:lib/chibios/os/rt/src/chthreads.c ****     ChibiOS is distributed in the hope that it will be useful,
  12:lib/chibios/os/rt/src/chthreads.c ****     but WITHOUT ANY WARRANTY; without even the implied warranty of
  13:lib/chibios/os/rt/src/chthreads.c ****     MERCHANTABILITY or FITNESS FOR A PARTICULAR PURPOSE.  See the
  14:lib/chibios/os/rt/src/chthreads.c ****     GNU General Public License for more details.
  15:lib/chibios/os/rt/src/chthreads.c **** 
  16:lib/chibios/os/rt/src/chthreads.c ****     You should have received a copy of the GNU General Public License
  17:lib/chibios/os/rt/src/chthreads.c ****     along with this program.  If not, see <http://www.gnu.org/licenses/>.
  18:lib/chibios/os/rt/src/chthreads.c **** */
  19:lib/chibios/os/rt/src/chthreads.c **** 
  20:lib/chibios/os/rt/src/chthreads.c **** /**
  21:lib/chibios/os/rt/src/chthreads.c ****  * @file    chthreads.c
  22:lib/chibios/os/rt/src/chthreads.c ****  * @brief   Threads code.
  23:lib/chibios/os/rt/src/chthreads.c ****  *
  24:lib/chibios/os/rt/src/chthreads.c ****  * @addtogroup threads
  25:lib/chibios/os/rt/src/chthreads.c ****  * @details Threads related APIs and services.
  26:lib/chibios/os/rt/src/chthreads.c ****  *          <h2>Operation mode</h2>
  27:lib/chibios/os/rt/src/chthreads.c ****  *          A thread is an abstraction of an independent instructions flow.
  28:lib/chibios/os/rt/src/chthreads.c ****  *          In ChibiOS/RT a thread is represented by a "C" function owning
  29:lib/chibios/os/rt/src/chthreads.c ****  *          a processor context, state informations and a dedicated stack
  30:lib/chibios/os/rt/src/chthreads.c ****  *          area. In this scenario static variables are shared among all
  31:lib/chibios/os/rt/src/chthreads.c ****  *          threads while automatic variables are local to the thread.<br>
  32:lib/chibios/os/rt/src/chthreads.c ****  *          Operations defined for threads:
  33:lib/chibios/os/rt/src/chthreads.c ****  *          - <b>Create</b>, a thread is started on the specified thread
  34:lib/chibios/os/rt/src/chthreads.c ****  *            function. This operation is available in multiple variants,
  35:lib/chibios/os/rt/src/chthreads.c ****  *            both static and dynamic.
  36:lib/chibios/os/rt/src/chthreads.c ****  *          - <b>Exit</b>, a thread terminates by returning from its top
  37:lib/chibios/os/rt/src/chthreads.c ****  *            level function or invoking a specific API, the thread can
  38:lib/chibios/os/rt/src/chthreads.c ****  *            return a value that can be retrieved by other threads.
  39:lib/chibios/os/rt/src/chthreads.c ****  *          - <b>Wait</b>, a thread waits for the termination of another
  40:lib/chibios/os/rt/src/chthreads.c ****  *            thread and retrieves its return value.
  41:lib/chibios/os/rt/src/chthreads.c ****  *          - <b>Resume</b>, a thread created in suspended state is started.
  42:lib/chibios/os/rt/src/chthreads.c ****  *          - <b>Sleep</b>, the execution of a thread is suspended for the
  43:lib/chibios/os/rt/src/chthreads.c ****  *            specified amount of time or the specified future absolute time
  44:lib/chibios/os/rt/src/chthreads.c ****  *            is reached.
  45:lib/chibios/os/rt/src/chthreads.c ****  *          - <b>SetPriority</b>, a thread changes its own priority level.
  46:lib/chibios/os/rt/src/chthreads.c ****  *          - <b>Yield</b>, a thread voluntarily renounces to its time slot.
  47:lib/chibios/os/rt/src/chthreads.c ****  *          .
  48:lib/chibios/os/rt/src/chthreads.c ****  * @{
  49:lib/chibios/os/rt/src/chthreads.c ****  */
  50:lib/chibios/os/rt/src/chthreads.c **** 
  51:lib/chibios/os/rt/src/chthreads.c **** #include "ch.h"
  52:lib/chibios/os/rt/src/chthreads.c **** 
  53:lib/chibios/os/rt/src/chthreads.c **** /*===========================================================================*/
  54:lib/chibios/os/rt/src/chthreads.c **** /* Module local definitions.                                                 */
  55:lib/chibios/os/rt/src/chthreads.c **** /*===========================================================================*/
  56:lib/chibios/os/rt/src/chthreads.c **** 
  57:lib/chibios/os/rt/src/chthreads.c **** /*===========================================================================*/
  58:lib/chibios/os/rt/src/chthreads.c **** /* Module exported variables.                                                */
  59:lib/chibios/os/rt/src/chthreads.c **** /*===========================================================================*/
  60:lib/chibios/os/rt/src/chthreads.c **** 
  61:lib/chibios/os/rt/src/chthreads.c **** /*===========================================================================*/
  62:lib/chibios/os/rt/src/chthreads.c **** /* Module local types.                                                       */
  63:lib/chibios/os/rt/src/chthreads.c **** /*===========================================================================*/
  64:lib/chibios/os/rt/src/chthreads.c **** 
  65:lib/chibios/os/rt/src/chthreads.c **** /*===========================================================================*/
  66:lib/chibios/os/rt/src/chthreads.c **** /* Module local variables.                                                   */
  67:lib/chibios/os/rt/src/chthreads.c **** /*===========================================================================*/
  68:lib/chibios/os/rt/src/chthreads.c **** 
  69:lib/chibios/os/rt/src/chthreads.c **** /*===========================================================================*/
  70:lib/chibios/os/rt/src/chthreads.c **** /* Module local functions.                                                   */
  71:lib/chibios/os/rt/src/chthreads.c **** /*===========================================================================*/
  72:lib/chibios/os/rt/src/chthreads.c **** 
  73:lib/chibios/os/rt/src/chthreads.c **** /*===========================================================================*/
  74:lib/chibios/os/rt/src/chthreads.c **** /* Module exported functions.                                                */
  75:lib/chibios/os/rt/src/chthreads.c **** /*===========================================================================*/
  76:lib/chibios/os/rt/src/chthreads.c **** 
  77:lib/chibios/os/rt/src/chthreads.c **** /**
  78:lib/chibios/os/rt/src/chthreads.c ****  * @brief   Initializes a thread structure.
  79:lib/chibios/os/rt/src/chthreads.c ****  * @note    This is an internal functions, do not use it in application code.
  80:lib/chibios/os/rt/src/chthreads.c ****  *
  81:lib/chibios/os/rt/src/chthreads.c ****  * @param[in] tp        pointer to the thread
  82:lib/chibios/os/rt/src/chthreads.c ****  * @param[in] name      thread name
  83:lib/chibios/os/rt/src/chthreads.c ****  * @param[in] prio      the priority level for the new thread
  84:lib/chibios/os/rt/src/chthreads.c ****  * @return              The same thread pointer passed as parameter.
  85:lib/chibios/os/rt/src/chthreads.c ****  *
  86:lib/chibios/os/rt/src/chthreads.c ****  * @notapi
  87:lib/chibios/os/rt/src/chthreads.c ****  */
  88:lib/chibios/os/rt/src/chthreads.c **** thread_t *_thread_init(thread_t *tp, const char *name, tprio_t prio) {
  28              		.loc 1 88 70 view -0
  29              		.cfi_startproc
  30              		@ args = 0, pretend = 0, frame = 0
  31              		@ frame_needed = 0, uses_anonymous_args = 0
  32              		@ link register save eliminated.
  89:lib/chibios/os/rt/src/chthreads.c **** 
  90:lib/chibios/os/rt/src/chthreads.c ****   tp->prio      = prio;
  33              		.loc 1 90 3 view .LVU1
  91:lib/chibios/os/rt/src/chthreads.c ****   tp->state     = CH_STATE_WTSTART;
  92:lib/chibios/os/rt/src/chthreads.c ****   tp->flags     = CH_FLAG_MODE_STATIC;
  93:lib/chibios/os/rt/src/chthreads.c **** #if CH_CFG_TIME_QUANTUM > 0
  94:lib/chibios/os/rt/src/chthreads.c ****   tp->ticks     = (tslices_t)CH_CFG_TIME_QUANTUM;
  95:lib/chibios/os/rt/src/chthreads.c **** #endif
  96:lib/chibios/os/rt/src/chthreads.c **** #if CH_CFG_USE_MUTEXES == TRUE
  97:lib/chibios/os/rt/src/chthreads.c ****   tp->realprio  = prio;
  98:lib/chibios/os/rt/src/chthreads.c ****   tp->mtxlist   = NULL;
  34              		.loc 1 98 17 is_stmt 0 view .LVU2
  35 0000 0023     		movs	r3, #0
  36 0002 4363     		str	r3, [r0, #52]
  99:lib/chibios/os/rt/src/chthreads.c **** #endif
 100:lib/chibios/os/rt/src/chthreads.c **** #if CH_CFG_USE_EVENTS == TRUE
 101:lib/chibios/os/rt/src/chthreads.c ****   tp->epending  = (eventmask_t)0;
  37              		.loc 1 101 17 view .LVU3
  38 0004 0363     		str	r3, [r0, #48]
  91:lib/chibios/os/rt/src/chthreads.c ****   tp->state     = CH_STATE_WTSTART;
  39              		.loc 1 91 17 view .LVU4
  40 0006 0233     		adds	r3, r3, #2
  41 0008 8383     		strh	r3, [r0, #28]
 102:lib/chibios/os/rt/src/chthreads.c **** #endif
 103:lib/chibios/os/rt/src/chthreads.c **** #if CH_DBG_THREADS_PROFILING == TRUE
 104:lib/chibios/os/rt/src/chthreads.c ****   tp->time      = (systime_t)0;
 105:lib/chibios/os/rt/src/chthreads.c **** #endif
 106:lib/chibios/os/rt/src/chthreads.c **** #if CH_CFG_USE_REGISTRY == TRUE
 107:lib/chibios/os/rt/src/chthreads.c ****   tp->refs      = (trefs_t)1;
  42              		.loc 1 107 17 view .LVU5
  43 000a 013B     		subs	r3, r3, #1
  44 000c 8377     		strb	r3, [r0, #30]
 108:lib/chibios/os/rt/src/chthreads.c ****   tp->name      = name;
 109:lib/chibios/os/rt/src/chthreads.c ****   REG_INSERT(tp);
  45              		.loc 1 109 3 view .LVU6
  46 000e 084B     		ldr	r3, .L2
  90:lib/chibios/os/rt/src/chthreads.c ****   tp->state     = CH_STATE_WTSTART;
  47              		.loc 1 90 17 view .LVU7
  48 0010 8260     		str	r2, [r0, #8]
  91:lib/chibios/os/rt/src/chthreads.c ****   tp->flags     = CH_FLAG_MODE_STATIC;
  49              		.loc 1 91 3 is_stmt 1 view .LVU8
  92:lib/chibios/os/rt/src/chthreads.c **** #if CH_CFG_TIME_QUANTUM > 0
  50              		.loc 1 92 3 view .LVU9
  97:lib/chibios/os/rt/src/chthreads.c ****   tp->mtxlist   = NULL;
  51              		.loc 1 97 3 view .LVU10
  97:lib/chibios/os/rt/src/chthreads.c ****   tp->mtxlist   = NULL;
  52              		.loc 1 97 17 is_stmt 0 view .LVU11
  53 0012 8263     		str	r2, [r0, #56]
  98:lib/chibios/os/rt/src/chthreads.c **** #endif
  54              		.loc 1 98 3 is_stmt 1 view .LVU12
 101:lib/chibios/os/rt/src/chthreads.c **** #endif
  55              		.loc 1 101 3 view .LVU13
 107:lib/chibios/os/rt/src/chthreads.c ****   tp->name      = name;
  56              		.loc 1 107 3 view .LVU14
 108:lib/chibios/os/rt/src/chthreads.c ****   REG_INSERT(tp);
  57              		.loc 1 108 3 view .LVU15
  58              		.loc 1 109 3 is_stmt 0 view .LVU16
  59 0014 5A69     		ldr	r2, [r3, #20]
  60              	.LVL1:
  61              		.loc 1 109 3 view .LVU17
  62 0016 0361     		str	r3, [r0, #16]
  63 0018 4261     		str	r2, [r0, #20]
 108:lib/chibios/os/rt/src/chthreads.c ****   REG_INSERT(tp);
  64              		.loc 1 108 17 view .LVU18
  65 001a 8161     		str	r1, [r0, #24]
  66              		.loc 1 109 3 is_stmt 1 view .LVU19
  67              		.loc 1 109 3 view .LVU20
  68              		.loc 1 109 3 view .LVU21
  69 001c 1061     		str	r0, [r2, #16]
  70              		.loc 1 109 3 view .LVU22
  71 001e 5861     		str	r0, [r3, #20]
  72              		.loc 1 109 17 view .LVU23
 110:lib/chibios/os/rt/src/chthreads.c **** #else
 111:lib/chibios/os/rt/src/chthreads.c ****   (void)name;
 112:lib/chibios/os/rt/src/chthreads.c **** #endif
 113:lib/chibios/os/rt/src/chthreads.c **** #if CH_CFG_USE_WAITEXIT == TRUE
 114:lib/chibios/os/rt/src/chthreads.c ****   list_init(&tp->waiting);
  73              		.loc 1 114 3 view .LVU24
  74              	.LVL2:
  75              	.LBB216:
  76              	.LBI216:
  77              		.file 2 "./lib/chibios/os/rt/include/chschd.h"
   1:./lib/chibios/os/rt/include/chschd.h **** /*
   2:./lib/chibios/os/rt/include/chschd.h ****     ChibiOS - Copyright (C) 2006..2018 Giovanni Di Sirio.
   3:./lib/chibios/os/rt/include/chschd.h **** 
   4:./lib/chibios/os/rt/include/chschd.h ****     This file is part of ChibiOS.
   5:./lib/chibios/os/rt/include/chschd.h **** 
   6:./lib/chibios/os/rt/include/chschd.h ****     ChibiOS is free software; you can redistribute it and/or modify
   7:./lib/chibios/os/rt/include/chschd.h ****     it under the terms of the GNU General Public License as published by
   8:./lib/chibios/os/rt/include/chschd.h ****     the Free Software Foundation; either version 3 of the License, or
   9:./lib/chibios/os/rt/include/chschd.h ****     (at your option) any later version.
  10:./lib/chibios/os/rt/include/chschd.h **** 
  11:./lib/chibios/os/rt/include/chschd.h ****     ChibiOS is distributed in the hope that it will be useful,
  12:./lib/chibios/os/rt/include/chschd.h ****     but WITHOUT ANY WARRANTY; without even the implied warranty of
  13:./lib/chibios/os/rt/include/chschd.h ****     MERCHANTABILITY or FITNESS FOR A PARTICULAR PURPOSE.  See the
  14:./lib/chibios/os/rt/include/chschd.h ****     GNU General Public License for more details.
  15:./lib/chibios/os/rt/include/chschd.h **** 
  16:./lib/chibios/os/rt/include/chschd.h ****     You should have received a copy of the GNU General Public License
  17:./lib/chibios/os/rt/include/chschd.h ****     along with this program.  If not, see <http://www.gnu.org/licenses/>.
  18:./lib/chibios/os/rt/include/chschd.h **** */
  19:./lib/chibios/os/rt/include/chschd.h **** 
  20:./lib/chibios/os/rt/include/chschd.h **** /**
  21:./lib/chibios/os/rt/include/chschd.h ****  * @file    chschd.h
  22:./lib/chibios/os/rt/include/chschd.h ****  * @brief   Scheduler macros and structures.
  23:./lib/chibios/os/rt/include/chschd.h ****  *
  24:./lib/chibios/os/rt/include/chschd.h ****  * @addtogroup scheduler
  25:./lib/chibios/os/rt/include/chschd.h ****  * @{
  26:./lib/chibios/os/rt/include/chschd.h ****  */
  27:./lib/chibios/os/rt/include/chschd.h **** 
  28:./lib/chibios/os/rt/include/chschd.h **** #ifndef CHSCHD_H
  29:./lib/chibios/os/rt/include/chschd.h **** #define CHSCHD_H
  30:./lib/chibios/os/rt/include/chschd.h **** 
  31:./lib/chibios/os/rt/include/chschd.h **** /*===========================================================================*/
  32:./lib/chibios/os/rt/include/chschd.h **** /* Module constants.                                                         */
  33:./lib/chibios/os/rt/include/chschd.h **** /*===========================================================================*/
  34:./lib/chibios/os/rt/include/chschd.h **** 
  35:./lib/chibios/os/rt/include/chschd.h **** /**
  36:./lib/chibios/os/rt/include/chschd.h ****  * @name    Wakeup status codes
  37:./lib/chibios/os/rt/include/chschd.h ****  * @{
  38:./lib/chibios/os/rt/include/chschd.h ****  */
  39:./lib/chibios/os/rt/include/chschd.h **** #define MSG_OK              (msg_t)0    /**< @brief Normal wakeup message.  */
  40:./lib/chibios/os/rt/include/chschd.h **** #define MSG_TIMEOUT         (msg_t)-1   /**< @brief Wakeup caused by a timeout
  41:./lib/chibios/os/rt/include/chschd.h ****                                              condition.                     */
  42:./lib/chibios/os/rt/include/chschd.h **** #define MSG_RESET           (msg_t)-2   /**< @brief Wakeup caused by a reset
  43:./lib/chibios/os/rt/include/chschd.h ****                                              condition.                     */
  44:./lib/chibios/os/rt/include/chschd.h **** /** @} */
  45:./lib/chibios/os/rt/include/chschd.h **** 
  46:./lib/chibios/os/rt/include/chschd.h **** /**
  47:./lib/chibios/os/rt/include/chschd.h ****  * @name    Priority constants
  48:./lib/chibios/os/rt/include/chschd.h ****  * @{
  49:./lib/chibios/os/rt/include/chschd.h ****  */
  50:./lib/chibios/os/rt/include/chschd.h **** #define NOPRIO              (tprio_t)0      /**< @brief Ready list header
  51:./lib/chibios/os/rt/include/chschd.h ****                                                  priority.                  */
  52:./lib/chibios/os/rt/include/chschd.h **** #define IDLEPRIO            (tprio_t)1      /**< @brief Idle priority.      */
  53:./lib/chibios/os/rt/include/chschd.h **** #define LOWPRIO             (tprio_t)2      /**< @brief Lowest priority.    */
  54:./lib/chibios/os/rt/include/chschd.h **** #define NORMALPRIO          (tprio_t)128    /**< @brief Normal priority.    */
  55:./lib/chibios/os/rt/include/chschd.h **** #define HIGHPRIO            (tprio_t)255    /**< @brief Highest priority.   */
  56:./lib/chibios/os/rt/include/chschd.h **** /** @} */
  57:./lib/chibios/os/rt/include/chschd.h **** 
  58:./lib/chibios/os/rt/include/chschd.h **** /**
  59:./lib/chibios/os/rt/include/chschd.h ****  * @name    Thread states
  60:./lib/chibios/os/rt/include/chschd.h ****  * @{
  61:./lib/chibios/os/rt/include/chschd.h ****  */
  62:./lib/chibios/os/rt/include/chschd.h **** #define CH_STATE_READY      (tstate_t)0      /**< @brief Waiting on the
  63:./lib/chibios/os/rt/include/chschd.h ****                                                   ready list.               */
  64:./lib/chibios/os/rt/include/chschd.h **** #define CH_STATE_CURRENT    (tstate_t)1      /**< @brief Currently running. */
  65:./lib/chibios/os/rt/include/chschd.h **** #define CH_STATE_WTSTART    (tstate_t)2      /**< @brief Just created.      */
  66:./lib/chibios/os/rt/include/chschd.h **** #define CH_STATE_SUSPENDED  (tstate_t)3      /**< @brief Suspended state.   */
  67:./lib/chibios/os/rt/include/chschd.h **** #define CH_STATE_QUEUED     (tstate_t)4      /**< @brief On a queue.        */
  68:./lib/chibios/os/rt/include/chschd.h **** #define CH_STATE_WTSEM      (tstate_t)5      /**< @brief On a semaphore.    */
  69:./lib/chibios/os/rt/include/chschd.h **** #define CH_STATE_WTMTX      (tstate_t)6      /**< @brief On a mutex.        */
  70:./lib/chibios/os/rt/include/chschd.h **** #define CH_STATE_WTCOND     (tstate_t)7      /**< @brief On a cond.variable.*/
  71:./lib/chibios/os/rt/include/chschd.h **** #define CH_STATE_SLEEPING   (tstate_t)8      /**< @brief Sleeping.          */
  72:./lib/chibios/os/rt/include/chschd.h **** #define CH_STATE_WTEXIT     (tstate_t)9      /**< @brief Waiting a thread.  */
  73:./lib/chibios/os/rt/include/chschd.h **** #define CH_STATE_WTOREVT    (tstate_t)10     /**< @brief One event.         */
  74:./lib/chibios/os/rt/include/chschd.h **** #define CH_STATE_WTANDEVT   (tstate_t)11     /**< @brief Several events.    */
  75:./lib/chibios/os/rt/include/chschd.h **** #define CH_STATE_SNDMSGQ    (tstate_t)12     /**< @brief Sending a message,
  76:./lib/chibios/os/rt/include/chschd.h ****                                                   in queue.                 */
  77:./lib/chibios/os/rt/include/chschd.h **** #define CH_STATE_SNDMSG     (tstate_t)13     /**< @brief Sent a message,
  78:./lib/chibios/os/rt/include/chschd.h ****                                                   waiting answer.           */
  79:./lib/chibios/os/rt/include/chschd.h **** #define CH_STATE_WTMSG      (tstate_t)14     /**< @brief Waiting for a
  80:./lib/chibios/os/rt/include/chschd.h ****                                                   message.                  */
  81:./lib/chibios/os/rt/include/chschd.h **** #define CH_STATE_FINAL      (tstate_t)15     /**< @brief Thread terminated. */
  82:./lib/chibios/os/rt/include/chschd.h **** 
  83:./lib/chibios/os/rt/include/chschd.h **** /**
  84:./lib/chibios/os/rt/include/chschd.h ****  * @brief   Thread states as array of strings.
  85:./lib/chibios/os/rt/include/chschd.h ****  * @details Each element in an array initialized with this macro can be
  86:./lib/chibios/os/rt/include/chschd.h ****  *          indexed using the numeric thread state values.
  87:./lib/chibios/os/rt/include/chschd.h ****  */
  88:./lib/chibios/os/rt/include/chschd.h **** #define CH_STATE_NAMES                                                     \
  89:./lib/chibios/os/rt/include/chschd.h ****   "READY", "CURRENT", "WTSTART", "SUSPENDED", "QUEUED", "WTSEM", "WTMTX",  \
  90:./lib/chibios/os/rt/include/chschd.h ****   "WTCOND", "SLEEPING", "WTEXIT", "WTOREVT", "WTANDEVT", "SNDMSGQ",        \
  91:./lib/chibios/os/rt/include/chschd.h ****   "SNDMSG", "WTMSG", "FINAL"
  92:./lib/chibios/os/rt/include/chschd.h **** /** @} */
  93:./lib/chibios/os/rt/include/chschd.h **** 
  94:./lib/chibios/os/rt/include/chschd.h **** /**
  95:./lib/chibios/os/rt/include/chschd.h ****  * @name    Thread flags and attributes
  96:./lib/chibios/os/rt/include/chschd.h ****  * @{
  97:./lib/chibios/os/rt/include/chschd.h ****  */
  98:./lib/chibios/os/rt/include/chschd.h **** #define CH_FLAG_MODE_MASK   (tmode_t)3U     /**< @brief Thread memory mode
  99:./lib/chibios/os/rt/include/chschd.h ****                                                  mask.                      */
 100:./lib/chibios/os/rt/include/chschd.h **** #define CH_FLAG_MODE_STATIC (tmode_t)0U     /**< @brief Static thread.      */
 101:./lib/chibios/os/rt/include/chschd.h **** #define CH_FLAG_MODE_HEAP   (tmode_t)1U     /**< @brief Thread allocated
 102:./lib/chibios/os/rt/include/chschd.h ****                                                  from a Memory Heap.        */
 103:./lib/chibios/os/rt/include/chschd.h **** #define CH_FLAG_MODE_MPOOL  (tmode_t)2U     /**< @brief Thread allocated
 104:./lib/chibios/os/rt/include/chschd.h ****                                                  from a Memory Pool.        */
 105:./lib/chibios/os/rt/include/chschd.h **** #define CH_FLAG_TERMINATE   (tmode_t)4U     /**< @brief Termination requested
 106:./lib/chibios/os/rt/include/chschd.h ****                                                  flag.                      */
 107:./lib/chibios/os/rt/include/chschd.h **** /** @} */
 108:./lib/chibios/os/rt/include/chschd.h **** 
 109:./lib/chibios/os/rt/include/chschd.h **** /*===========================================================================*/
 110:./lib/chibios/os/rt/include/chschd.h **** /* Module pre-compile time settings.                                         */
 111:./lib/chibios/os/rt/include/chschd.h **** /*===========================================================================*/
 112:./lib/chibios/os/rt/include/chschd.h **** 
 113:./lib/chibios/os/rt/include/chschd.h **** /*===========================================================================*/
 114:./lib/chibios/os/rt/include/chschd.h **** /* Derived constants and error checks.                                       */
 115:./lib/chibios/os/rt/include/chschd.h **** /*===========================================================================*/
 116:./lib/chibios/os/rt/include/chschd.h **** 
 117:./lib/chibios/os/rt/include/chschd.h **** /*===========================================================================*/
 118:./lib/chibios/os/rt/include/chschd.h **** /* Module data structures and types.                                         */
 119:./lib/chibios/os/rt/include/chschd.h **** /*===========================================================================*/
 120:./lib/chibios/os/rt/include/chschd.h **** 
 121:./lib/chibios/os/rt/include/chschd.h **** /**
 122:./lib/chibios/os/rt/include/chschd.h ****  * @brief   Generic threads single link list, it works like a stack.
 123:./lib/chibios/os/rt/include/chschd.h ****  */
 124:./lib/chibios/os/rt/include/chschd.h **** struct ch_threads_list {
 125:./lib/chibios/os/rt/include/chschd.h ****   thread_t              *next;      /**< @brief Next in the list/queue.     */
 126:./lib/chibios/os/rt/include/chschd.h **** };
 127:./lib/chibios/os/rt/include/chschd.h **** 
 128:./lib/chibios/os/rt/include/chschd.h **** /**
 129:./lib/chibios/os/rt/include/chschd.h ****  * @brief   Generic threads bidirectional linked list header and element.
 130:./lib/chibios/os/rt/include/chschd.h ****  */
 131:./lib/chibios/os/rt/include/chschd.h **** struct ch_threads_queue {
 132:./lib/chibios/os/rt/include/chschd.h ****   thread_t              *next;      /**< @brief Next in the list/queue.     */
 133:./lib/chibios/os/rt/include/chschd.h ****   thread_t              *prev;      /**< @brief Previous in the queue.      */
 134:./lib/chibios/os/rt/include/chschd.h **** };
 135:./lib/chibios/os/rt/include/chschd.h **** 
 136:./lib/chibios/os/rt/include/chschd.h **** /**
 137:./lib/chibios/os/rt/include/chschd.h ****  * @brief   Structure representing a thread.
 138:./lib/chibios/os/rt/include/chschd.h ****  * @note    Not all the listed fields are always needed, by switching off some
 139:./lib/chibios/os/rt/include/chschd.h ****  *          not needed ChibiOS/RT subsystems it is possible to save RAM space
 140:./lib/chibios/os/rt/include/chschd.h ****  *          by shrinking this structure.
 141:./lib/chibios/os/rt/include/chschd.h ****  */
 142:./lib/chibios/os/rt/include/chschd.h **** struct ch_thread {
 143:./lib/chibios/os/rt/include/chschd.h ****   threads_queue_t       queue;      /**< @brief Threads queue header.       */
 144:./lib/chibios/os/rt/include/chschd.h ****   tprio_t               prio;       /**< @brief Thread priority.            */
 145:./lib/chibios/os/rt/include/chschd.h ****   struct port_context   ctx;        /**< @brief Processor context.          */
 146:./lib/chibios/os/rt/include/chschd.h **** #if (CH_CFG_USE_REGISTRY == TRUE) || defined(__DOXYGEN__)
 147:./lib/chibios/os/rt/include/chschd.h ****   thread_t              *newer;     /**< @brief Newer registry element.     */
 148:./lib/chibios/os/rt/include/chschd.h ****   thread_t              *older;     /**< @brief Older registry element.     */
 149:./lib/chibios/os/rt/include/chschd.h **** #endif
 150:./lib/chibios/os/rt/include/chschd.h ****   /* End of the fields shared with the ReadyList structure. */
 151:./lib/chibios/os/rt/include/chschd.h **** #if (CH_CFG_USE_REGISTRY == TRUE) || defined(__DOXYGEN__)
 152:./lib/chibios/os/rt/include/chschd.h ****   /**
 153:./lib/chibios/os/rt/include/chschd.h ****    * @brief   Thread name or @p NULL.
 154:./lib/chibios/os/rt/include/chschd.h ****    */
 155:./lib/chibios/os/rt/include/chschd.h ****   const char            *name;
 156:./lib/chibios/os/rt/include/chschd.h **** #endif
 157:./lib/chibios/os/rt/include/chschd.h **** #if (CH_DBG_ENABLE_STACK_CHECK == TRUE) || (CH_CFG_USE_DYNAMIC == TRUE) ||  \
 158:./lib/chibios/os/rt/include/chschd.h ****     defined(__DOXYGEN__)
 159:./lib/chibios/os/rt/include/chschd.h ****   /**
 160:./lib/chibios/os/rt/include/chschd.h ****    * @brief   Working area base address.
 161:./lib/chibios/os/rt/include/chschd.h ****    * @note    This pointer is used for stack overflow checks and for
 162:./lib/chibios/os/rt/include/chschd.h ****    *          dynamic threading.
 163:./lib/chibios/os/rt/include/chschd.h ****    */
 164:./lib/chibios/os/rt/include/chschd.h ****   stkalign_t            *wabase;
 165:./lib/chibios/os/rt/include/chschd.h **** #endif
 166:./lib/chibios/os/rt/include/chschd.h ****   /**
 167:./lib/chibios/os/rt/include/chschd.h ****    * @brief   Current thread state.
 168:./lib/chibios/os/rt/include/chschd.h ****    */
 169:./lib/chibios/os/rt/include/chschd.h ****   tstate_t              state;
 170:./lib/chibios/os/rt/include/chschd.h ****   /**
 171:./lib/chibios/os/rt/include/chschd.h ****    * @brief   Various thread flags.
 172:./lib/chibios/os/rt/include/chschd.h ****    */
 173:./lib/chibios/os/rt/include/chschd.h ****   tmode_t               flags;
 174:./lib/chibios/os/rt/include/chschd.h **** #if (CH_CFG_USE_REGISTRY == TRUE) || defined(__DOXYGEN__)
 175:./lib/chibios/os/rt/include/chschd.h ****   /**
 176:./lib/chibios/os/rt/include/chschd.h ****    * @brief   References to this thread.
 177:./lib/chibios/os/rt/include/chschd.h ****    */
 178:./lib/chibios/os/rt/include/chschd.h ****   trefs_t               refs;
 179:./lib/chibios/os/rt/include/chschd.h **** #endif
 180:./lib/chibios/os/rt/include/chschd.h ****   /**
 181:./lib/chibios/os/rt/include/chschd.h ****    * @brief   Number of ticks remaining to this thread.
 182:./lib/chibios/os/rt/include/chschd.h ****    */
 183:./lib/chibios/os/rt/include/chschd.h **** #if (CH_CFG_TIME_QUANTUM > 0) || defined(__DOXYGEN__)
 184:./lib/chibios/os/rt/include/chschd.h ****   tslices_t             ticks;
 185:./lib/chibios/os/rt/include/chschd.h **** #endif
 186:./lib/chibios/os/rt/include/chschd.h **** #if (CH_DBG_THREADS_PROFILING == TRUE) || defined(__DOXYGEN__)
 187:./lib/chibios/os/rt/include/chschd.h ****   /**
 188:./lib/chibios/os/rt/include/chschd.h ****    * @brief   Thread consumed time in ticks.
 189:./lib/chibios/os/rt/include/chschd.h ****    * @note    This field can overflow.
 190:./lib/chibios/os/rt/include/chschd.h ****    */
 191:./lib/chibios/os/rt/include/chschd.h ****   volatile systime_t    time;
 192:./lib/chibios/os/rt/include/chschd.h **** #endif
 193:./lib/chibios/os/rt/include/chschd.h ****   /**
 194:./lib/chibios/os/rt/include/chschd.h ****    * @brief   State-specific fields.
 195:./lib/chibios/os/rt/include/chschd.h ****    * @note    All the fields declared in this union are only valid in the
 196:./lib/chibios/os/rt/include/chschd.h ****    *          specified state or condition and are thus volatile.
 197:./lib/chibios/os/rt/include/chschd.h ****    */
 198:./lib/chibios/os/rt/include/chschd.h ****   union {
 199:./lib/chibios/os/rt/include/chschd.h ****     /**
 200:./lib/chibios/os/rt/include/chschd.h ****      * @brief   Thread wakeup code.
 201:./lib/chibios/os/rt/include/chschd.h ****      * @note    This field contains the low level message sent to the thread
 202:./lib/chibios/os/rt/include/chschd.h ****      *          by the waking thread or interrupt handler. The value is valid
 203:./lib/chibios/os/rt/include/chschd.h ****      *          after exiting the @p chSchWakeupS() function.
 204:./lib/chibios/os/rt/include/chschd.h ****      */
 205:./lib/chibios/os/rt/include/chschd.h ****     msg_t               rdymsg;
 206:./lib/chibios/os/rt/include/chschd.h ****     /**
 207:./lib/chibios/os/rt/include/chschd.h ****      * @brief   Thread exit code.
 208:./lib/chibios/os/rt/include/chschd.h ****      * @note    The thread termination code is stored in this field in order
 209:./lib/chibios/os/rt/include/chschd.h ****      *          to be retrieved by the thread performing a @p chThdWait() on
 210:./lib/chibios/os/rt/include/chschd.h ****      *          this thread.
 211:./lib/chibios/os/rt/include/chschd.h ****      */
 212:./lib/chibios/os/rt/include/chschd.h ****     msg_t               exitcode;
 213:./lib/chibios/os/rt/include/chschd.h ****     /**
 214:./lib/chibios/os/rt/include/chschd.h ****      * @brief   Pointer to a generic "wait" object.
 215:./lib/chibios/os/rt/include/chschd.h ****      * @note    This field is used to get a generic pointer to a synchronization
 216:./lib/chibios/os/rt/include/chschd.h ****      *          object and is valid when the thread is in one of the wait
 217:./lib/chibios/os/rt/include/chschd.h ****      *          states.
 218:./lib/chibios/os/rt/include/chschd.h ****      */
 219:./lib/chibios/os/rt/include/chschd.h ****     void                *wtobjp;
 220:./lib/chibios/os/rt/include/chschd.h ****     /**
 221:./lib/chibios/os/rt/include/chschd.h ****      * @brief   Pointer to a generic thread reference object.
 222:./lib/chibios/os/rt/include/chschd.h ****      * @note    This field is used to get a pointer to a synchronization
 223:./lib/chibios/os/rt/include/chschd.h ****      *          object and is valid when the thread is in @p CH_STATE_SUSPENDED
 224:./lib/chibios/os/rt/include/chschd.h ****      *          state.
 225:./lib/chibios/os/rt/include/chschd.h ****      */
 226:./lib/chibios/os/rt/include/chschd.h ****     thread_reference_t  *wttrp;
 227:./lib/chibios/os/rt/include/chschd.h **** #if (CH_CFG_USE_MESSAGES == TRUE) || defined(__DOXYGEN__)
 228:./lib/chibios/os/rt/include/chschd.h ****     /**
 229:./lib/chibios/os/rt/include/chschd.h ****      * @brief   Thread sent message.
 230:./lib/chibios/os/rt/include/chschd.h ****      */
 231:./lib/chibios/os/rt/include/chschd.h ****     msg_t               sentmsg;
 232:./lib/chibios/os/rt/include/chschd.h **** #endif
 233:./lib/chibios/os/rt/include/chschd.h **** #if (CH_CFG_USE_SEMAPHORES == TRUE) || defined(__DOXYGEN__)
 234:./lib/chibios/os/rt/include/chschd.h ****     /**
 235:./lib/chibios/os/rt/include/chschd.h ****      * @brief   Pointer to a generic semaphore object.
 236:./lib/chibios/os/rt/include/chschd.h ****      * @note    This field is used to get a pointer to a synchronization
 237:./lib/chibios/os/rt/include/chschd.h ****      *          object and is valid when the thread is in @p CH_STATE_WTSEM
 238:./lib/chibios/os/rt/include/chschd.h ****      *          state.
 239:./lib/chibios/os/rt/include/chschd.h ****      */
 240:./lib/chibios/os/rt/include/chschd.h ****     struct ch_semaphore *wtsemp;
 241:./lib/chibios/os/rt/include/chschd.h **** #endif
 242:./lib/chibios/os/rt/include/chschd.h **** #if (CH_CFG_USE_MUTEXES == TRUE) || defined(__DOXYGEN__)
 243:./lib/chibios/os/rt/include/chschd.h ****     /**
 244:./lib/chibios/os/rt/include/chschd.h ****      * @brief   Pointer to a generic mutex object.
 245:./lib/chibios/os/rt/include/chschd.h ****      * @note    This field is used to get a pointer to a synchronization
 246:./lib/chibios/os/rt/include/chschd.h ****      *          object and is valid when the thread is in @p CH_STATE_WTMTX
 247:./lib/chibios/os/rt/include/chschd.h ****      *          state.
 248:./lib/chibios/os/rt/include/chschd.h ****      */
 249:./lib/chibios/os/rt/include/chschd.h ****     struct ch_mutex     *wtmtxp;
 250:./lib/chibios/os/rt/include/chschd.h **** #endif
 251:./lib/chibios/os/rt/include/chschd.h **** #if (CH_CFG_USE_EVENTS == TRUE) || defined(__DOXYGEN__)
 252:./lib/chibios/os/rt/include/chschd.h ****     /**
 253:./lib/chibios/os/rt/include/chschd.h ****      * @brief   Enabled events mask.
 254:./lib/chibios/os/rt/include/chschd.h ****      * @note    This field is only valid while the thread is in the
 255:./lib/chibios/os/rt/include/chschd.h ****      *          @p CH_STATE_WTOREVT or @p CH_STATE_WTANDEVT states.
 256:./lib/chibios/os/rt/include/chschd.h ****      */
 257:./lib/chibios/os/rt/include/chschd.h ****     eventmask_t         ewmask;
 258:./lib/chibios/os/rt/include/chschd.h **** #endif
 259:./lib/chibios/os/rt/include/chschd.h ****   }                     u;
 260:./lib/chibios/os/rt/include/chschd.h **** #if (CH_CFG_USE_WAITEXIT == TRUE) || defined(__DOXYGEN__)
 261:./lib/chibios/os/rt/include/chschd.h ****   /**
 262:./lib/chibios/os/rt/include/chschd.h ****    * @brief   Termination waiting list.
 263:./lib/chibios/os/rt/include/chschd.h ****    */
 264:./lib/chibios/os/rt/include/chschd.h ****   threads_list_t        waiting;
 265:./lib/chibios/os/rt/include/chschd.h **** #endif
 266:./lib/chibios/os/rt/include/chschd.h **** #if (CH_CFG_USE_MESSAGES == TRUE) || defined(__DOXYGEN__)
 267:./lib/chibios/os/rt/include/chschd.h ****   /**
 268:./lib/chibios/os/rt/include/chschd.h ****    * @brief   Messages queue.
 269:./lib/chibios/os/rt/include/chschd.h ****    */
 270:./lib/chibios/os/rt/include/chschd.h ****   threads_queue_t       msgqueue;
 271:./lib/chibios/os/rt/include/chschd.h **** #endif
 272:./lib/chibios/os/rt/include/chschd.h **** #if (CH_CFG_USE_EVENTS == TRUE) || defined(__DOXYGEN__)
 273:./lib/chibios/os/rt/include/chschd.h ****   /**
 274:./lib/chibios/os/rt/include/chschd.h ****    * @brief   Pending events mask.
 275:./lib/chibios/os/rt/include/chschd.h ****    */
 276:./lib/chibios/os/rt/include/chschd.h ****   eventmask_t           epending;
 277:./lib/chibios/os/rt/include/chschd.h **** #endif
 278:./lib/chibios/os/rt/include/chschd.h **** #if (CH_CFG_USE_MUTEXES == TRUE) || defined(__DOXYGEN__)
 279:./lib/chibios/os/rt/include/chschd.h ****   /**
 280:./lib/chibios/os/rt/include/chschd.h ****    * @brief   List of the mutexes owned by this thread.
 281:./lib/chibios/os/rt/include/chschd.h ****    * @note    The list is terminated by a @p NULL in this field.
 282:./lib/chibios/os/rt/include/chschd.h ****    */
 283:./lib/chibios/os/rt/include/chschd.h ****   struct ch_mutex       *mtxlist;
 284:./lib/chibios/os/rt/include/chschd.h ****   /**
 285:./lib/chibios/os/rt/include/chschd.h ****    * @brief   Thread's own, non-inherited, priority.
 286:./lib/chibios/os/rt/include/chschd.h ****    */
 287:./lib/chibios/os/rt/include/chschd.h ****   tprio_t               realprio;
 288:./lib/chibios/os/rt/include/chschd.h **** #endif
 289:./lib/chibios/os/rt/include/chschd.h **** #if ((CH_CFG_USE_DYNAMIC == TRUE) && (CH_CFG_USE_MEMPOOLS == TRUE)) ||      \
 290:./lib/chibios/os/rt/include/chschd.h ****     defined(__DOXYGEN__)
 291:./lib/chibios/os/rt/include/chschd.h ****   /**
 292:./lib/chibios/os/rt/include/chschd.h ****    * @brief   Memory Pool where the thread workspace is returned.
 293:./lib/chibios/os/rt/include/chschd.h ****    */
 294:./lib/chibios/os/rt/include/chschd.h ****   void                  *mpool;
 295:./lib/chibios/os/rt/include/chschd.h **** #endif
 296:./lib/chibios/os/rt/include/chschd.h **** #if (CH_DBG_STATISTICS == TRUE) || defined(__DOXYGEN__)
 297:./lib/chibios/os/rt/include/chschd.h ****   /**
 298:./lib/chibios/os/rt/include/chschd.h ****    * @brief   Thread statistics.
 299:./lib/chibios/os/rt/include/chschd.h ****    */
 300:./lib/chibios/os/rt/include/chschd.h ****   time_measurement_t    stats;
 301:./lib/chibios/os/rt/include/chschd.h **** #endif
 302:./lib/chibios/os/rt/include/chschd.h **** #if defined(CH_CFG_THREAD_EXTRA_FIELDS)
 303:./lib/chibios/os/rt/include/chschd.h ****   /* Extra fields defined in chconf.h.*/
 304:./lib/chibios/os/rt/include/chschd.h ****   CH_CFG_THREAD_EXTRA_FIELDS
 305:./lib/chibios/os/rt/include/chschd.h **** #endif
 306:./lib/chibios/os/rt/include/chschd.h **** };
 307:./lib/chibios/os/rt/include/chschd.h **** 
 308:./lib/chibios/os/rt/include/chschd.h **** /**
 309:./lib/chibios/os/rt/include/chschd.h ****  * @extends virtual_timers_list_t
 310:./lib/chibios/os/rt/include/chschd.h ****  *
 311:./lib/chibios/os/rt/include/chschd.h ****  * @brief   Virtual Timer descriptor structure.
 312:./lib/chibios/os/rt/include/chschd.h ****  */
 313:./lib/chibios/os/rt/include/chschd.h **** struct ch_virtual_timer {
 314:./lib/chibios/os/rt/include/chschd.h ****   virtual_timer_t       *next;      /**< @brief Next timer in the list.     */
 315:./lib/chibios/os/rt/include/chschd.h ****   virtual_timer_t       *prev;      /**< @brief Previous timer in the list. */
 316:./lib/chibios/os/rt/include/chschd.h ****   sysinterval_t         delta;      /**< @brief Time delta before timeout.  */
 317:./lib/chibios/os/rt/include/chschd.h ****   vtfunc_t              func;       /**< @brief Timer callback function
 318:./lib/chibios/os/rt/include/chschd.h ****                                                 pointer.                    */
 319:./lib/chibios/os/rt/include/chschd.h ****   void                  *par;       /**< @brief Timer callback function
 320:./lib/chibios/os/rt/include/chschd.h ****                                                 parameter.                  */
 321:./lib/chibios/os/rt/include/chschd.h **** };
 322:./lib/chibios/os/rt/include/chschd.h **** 
 323:./lib/chibios/os/rt/include/chschd.h **** /**
 324:./lib/chibios/os/rt/include/chschd.h ****  * @brief   Virtual timers list header.
 325:./lib/chibios/os/rt/include/chschd.h ****  * @note    The timers list is implemented as a double link bidirectional list
 326:./lib/chibios/os/rt/include/chschd.h ****  *          in order to make the unlink time constant, the reset of a virtual
 327:./lib/chibios/os/rt/include/chschd.h ****  *          timer is often used in the code.
 328:./lib/chibios/os/rt/include/chschd.h ****  */
 329:./lib/chibios/os/rt/include/chschd.h **** struct ch_virtual_timers_list {
 330:./lib/chibios/os/rt/include/chschd.h ****   virtual_timer_t       *next;      /**< @brief Next timer in the delta
 331:./lib/chibios/os/rt/include/chschd.h ****                                                 list.                       */
 332:./lib/chibios/os/rt/include/chschd.h ****   virtual_timer_t       *prev;      /**< @brief Last timer in the delta
 333:./lib/chibios/os/rt/include/chschd.h ****                                                 list.                       */
 334:./lib/chibios/os/rt/include/chschd.h ****   sysinterval_t         delta;      /**< @brief Must be initialized to -1.  */
 335:./lib/chibios/os/rt/include/chschd.h **** #if (CH_CFG_ST_TIMEDELTA == 0) || defined(__DOXYGEN__)
 336:./lib/chibios/os/rt/include/chschd.h ****   volatile systime_t    systime;    /**< @brief System Time counter.        */
 337:./lib/chibios/os/rt/include/chschd.h **** #endif
 338:./lib/chibios/os/rt/include/chschd.h **** #if (CH_CFG_ST_TIMEDELTA > 0) || defined(__DOXYGEN__)
 339:./lib/chibios/os/rt/include/chschd.h ****   /**
 340:./lib/chibios/os/rt/include/chschd.h ****    * @brief   System time of the last tick event.
 341:./lib/chibios/os/rt/include/chschd.h ****    */
 342:./lib/chibios/os/rt/include/chschd.h ****   systime_t             lasttime;   /**< @brief System time of the last
 343:./lib/chibios/os/rt/include/chschd.h ****                                                 tick event.                 */
 344:./lib/chibios/os/rt/include/chschd.h **** #endif
 345:./lib/chibios/os/rt/include/chschd.h **** };
 346:./lib/chibios/os/rt/include/chschd.h **** 
 347:./lib/chibios/os/rt/include/chschd.h **** /**
 348:./lib/chibios/os/rt/include/chschd.h ****  * @extends threads_queue_t
 349:./lib/chibios/os/rt/include/chschd.h ****  */
 350:./lib/chibios/os/rt/include/chschd.h **** struct ch_ready_list {
 351:./lib/chibios/os/rt/include/chschd.h ****   threads_queue_t       queue;      /**< @brief Threads queue.              */
 352:./lib/chibios/os/rt/include/chschd.h ****   tprio_t               prio;       /**< @brief This field must be
 353:./lib/chibios/os/rt/include/chschd.h ****                                                 initialized to zero.        */
 354:./lib/chibios/os/rt/include/chschd.h ****   struct port_context   ctx;        /**< @brief Not used, present because
 355:./lib/chibios/os/rt/include/chschd.h ****                                                 offsets.                    */
 356:./lib/chibios/os/rt/include/chschd.h **** #if (CH_CFG_USE_REGISTRY == TRUE) || defined(__DOXYGEN__)
 357:./lib/chibios/os/rt/include/chschd.h ****   thread_t              *newer;     /**< @brief Newer registry element.     */
 358:./lib/chibios/os/rt/include/chschd.h ****   thread_t              *older;     /**< @brief Older registry element.     */
 359:./lib/chibios/os/rt/include/chschd.h **** #endif
 360:./lib/chibios/os/rt/include/chschd.h ****   /* End of the fields shared with the thread_t structure.*/
 361:./lib/chibios/os/rt/include/chschd.h ****   thread_t              *current;   /**< @brief The currently running
 362:./lib/chibios/os/rt/include/chschd.h ****                                                 thread.                     */
 363:./lib/chibios/os/rt/include/chschd.h **** };
 364:./lib/chibios/os/rt/include/chschd.h **** 
 365:./lib/chibios/os/rt/include/chschd.h **** /**
 366:./lib/chibios/os/rt/include/chschd.h ****  * @brief   System debug data structure.
 367:./lib/chibios/os/rt/include/chschd.h ****  */
 368:./lib/chibios/os/rt/include/chschd.h **** struct ch_system_debug {
 369:./lib/chibios/os/rt/include/chschd.h ****   /**
 370:./lib/chibios/os/rt/include/chschd.h ****    * @brief   Pointer to the panic message.
 371:./lib/chibios/os/rt/include/chschd.h ****    * @details This pointer is meant to be accessed through the debugger, it is
 372:./lib/chibios/os/rt/include/chschd.h ****    *          written once and then the system is halted.
 373:./lib/chibios/os/rt/include/chschd.h ****    * @note    Accesses to this pointer must never be optimized out so the
 374:./lib/chibios/os/rt/include/chschd.h ****    *          field itself is declared volatile.
 375:./lib/chibios/os/rt/include/chschd.h ****    */
 376:./lib/chibios/os/rt/include/chschd.h ****   const char            * volatile panic_msg;
 377:./lib/chibios/os/rt/include/chschd.h **** #if (CH_DBG_SYSTEM_STATE_CHECK == TRUE) || defined(__DOXYGEN__)
 378:./lib/chibios/os/rt/include/chschd.h ****   /**
 379:./lib/chibios/os/rt/include/chschd.h ****    * @brief   ISR nesting level.
 380:./lib/chibios/os/rt/include/chschd.h ****    */
 381:./lib/chibios/os/rt/include/chschd.h ****   cnt_t                 isr_cnt;
 382:./lib/chibios/os/rt/include/chschd.h ****   /**
 383:./lib/chibios/os/rt/include/chschd.h ****    * @brief   Lock nesting level.
 384:./lib/chibios/os/rt/include/chschd.h ****    */
 385:./lib/chibios/os/rt/include/chschd.h ****   cnt_t                 lock_cnt;
 386:./lib/chibios/os/rt/include/chschd.h **** #endif
 387:./lib/chibios/os/rt/include/chschd.h **** #if (CH_DBG_TRACE_MASK != CH_DBG_TRACE_MASK_DISABLED) || defined(__DOXYGEN__)
 388:./lib/chibios/os/rt/include/chschd.h ****   /**
 389:./lib/chibios/os/rt/include/chschd.h ****    * @brief   Public trace buffer.
 390:./lib/chibios/os/rt/include/chschd.h ****    */
 391:./lib/chibios/os/rt/include/chschd.h ****   ch_trace_buffer_t     trace_buffer;
 392:./lib/chibios/os/rt/include/chschd.h **** #endif
 393:./lib/chibios/os/rt/include/chschd.h **** };
 394:./lib/chibios/os/rt/include/chschd.h **** 
 395:./lib/chibios/os/rt/include/chschd.h **** /**
 396:./lib/chibios/os/rt/include/chschd.h ****  * @brief   System data structure.
 397:./lib/chibios/os/rt/include/chschd.h ****  * @note    This structure contain all the data areas used by the OS except
 398:./lib/chibios/os/rt/include/chschd.h ****  *          stacks.
 399:./lib/chibios/os/rt/include/chschd.h ****  */
 400:./lib/chibios/os/rt/include/chschd.h **** struct ch_system {
 401:./lib/chibios/os/rt/include/chschd.h ****   /**
 402:./lib/chibios/os/rt/include/chschd.h ****    * @brief   Ready list header.
 403:./lib/chibios/os/rt/include/chschd.h ****    */
 404:./lib/chibios/os/rt/include/chschd.h ****   ready_list_t          rlist;
 405:./lib/chibios/os/rt/include/chschd.h ****   /**
 406:./lib/chibios/os/rt/include/chschd.h ****    * @brief   Virtual timers delta list header.
 407:./lib/chibios/os/rt/include/chschd.h ****    */
 408:./lib/chibios/os/rt/include/chschd.h ****   virtual_timers_list_t vtlist;
 409:./lib/chibios/os/rt/include/chschd.h ****   /**
 410:./lib/chibios/os/rt/include/chschd.h ****    * @brief   System debug.
 411:./lib/chibios/os/rt/include/chschd.h ****    */
 412:./lib/chibios/os/rt/include/chschd.h ****   system_debug_t        dbg;
 413:./lib/chibios/os/rt/include/chschd.h ****   /**
 414:./lib/chibios/os/rt/include/chschd.h ****    * @brief   Main thread descriptor.
 415:./lib/chibios/os/rt/include/chschd.h ****    */
 416:./lib/chibios/os/rt/include/chschd.h ****   thread_t              mainthread;
 417:./lib/chibios/os/rt/include/chschd.h **** #if (CH_CFG_USE_TM == TRUE) || defined(__DOXYGEN__)
 418:./lib/chibios/os/rt/include/chschd.h ****   /**
 419:./lib/chibios/os/rt/include/chschd.h ****    * @brief   Time measurement calibration data.
 420:./lib/chibios/os/rt/include/chschd.h ****    */
 421:./lib/chibios/os/rt/include/chschd.h ****   tm_calibration_t      tm;
 422:./lib/chibios/os/rt/include/chschd.h **** #endif
 423:./lib/chibios/os/rt/include/chschd.h **** #if (CH_DBG_STATISTICS == TRUE) || defined(__DOXYGEN__)
 424:./lib/chibios/os/rt/include/chschd.h ****   /**
 425:./lib/chibios/os/rt/include/chschd.h ****    * @brief   Global kernel statistics.
 426:./lib/chibios/os/rt/include/chschd.h ****    */
 427:./lib/chibios/os/rt/include/chschd.h ****   kernel_stats_t        kernel_stats;
 428:./lib/chibios/os/rt/include/chschd.h **** #endif
 429:./lib/chibios/os/rt/include/chschd.h ****   CH_CFG_SYSTEM_EXTRA_FIELDS
 430:./lib/chibios/os/rt/include/chschd.h **** };
 431:./lib/chibios/os/rt/include/chschd.h **** 
 432:./lib/chibios/os/rt/include/chschd.h **** /*===========================================================================*/
 433:./lib/chibios/os/rt/include/chschd.h **** /* Module macros.                                                            */
 434:./lib/chibios/os/rt/include/chschd.h **** /*===========================================================================*/
 435:./lib/chibios/os/rt/include/chschd.h **** 
 436:./lib/chibios/os/rt/include/chschd.h **** /**
 437:./lib/chibios/os/rt/include/chschd.h ****  * @brief   Returns the priority of the first thread on the given ready list.
 438:./lib/chibios/os/rt/include/chschd.h ****  *
 439:./lib/chibios/os/rt/include/chschd.h ****  * @notapi
 440:./lib/chibios/os/rt/include/chschd.h ****  */
 441:./lib/chibios/os/rt/include/chschd.h **** #define firstprio(rlp)  ((rlp)->next->prio)
 442:./lib/chibios/os/rt/include/chschd.h **** 
 443:./lib/chibios/os/rt/include/chschd.h **** /**
 444:./lib/chibios/os/rt/include/chschd.h ****  * @brief   Current thread pointer access macro.
 445:./lib/chibios/os/rt/include/chschd.h ****  * @note    This macro is not meant to be used in the application code but
 446:./lib/chibios/os/rt/include/chschd.h ****  *          only from within the kernel, use @p chThdGetSelfX() instead.
 447:./lib/chibios/os/rt/include/chschd.h ****  */
 448:./lib/chibios/os/rt/include/chschd.h **** #define currp ch.rlist.current
 449:./lib/chibios/os/rt/include/chschd.h **** 
 450:./lib/chibios/os/rt/include/chschd.h **** /*===========================================================================*/
 451:./lib/chibios/os/rt/include/chschd.h **** /* External declarations.                                                    */
 452:./lib/chibios/os/rt/include/chschd.h **** /*===========================================================================*/
 453:./lib/chibios/os/rt/include/chschd.h **** 
 454:./lib/chibios/os/rt/include/chschd.h **** #if !defined(__DOXYGEN__)
 455:./lib/chibios/os/rt/include/chschd.h **** extern ch_system_t ch;
 456:./lib/chibios/os/rt/include/chschd.h **** #endif
 457:./lib/chibios/os/rt/include/chschd.h **** 
 458:./lib/chibios/os/rt/include/chschd.h **** /*
 459:./lib/chibios/os/rt/include/chschd.h ****  * Scheduler APIs.
 460:./lib/chibios/os/rt/include/chschd.h ****  */
 461:./lib/chibios/os/rt/include/chschd.h **** #ifdef __cplusplus
 462:./lib/chibios/os/rt/include/chschd.h **** extern "C" {
 463:./lib/chibios/os/rt/include/chschd.h **** #endif
 464:./lib/chibios/os/rt/include/chschd.h ****   void _scheduler_init(void);
 465:./lib/chibios/os/rt/include/chschd.h ****   thread_t *chSchReadyI(thread_t *tp);
 466:./lib/chibios/os/rt/include/chschd.h ****   thread_t *chSchReadyAheadI(thread_t *tp);
 467:./lib/chibios/os/rt/include/chschd.h ****   void chSchGoSleepS(tstate_t newstate);
 468:./lib/chibios/os/rt/include/chschd.h ****   msg_t chSchGoSleepTimeoutS(tstate_t newstate, sysinterval_t timeout);
 469:./lib/chibios/os/rt/include/chschd.h ****   void chSchWakeupS(thread_t *ntp, msg_t msg);
 470:./lib/chibios/os/rt/include/chschd.h ****   void chSchRescheduleS(void);
 471:./lib/chibios/os/rt/include/chschd.h ****   bool chSchIsPreemptionRequired(void);
 472:./lib/chibios/os/rt/include/chschd.h ****   void chSchDoRescheduleBehind(void);
 473:./lib/chibios/os/rt/include/chschd.h ****   void chSchDoRescheduleAhead(void);
 474:./lib/chibios/os/rt/include/chschd.h ****   void chSchDoReschedule(void);
 475:./lib/chibios/os/rt/include/chschd.h **** #if CH_CFG_OPTIMIZE_SPEED == FALSE
 476:./lib/chibios/os/rt/include/chschd.h ****   void queue_prio_insert(thread_t *tp, threads_queue_t *tqp);
 477:./lib/chibios/os/rt/include/chschd.h ****   void queue_insert(thread_t *tp, threads_queue_t *tqp);
 478:./lib/chibios/os/rt/include/chschd.h ****   thread_t *queue_fifo_remove(threads_queue_t *tqp);
 479:./lib/chibios/os/rt/include/chschd.h ****   thread_t *queue_lifo_remove(threads_queue_t *tqp);
 480:./lib/chibios/os/rt/include/chschd.h ****   thread_t *queue_dequeue(thread_t *tp);
 481:./lib/chibios/os/rt/include/chschd.h ****   void list_insert(thread_t *tp, threads_list_t *tlp);
 482:./lib/chibios/os/rt/include/chschd.h ****   thread_t *list_remove(threads_list_t *tlp);
 483:./lib/chibios/os/rt/include/chschd.h **** #endif /* CH_CFG_OPTIMIZE_SPEED == FALSE */
 484:./lib/chibios/os/rt/include/chschd.h **** #ifdef __cplusplus
 485:./lib/chibios/os/rt/include/chschd.h **** }
 486:./lib/chibios/os/rt/include/chschd.h **** #endif
 487:./lib/chibios/os/rt/include/chschd.h **** 
 488:./lib/chibios/os/rt/include/chschd.h **** /*===========================================================================*/
 489:./lib/chibios/os/rt/include/chschd.h **** /* Module inline functions.                                                  */
 490:./lib/chibios/os/rt/include/chschd.h **** /*===========================================================================*/
 491:./lib/chibios/os/rt/include/chschd.h **** 
 492:./lib/chibios/os/rt/include/chschd.h **** /**
 493:./lib/chibios/os/rt/include/chschd.h ****  * @brief   Threads list initialization.
 494:./lib/chibios/os/rt/include/chschd.h ****  *
 495:./lib/chibios/os/rt/include/chschd.h ****  * @param[in] tlp       pointer to the threads list object
 496:./lib/chibios/os/rt/include/chschd.h ****  *
 497:./lib/chibios/os/rt/include/chschd.h ****  * @notapi
 498:./lib/chibios/os/rt/include/chschd.h ****  */
 499:./lib/chibios/os/rt/include/chschd.h **** static inline void list_init(threads_list_t *tlp) {
  78              		.loc 2 499 20 view .LVU25
  79              	.LBB217:
 500:./lib/chibios/os/rt/include/chschd.h **** 
 501:./lib/chibios/os/rt/include/chschd.h ****   tlp->next = (thread_t *)tlp;
  80              		.loc 2 501 3 view .LVU26
  81              	.LBE217:
  82              	.LBE216:
  83              		.loc 1 114 3 is_stmt 0 view .LVU27
  84 0020 0300     		movs	r3, r0
  85 0022 2433     		adds	r3, r3, #36
  86              	.LVL3:
  87              	.LBB219:
  88              	.LBB218:
  89              		.loc 2 501 13 view .LVU28
  90 0024 4362     		str	r3, [r0, #36]
  91              	.LVL4:
  92              		.loc 2 501 13 view .LVU29
  93              	.LBE218:
  94              	.LBE219:
 115:lib/chibios/os/rt/src/chthreads.c **** #endif
 116:lib/chibios/os/rt/src/chthreads.c **** #if CH_CFG_USE_MESSAGES == TRUE
 117:lib/chibios/os/rt/src/chthreads.c ****   queue_init(&tp->msgqueue);
  95              		.loc 1 117 3 is_stmt 1 view .LVU30
  96 0026 0433     		adds	r3, r3, #4
  97              	.LVL5:
  98              	.LBB220:
  99              	.LBI220:
 502:./lib/chibios/os/rt/include/chschd.h **** }
 503:./lib/chibios/os/rt/include/chschd.h **** 
 504:./lib/chibios/os/rt/include/chschd.h **** /**
 505:./lib/chibios/os/rt/include/chschd.h ****  * @brief   Evaluates to @p true if the specified threads list is empty.
 506:./lib/chibios/os/rt/include/chschd.h ****  *
 507:./lib/chibios/os/rt/include/chschd.h ****  * @param[in] tlp       pointer to the threads list object
 508:./lib/chibios/os/rt/include/chschd.h ****  * @return              The status of the list.
 509:./lib/chibios/os/rt/include/chschd.h ****  *
 510:./lib/chibios/os/rt/include/chschd.h ****  * @notapi
 511:./lib/chibios/os/rt/include/chschd.h ****  */
 512:./lib/chibios/os/rt/include/chschd.h **** static inline bool list_isempty(threads_list_t *tlp) {
 513:./lib/chibios/os/rt/include/chschd.h **** 
 514:./lib/chibios/os/rt/include/chschd.h ****   return (bool)(tlp->next == (thread_t *)tlp);
 515:./lib/chibios/os/rt/include/chschd.h **** }
 516:./lib/chibios/os/rt/include/chschd.h **** 
 517:./lib/chibios/os/rt/include/chschd.h **** /**
 518:./lib/chibios/os/rt/include/chschd.h ****  * @brief   Evaluates to @p true if the specified threads list is not empty.
 519:./lib/chibios/os/rt/include/chschd.h ****  *
 520:./lib/chibios/os/rt/include/chschd.h ****  * @param[in] tlp       pointer to the threads list object
 521:./lib/chibios/os/rt/include/chschd.h ****  * @return              The status of the list.
 522:./lib/chibios/os/rt/include/chschd.h ****  *
 523:./lib/chibios/os/rt/include/chschd.h ****  * @notapi
 524:./lib/chibios/os/rt/include/chschd.h ****  */
 525:./lib/chibios/os/rt/include/chschd.h **** static inline bool list_notempty(threads_list_t *tlp) {
 526:./lib/chibios/os/rt/include/chschd.h **** 
 527:./lib/chibios/os/rt/include/chschd.h ****   return (bool)(tlp->next != (thread_t *)tlp);
 528:./lib/chibios/os/rt/include/chschd.h **** }
 529:./lib/chibios/os/rt/include/chschd.h **** 
 530:./lib/chibios/os/rt/include/chschd.h **** /**
 531:./lib/chibios/os/rt/include/chschd.h ****  * @brief   Threads queue initialization.
 532:./lib/chibios/os/rt/include/chschd.h ****  *
 533:./lib/chibios/os/rt/include/chschd.h ****  * @param[in] tqp       pointer to the threads queue object
 534:./lib/chibios/os/rt/include/chschd.h ****  *
 535:./lib/chibios/os/rt/include/chschd.h ****  * @notapi
 536:./lib/chibios/os/rt/include/chschd.h ****  */
 537:./lib/chibios/os/rt/include/chschd.h **** static inline void queue_init(threads_queue_t *tqp) {
 100              		.loc 2 537 20 view .LVU31
 101              	.LBB221:
 538:./lib/chibios/os/rt/include/chschd.h **** 
 539:./lib/chibios/os/rt/include/chschd.h ****   tqp->next = (thread_t *)tqp;
 102              		.loc 2 539 3 view .LVU32
 103              		.loc 2 539 13 is_stmt 0 view .LVU33
 104 0028 8362     		str	r3, [r0, #40]
 540:./lib/chibios/os/rt/include/chschd.h ****   tqp->prev = (thread_t *)tqp;
 105              		.loc 2 540 3 is_stmt 1 view .LVU34
 106              		.loc 2 540 13 is_stmt 0 view .LVU35
 107 002a C362     		str	r3, [r0, #44]
 108              	.LVL6:
 109              		.loc 2 540 13 view .LVU36
 110              	.LBE221:
 111              	.LBE220:
 118:lib/chibios/os/rt/src/chthreads.c **** #endif
 119:lib/chibios/os/rt/src/chthreads.c **** #if CH_DBG_STATISTICS == TRUE
 120:lib/chibios/os/rt/src/chthreads.c ****   chTMObjectInit(&tp->stats);
 121:lib/chibios/os/rt/src/chthreads.c **** #endif
 122:lib/chibios/os/rt/src/chthreads.c ****   CH_CFG_THREAD_INIT_HOOK(tp);
 112              		.loc 1 122 3 is_stmt 1 view .LVU37
 113              		.loc 1 122 30 view .LVU38
 123:lib/chibios/os/rt/src/chthreads.c ****   return tp;
 114              		.loc 1 123 3 view .LVU39
 124:lib/chibios/os/rt/src/chthreads.c **** }
 115              		.loc 1 124 1 is_stmt 0 view .LVU40
 116              		@ sp needed
 117 002c 7047     		bx	lr
 118              	.L3:
 119 002e C046     		.align	2
 120              	.L2:
 121 0030 00000000 		.word	ch
 122              		.cfi_endproc
 123              	.LFE154:
 125              		.section	.text.chThdCreateSuspendedI,"ax",%progbits
 126              		.align	1
 127              		.global	chThdCreateSuspendedI
 128              		.syntax unified
 129              		.code	16
 130              		.thumb_func
 131              		.fpu softvfp
 133              	chThdCreateSuspendedI:
 134              	.LVL7:
 135              	.LFB155:
 125:lib/chibios/os/rt/src/chthreads.c **** 
 126:lib/chibios/os/rt/src/chthreads.c **** #if (CH_DBG_FILL_THREADS == TRUE) || defined(__DOXYGEN__)
 127:lib/chibios/os/rt/src/chthreads.c **** /**
 128:lib/chibios/os/rt/src/chthreads.c ****  * @brief   Memory fill utility.
 129:lib/chibios/os/rt/src/chthreads.c ****  *
 130:lib/chibios/os/rt/src/chthreads.c ****  * @param[in] startp    first address to fill
 131:lib/chibios/os/rt/src/chthreads.c ****  * @param[in] endp      last address to fill +1
 132:lib/chibios/os/rt/src/chthreads.c ****  * @param[in] v         filler value
 133:lib/chibios/os/rt/src/chthreads.c ****  *
 134:lib/chibios/os/rt/src/chthreads.c ****  * @notapi
 135:lib/chibios/os/rt/src/chthreads.c ****  */
 136:lib/chibios/os/rt/src/chthreads.c **** void _thread_memfill(uint8_t *startp, uint8_t *endp, uint8_t v) {
 137:lib/chibios/os/rt/src/chthreads.c **** 
 138:lib/chibios/os/rt/src/chthreads.c ****   while (startp < endp) {
 139:lib/chibios/os/rt/src/chthreads.c ****     *startp++ = v;
 140:lib/chibios/os/rt/src/chthreads.c ****   }
 141:lib/chibios/os/rt/src/chthreads.c **** }
 142:lib/chibios/os/rt/src/chthreads.c **** #endif /* CH_DBG_FILL_THREADS */
 143:lib/chibios/os/rt/src/chthreads.c **** 
 144:lib/chibios/os/rt/src/chthreads.c **** /**
 145:lib/chibios/os/rt/src/chthreads.c ****  * @brief   Creates a new thread into a static memory area.
 146:lib/chibios/os/rt/src/chthreads.c ****  * @details The new thread is initialized but not inserted in the ready list,
 147:lib/chibios/os/rt/src/chthreads.c ****  *          the initial state is @p CH_STATE_WTSTART.
 148:lib/chibios/os/rt/src/chthreads.c ****  * @post    The created thread has a reference counter set to one, it is
 149:lib/chibios/os/rt/src/chthreads.c ****  *          caller responsibility to call @p chThdRelease() or @p chthdWait()
 150:lib/chibios/os/rt/src/chthreads.c ****  *          in order to release the reference. The thread persists in the
 151:lib/chibios/os/rt/src/chthreads.c ****  *          registry until its reference counter reaches zero.
 152:lib/chibios/os/rt/src/chthreads.c ****  * @post    The initialized thread can be subsequently started by invoking
 153:lib/chibios/os/rt/src/chthreads.c ****  *          @p chThdStart(), @p chThdStartI() or @p chSchWakeupS()
 154:lib/chibios/os/rt/src/chthreads.c ****  *          depending on the execution context.
 155:lib/chibios/os/rt/src/chthreads.c ****  * @note    A thread can terminate by calling @p chThdExit() or by simply
 156:lib/chibios/os/rt/src/chthreads.c ****  *          returning from its main function.
 157:lib/chibios/os/rt/src/chthreads.c ****  * @note    Threads created using this function do not obey to the
 158:lib/chibios/os/rt/src/chthreads.c ****  *          @p CH_DBG_FILL_THREADS debug option because it would keep
 159:lib/chibios/os/rt/src/chthreads.c ****  *          the kernel locked for too much time.
 160:lib/chibios/os/rt/src/chthreads.c ****  *
 161:lib/chibios/os/rt/src/chthreads.c ****  * @param[out] tdp      pointer to the thread descriptor
 162:lib/chibios/os/rt/src/chthreads.c ****  * @return              The pointer to the @p thread_t structure allocated for
 163:lib/chibios/os/rt/src/chthreads.c ****  *                      the thread into the working space area.
 164:lib/chibios/os/rt/src/chthreads.c ****  *
 165:lib/chibios/os/rt/src/chthreads.c ****  * @iclass
 166:lib/chibios/os/rt/src/chthreads.c ****  */
 167:lib/chibios/os/rt/src/chthreads.c **** thread_t *chThdCreateSuspendedI(const thread_descriptor_t *tdp) {
 136              		.loc 1 167 65 is_stmt 1 view -0
 137              		.cfi_startproc
 138              		@ args = 0, pretend = 0, frame = 0
 139              		@ frame_needed = 0, uses_anonymous_args = 0
 168:lib/chibios/os/rt/src/chthreads.c ****   thread_t *tp;
 140              		.loc 1 168 3 view .LVU42
 169:lib/chibios/os/rt/src/chthreads.c **** 
 170:lib/chibios/os/rt/src/chthreads.c ****   chDbgCheckClassI();
 141              		.loc 1 170 21 view .LVU43
 171:lib/chibios/os/rt/src/chthreads.c ****   chDbgCheck(tdp != NULL);
 142              		.loc 1 171 3 view .LVU44
 143              		.loc 1 171 3 view .LVU45
 172:lib/chibios/os/rt/src/chthreads.c ****   chDbgCheck(MEM_IS_ALIGNED(tdp->wbase, PORT_WORKING_AREA_ALIGN) &&
 144              		.loc 1 172 3 view .LVU46
 145              		.loc 1 172 3 view .LVU47
 173:lib/chibios/os/rt/src/chthreads.c ****              MEM_IS_ALIGNED(tdp->wend, PORT_STACK_ALIGN) &&
 174:lib/chibios/os/rt/src/chthreads.c ****              (tdp->wend > tdp->wbase) &&
 175:lib/chibios/os/rt/src/chthreads.c ****              (((size_t)tdp->wend - (size_t)tdp->wbase) >= THD_WORKING_AREA_SIZE(0)));
 176:lib/chibios/os/rt/src/chthreads.c ****   chDbgCheck((tdp->prio <= HIGHPRIO) && (tdp->funcp != NULL));
 146              		.loc 1 176 3 view .LVU48
 147              		.loc 1 176 3 view .LVU49
 177:lib/chibios/os/rt/src/chthreads.c **** 
 178:lib/chibios/os/rt/src/chthreads.c ****   /* The thread structure is laid out in the upper part of the thread
 179:lib/chibios/os/rt/src/chthreads.c ****      workspace. The thread position structure is aligned to the required
 180:lib/chibios/os/rt/src/chthreads.c ****      stack alignment because it represents the stack top.*/
 181:lib/chibios/os/rt/src/chthreads.c ****   tp = (thread_t *)((uint8_t *)tdp->wend -
 148              		.loc 1 181 3 view .LVU50
 149              		.loc 1 181 35 is_stmt 0 view .LVU51
 150 0000 8368     		ldr	r3, [r0, #8]
 151              	.LVL8:
 182:lib/chibios/os/rt/src/chthreads.c ****                     MEM_ALIGN_NEXT(sizeof (thread_t), PORT_STACK_ALIGN));
 183:lib/chibios/os/rt/src/chthreads.c **** 
 184:lib/chibios/os/rt/src/chthreads.c **** #if (CH_DBG_ENABLE_STACK_CHECK == TRUE) || (CH_CFG_USE_DYNAMIC == TRUE)
 185:lib/chibios/os/rt/src/chthreads.c ****   /* Stack boundary.*/
 186:lib/chibios/os/rt/src/chthreads.c ****   tp->wabase = tdp->wbase;
 187:lib/chibios/os/rt/src/chthreads.c **** #endif
 188:lib/chibios/os/rt/src/chthreads.c **** 
 189:lib/chibios/os/rt/src/chthreads.c ****   /* Setting up the port-dependent part of the working area.*/
 190:lib/chibios/os/rt/src/chthreads.c ****   PORT_SETUP_CONTEXT(tp, tdp->wbase, tp, tdp->funcp, tdp->arg);
 152              		.loc 1 190 3 is_stmt 1 view .LVU52
 167:lib/chibios/os/rt/src/chthreads.c ****   thread_t *tp;
 153              		.loc 1 167 65 is_stmt 0 view .LVU53
 154 0002 0100     		movs	r1, r0
 155              		.loc 1 190 3 view .LVU54
 156 0004 1800     		movs	r0, r3
 157              	.LVL9:
 158              		.loc 1 190 3 view .LVU55
 159 0006 0A69     		ldr	r2, [r1, #16]
 160 0008 643B     		subs	r3, r3, #100
 161              	.LVL10:
 162              		.loc 1 190 3 view .LVU56
 163 000a 4038     		subs	r0, r0, #64
 164              	.LVL11:
 167:lib/chibios/os/rt/src/chthreads.c ****   thread_t *tp;
 165              		.loc 1 167 65 view .LVU57
 166 000c 10B5     		push	{r4, lr}
 167              		.cfi_def_cfa_offset 8
 168              		.cfi_offset 4, -8
 169              		.cfi_offset 14, -4
 170              		.loc 1 190 3 view .LVU58
 171 000e C360     		str	r3, [r0, #12]
 172              		.loc 1 190 3 is_stmt 1 view .LVU59
 173 0010 1A61     		str	r2, [r3, #16]
 174              		.loc 1 190 3 view .LVU60
 175 0012 4A69     		ldr	r2, [r1, #20]
 191:lib/chibios/os/rt/src/chthreads.c **** 
 192:lib/chibios/os/rt/src/chthreads.c ****   /* The driver object is initialized but not started.*/
 193:lib/chibios/os/rt/src/chthreads.c ****   return _thread_init(tp, tdp->name, tdp->prio);
 194:lib/chibios/os/rt/src/chthreads.c **** }
 176              		.loc 1 194 1 is_stmt 0 view .LVU61
 177              		@ sp needed
 190:lib/chibios/os/rt/src/chthreads.c **** 
 178              		.loc 1 190 3 view .LVU62
 179 0014 5A61     		str	r2, [r3, #20]
 190:lib/chibios/os/rt/src/chthreads.c **** 
 180              		.loc 1 190 3 is_stmt 1 view .LVU63
 181 0016 034A     		ldr	r2, .L5
 182 0018 1A62     		str	r2, [r3, #32]
 190:lib/chibios/os/rt/src/chthreads.c **** 
 183              		.loc 1 190 63 view .LVU64
 193:lib/chibios/os/rt/src/chthreads.c **** }
 184              		.loc 1 193 3 view .LVU65
 193:lib/chibios/os/rt/src/chthreads.c **** }
 185              		.loc 1 193 10 is_stmt 0 view .LVU66
 186 001a CA68     		ldr	r2, [r1, #12]
 187 001c 0968     		ldr	r1, [r1]
 188              	.LVL12:
 193:lib/chibios/os/rt/src/chthreads.c **** }
 189              		.loc 1 193 10 view .LVU67
 190 001e FFF7FEFF 		bl	_thread_init
 191              	.LVL13:
 192              		.loc 1 194 1 view .LVU68
 193 0022 10BD     		pop	{r4, pc}
 194              	.L6:
 195              		.align	2
 196              	.L5:
 197 0024 00000000 		.word	_port_thread_start
 198              		.cfi_endproc
 199              	.LFE155:
 201              		.section	.text.chThdCreateSuspended,"ax",%progbits
 202              		.align	1
 203              		.global	chThdCreateSuspended
 204              		.syntax unified
 205              		.code	16
 206              		.thumb_func
 207              		.fpu softvfp
 209              	chThdCreateSuspended:
 210              	.LVL14:
 211              	.LFB156:
 195:lib/chibios/os/rt/src/chthreads.c **** 
 196:lib/chibios/os/rt/src/chthreads.c **** /**
 197:lib/chibios/os/rt/src/chthreads.c ****  * @brief   Creates a new thread into a static memory area.
 198:lib/chibios/os/rt/src/chthreads.c ****  * @details The new thread is initialized but not inserted in the ready list,
 199:lib/chibios/os/rt/src/chthreads.c ****  *          the initial state is @p CH_STATE_WTSTART.
 200:lib/chibios/os/rt/src/chthreads.c ****  * @post    The created thread has a reference counter set to one, it is
 201:lib/chibios/os/rt/src/chthreads.c ****  *          caller responsibility to call @p chThdRelease() or @p chthdWait()
 202:lib/chibios/os/rt/src/chthreads.c ****  *          in order to release the reference. The thread persists in the
 203:lib/chibios/os/rt/src/chthreads.c ****  *          registry until its reference counter reaches zero.
 204:lib/chibios/os/rt/src/chthreads.c ****  * @post    The initialized thread can be subsequently started by invoking
 205:lib/chibios/os/rt/src/chthreads.c ****  *          @p chThdStart(), @p chThdStartI() or @p chSchWakeupS()
 206:lib/chibios/os/rt/src/chthreads.c ****  *          depending on the execution context.
 207:lib/chibios/os/rt/src/chthreads.c ****  * @note    A thread can terminate by calling @p chThdExit() or by simply
 208:lib/chibios/os/rt/src/chthreads.c ****  *          returning from its main function.
 209:lib/chibios/os/rt/src/chthreads.c ****  *
 210:lib/chibios/os/rt/src/chthreads.c ****  * @param[out] tdp      pointer to the thread descriptor
 211:lib/chibios/os/rt/src/chthreads.c ****  * @return              The pointer to the @p thread_t structure allocated for
 212:lib/chibios/os/rt/src/chthreads.c ****  *                      the thread into the working space area.
 213:lib/chibios/os/rt/src/chthreads.c ****  *
 214:lib/chibios/os/rt/src/chthreads.c ****  * @api
 215:lib/chibios/os/rt/src/chthreads.c ****  */
 216:lib/chibios/os/rt/src/chthreads.c **** thread_t *chThdCreateSuspended(const thread_descriptor_t *tdp) {
 212              		.loc 1 216 64 is_stmt 1 view -0
 213              		.cfi_startproc
 214              		@ args = 0, pretend = 0, frame = 0
 215              		@ frame_needed = 0, uses_anonymous_args = 0
 217:lib/chibios/os/rt/src/chthreads.c ****   thread_t *tp;
 216              		.loc 1 217 3 view .LVU70
 218:lib/chibios/os/rt/src/chthreads.c **** 
 219:lib/chibios/os/rt/src/chthreads.c **** #if CH_CFG_USE_REGISTRY == TRUE
 220:lib/chibios/os/rt/src/chthreads.c ****   chDbgAssert(chRegFindThreadByWorkingArea(tdp->wbase) == NULL,
 217              		.loc 1 220 3 view .LVU71
 218              		.loc 1 220 3 view .LVU72
 221:lib/chibios/os/rt/src/chthreads.c ****               "working area in use");
 222:lib/chibios/os/rt/src/chthreads.c **** #endif
 223:lib/chibios/os/rt/src/chthreads.c **** 
 224:lib/chibios/os/rt/src/chthreads.c **** #if CH_DBG_FILL_THREADS == TRUE
 225:lib/chibios/os/rt/src/chthreads.c ****   _thread_memfill((uint8_t *)tdp->wbase,
 226:lib/chibios/os/rt/src/chthreads.c ****                   (uint8_t *)tdp->wend,
 227:lib/chibios/os/rt/src/chthreads.c ****                   CH_DBG_STACK_FILL_VALUE);
 228:lib/chibios/os/rt/src/chthreads.c **** #endif
 229:lib/chibios/os/rt/src/chthreads.c **** 
 230:lib/chibios/os/rt/src/chthreads.c ****   chSysLock();
 219              		.loc 1 230 3 view .LVU73
 220              	.LBB222:
 221              	.LBI222:
 222              		.file 3 "./lib/chibios/os/rt/include/chsys.h"
   1:./lib/chibios/os/rt/include/chsys.h **** /*
   2:./lib/chibios/os/rt/include/chsys.h ****     ChibiOS - Copyright (C) 2006..2018 Giovanni Di Sirio.
   3:./lib/chibios/os/rt/include/chsys.h **** 
   4:./lib/chibios/os/rt/include/chsys.h ****     This file is part of ChibiOS.
   5:./lib/chibios/os/rt/include/chsys.h **** 
   6:./lib/chibios/os/rt/include/chsys.h ****     ChibiOS is free software; you can redistribute it and/or modify
   7:./lib/chibios/os/rt/include/chsys.h ****     it under the terms of the GNU General Public License as published by
   8:./lib/chibios/os/rt/include/chsys.h ****     the Free Software Foundation; either version 3 of the License, or
   9:./lib/chibios/os/rt/include/chsys.h ****     (at your option) any later version.
  10:./lib/chibios/os/rt/include/chsys.h **** 
  11:./lib/chibios/os/rt/include/chsys.h ****     ChibiOS is distributed in the hope that it will be useful,
  12:./lib/chibios/os/rt/include/chsys.h ****     but WITHOUT ANY WARRANTY; without even the implied warranty of
  13:./lib/chibios/os/rt/include/chsys.h ****     MERCHANTABILITY or FITNESS FOR A PARTICULAR PURPOSE.  See the
  14:./lib/chibios/os/rt/include/chsys.h ****     GNU General Public License for more details.
  15:./lib/chibios/os/rt/include/chsys.h **** 
  16:./lib/chibios/os/rt/include/chsys.h ****     You should have received a copy of the GNU General Public License
  17:./lib/chibios/os/rt/include/chsys.h ****     along with this program.  If not, see <http://www.gnu.org/licenses/>.
  18:./lib/chibios/os/rt/include/chsys.h **** */
  19:./lib/chibios/os/rt/include/chsys.h **** 
  20:./lib/chibios/os/rt/include/chsys.h **** /**
  21:./lib/chibios/os/rt/include/chsys.h ****  * @file    chsys.h
  22:./lib/chibios/os/rt/include/chsys.h ****  * @brief   System related macros and structures.
  23:./lib/chibios/os/rt/include/chsys.h ****  *
  24:./lib/chibios/os/rt/include/chsys.h ****  * @addtogroup system
  25:./lib/chibios/os/rt/include/chsys.h ****  * @{
  26:./lib/chibios/os/rt/include/chsys.h ****  */
  27:./lib/chibios/os/rt/include/chsys.h **** 
  28:./lib/chibios/os/rt/include/chsys.h **** #ifndef CHSYS_H
  29:./lib/chibios/os/rt/include/chsys.h **** #define CHSYS_H
  30:./lib/chibios/os/rt/include/chsys.h **** 
  31:./lib/chibios/os/rt/include/chsys.h **** /*lint -sem(chSysHalt, r_no)*/
  32:./lib/chibios/os/rt/include/chsys.h **** 
  33:./lib/chibios/os/rt/include/chsys.h **** /*===========================================================================*/
  34:./lib/chibios/os/rt/include/chsys.h **** /* Module constants.                                                         */
  35:./lib/chibios/os/rt/include/chsys.h **** /*===========================================================================*/
  36:./lib/chibios/os/rt/include/chsys.h **** 
  37:./lib/chibios/os/rt/include/chsys.h **** /**
  38:./lib/chibios/os/rt/include/chsys.h ****  * @name    Masks of executable integrity checks.
  39:./lib/chibios/os/rt/include/chsys.h ****  * @{
  40:./lib/chibios/os/rt/include/chsys.h ****  */
  41:./lib/chibios/os/rt/include/chsys.h **** #define CH_INTEGRITY_RLIST                  1U
  42:./lib/chibios/os/rt/include/chsys.h **** #define CH_INTEGRITY_VTLIST                 2U
  43:./lib/chibios/os/rt/include/chsys.h **** #define CH_INTEGRITY_REGISTRY               4U
  44:./lib/chibios/os/rt/include/chsys.h **** #define CH_INTEGRITY_PORT                   8U
  45:./lib/chibios/os/rt/include/chsys.h **** /** @} */
  46:./lib/chibios/os/rt/include/chsys.h **** 
  47:./lib/chibios/os/rt/include/chsys.h **** /*===========================================================================*/
  48:./lib/chibios/os/rt/include/chsys.h **** /* Module pre-compile time settings.                                         */
  49:./lib/chibios/os/rt/include/chsys.h **** /*===========================================================================*/
  50:./lib/chibios/os/rt/include/chsys.h **** 
  51:./lib/chibios/os/rt/include/chsys.h **** /*===========================================================================*/
  52:./lib/chibios/os/rt/include/chsys.h **** /* Derived constants and error checks.                                       */
  53:./lib/chibios/os/rt/include/chsys.h **** /*===========================================================================*/
  54:./lib/chibios/os/rt/include/chsys.h **** 
  55:./lib/chibios/os/rt/include/chsys.h **** /*===========================================================================*/
  56:./lib/chibios/os/rt/include/chsys.h **** /* Module data structures and types.                                         */
  57:./lib/chibios/os/rt/include/chsys.h **** /*===========================================================================*/
  58:./lib/chibios/os/rt/include/chsys.h **** 
  59:./lib/chibios/os/rt/include/chsys.h **** /*===========================================================================*/
  60:./lib/chibios/os/rt/include/chsys.h **** /* Module macros.                                                            */
  61:./lib/chibios/os/rt/include/chsys.h **** /*===========================================================================*/
  62:./lib/chibios/os/rt/include/chsys.h **** 
  63:./lib/chibios/os/rt/include/chsys.h **** /**
  64:./lib/chibios/os/rt/include/chsys.h ****  * @name    ISRs abstraction macros
  65:./lib/chibios/os/rt/include/chsys.h ****  */
  66:./lib/chibios/os/rt/include/chsys.h **** /**
  67:./lib/chibios/os/rt/include/chsys.h ****  * @brief   Priority level validation macro.
  68:./lib/chibios/os/rt/include/chsys.h ****  * @details This macro determines if the passed value is a valid priority
  69:./lib/chibios/os/rt/include/chsys.h ****  *          level for the underlying architecture.
  70:./lib/chibios/os/rt/include/chsys.h ****  *
  71:./lib/chibios/os/rt/include/chsys.h ****  * @param[in] prio      the priority level
  72:./lib/chibios/os/rt/include/chsys.h ****  * @return              Priority range result.
  73:./lib/chibios/os/rt/include/chsys.h ****  * @retval false        if the priority is invalid or if the architecture
  74:./lib/chibios/os/rt/include/chsys.h ****  *                      does not support priorities.
  75:./lib/chibios/os/rt/include/chsys.h ****  * @retval true         if the priority is valid.
  76:./lib/chibios/os/rt/include/chsys.h ****  */
  77:./lib/chibios/os/rt/include/chsys.h **** #if defined(PORT_IRQ_IS_VALID_PRIORITY) || defined(__DOXYGEN__)
  78:./lib/chibios/os/rt/include/chsys.h **** #define CH_IRQ_IS_VALID_PRIORITY(prio)                                      \
  79:./lib/chibios/os/rt/include/chsys.h ****   PORT_IRQ_IS_VALID_PRIORITY(prio)
  80:./lib/chibios/os/rt/include/chsys.h **** #else
  81:./lib/chibios/os/rt/include/chsys.h **** #define CH_IRQ_IS_VALID_PRIORITY(prio) false
  82:./lib/chibios/os/rt/include/chsys.h **** #endif
  83:./lib/chibios/os/rt/include/chsys.h **** 
  84:./lib/chibios/os/rt/include/chsys.h **** /**
  85:./lib/chibios/os/rt/include/chsys.h ****  * @brief   Priority level validation macro.
  86:./lib/chibios/os/rt/include/chsys.h ****  * @details This macro determines if the passed value is a valid priority
  87:./lib/chibios/os/rt/include/chsys.h ****  *          level that cannot preempt the kernel critical zone.
  88:./lib/chibios/os/rt/include/chsys.h ****  *
  89:./lib/chibios/os/rt/include/chsys.h ****  * @param[in] prio      the priority level
  90:./lib/chibios/os/rt/include/chsys.h ****  * @return              Priority range result.
  91:./lib/chibios/os/rt/include/chsys.h ****  * @retval false        if the priority is invalid or if the architecture
  92:./lib/chibios/os/rt/include/chsys.h ****  *                      does not support priorities.
  93:./lib/chibios/os/rt/include/chsys.h ****  * @retval true         if the priority is valid.
  94:./lib/chibios/os/rt/include/chsys.h ****  */
  95:./lib/chibios/os/rt/include/chsys.h **** #if defined(PORT_IRQ_IS_VALID_KERNEL_PRIORITY) || defined(__DOXYGEN__)
  96:./lib/chibios/os/rt/include/chsys.h **** #define CH_IRQ_IS_VALID_KERNEL_PRIORITY(prio)                               \
  97:./lib/chibios/os/rt/include/chsys.h ****   PORT_IRQ_IS_VALID_KERNEL_PRIORITY(prio)
  98:./lib/chibios/os/rt/include/chsys.h **** #else
  99:./lib/chibios/os/rt/include/chsys.h **** #define CH_IRQ_IS_VALID_KERNEL_PRIORITY(prio) false
 100:./lib/chibios/os/rt/include/chsys.h **** #endif
 101:./lib/chibios/os/rt/include/chsys.h **** 
 102:./lib/chibios/os/rt/include/chsys.h **** /**
 103:./lib/chibios/os/rt/include/chsys.h ****  * @brief   IRQ handler enter code.
 104:./lib/chibios/os/rt/include/chsys.h ****  * @note    Usually IRQ handlers functions are also declared naked.
 105:./lib/chibios/os/rt/include/chsys.h ****  * @note    On some architectures this macro can be empty.
 106:./lib/chibios/os/rt/include/chsys.h ****  *
 107:./lib/chibios/os/rt/include/chsys.h ****  * @special
 108:./lib/chibios/os/rt/include/chsys.h ****  */
 109:./lib/chibios/os/rt/include/chsys.h **** #define CH_IRQ_PROLOGUE()                                                   \
 110:./lib/chibios/os/rt/include/chsys.h ****   PORT_IRQ_PROLOGUE();                                                      \
 111:./lib/chibios/os/rt/include/chsys.h ****   CH_CFG_IRQ_PROLOGUE_HOOK();                                               \
 112:./lib/chibios/os/rt/include/chsys.h ****   _stats_increase_irq();                                                    \
 113:./lib/chibios/os/rt/include/chsys.h ****   _trace_isr_enter(__func__);                                               \
 114:./lib/chibios/os/rt/include/chsys.h ****   _dbg_check_enter_isr()
 115:./lib/chibios/os/rt/include/chsys.h **** 
 116:./lib/chibios/os/rt/include/chsys.h **** /**
 117:./lib/chibios/os/rt/include/chsys.h ****  * @brief   IRQ handler exit code.
 118:./lib/chibios/os/rt/include/chsys.h ****  * @note    Usually IRQ handlers function are also declared naked.
 119:./lib/chibios/os/rt/include/chsys.h ****  * @note    This macro usually performs the final reschedule by using
 120:./lib/chibios/os/rt/include/chsys.h ****  *          @p chSchIsPreemptionRequired() and @p chSchDoReschedule().
 121:./lib/chibios/os/rt/include/chsys.h ****  *
 122:./lib/chibios/os/rt/include/chsys.h ****  * @special
 123:./lib/chibios/os/rt/include/chsys.h ****  */
 124:./lib/chibios/os/rt/include/chsys.h **** #define CH_IRQ_EPILOGUE()                                                   \
 125:./lib/chibios/os/rt/include/chsys.h ****   _dbg_check_leave_isr();                                                   \
 126:./lib/chibios/os/rt/include/chsys.h ****   _trace_isr_leave(__func__);                                               \
 127:./lib/chibios/os/rt/include/chsys.h ****   CH_CFG_IRQ_EPILOGUE_HOOK();                                               \
 128:./lib/chibios/os/rt/include/chsys.h ****   PORT_IRQ_EPILOGUE()
 129:./lib/chibios/os/rt/include/chsys.h **** 
 130:./lib/chibios/os/rt/include/chsys.h **** /**
 131:./lib/chibios/os/rt/include/chsys.h ****  * @brief   Standard normal IRQ handler declaration.
 132:./lib/chibios/os/rt/include/chsys.h ****  * @note    @p id can be a function name or a vector number depending on the
 133:./lib/chibios/os/rt/include/chsys.h ****  *          port implementation.
 134:./lib/chibios/os/rt/include/chsys.h ****  *
 135:./lib/chibios/os/rt/include/chsys.h ****  * @special
 136:./lib/chibios/os/rt/include/chsys.h ****  */
 137:./lib/chibios/os/rt/include/chsys.h **** #define CH_IRQ_HANDLER(id) PORT_IRQ_HANDLER(id)
 138:./lib/chibios/os/rt/include/chsys.h **** /** @} */
 139:./lib/chibios/os/rt/include/chsys.h **** 
 140:./lib/chibios/os/rt/include/chsys.h **** /**
 141:./lib/chibios/os/rt/include/chsys.h ****  * @name    Fast ISRs abstraction macros
 142:./lib/chibios/os/rt/include/chsys.h ****  */
 143:./lib/chibios/os/rt/include/chsys.h **** /**
 144:./lib/chibios/os/rt/include/chsys.h ****  * @brief   Standard fast IRQ handler declaration.
 145:./lib/chibios/os/rt/include/chsys.h ****  * @note    @p id can be a function name or a vector number depending on the
 146:./lib/chibios/os/rt/include/chsys.h ****  *          port implementation.
 147:./lib/chibios/os/rt/include/chsys.h ****  * @note    Not all architectures support fast interrupts.
 148:./lib/chibios/os/rt/include/chsys.h ****  *
 149:./lib/chibios/os/rt/include/chsys.h ****  * @special
 150:./lib/chibios/os/rt/include/chsys.h ****  */
 151:./lib/chibios/os/rt/include/chsys.h **** #define CH_FAST_IRQ_HANDLER(id) PORT_FAST_IRQ_HANDLER(id)
 152:./lib/chibios/os/rt/include/chsys.h **** /** @} */
 153:./lib/chibios/os/rt/include/chsys.h **** 
 154:./lib/chibios/os/rt/include/chsys.h **** /**
 155:./lib/chibios/os/rt/include/chsys.h ****  * @name    Time conversion utilities for the realtime counter
 156:./lib/chibios/os/rt/include/chsys.h ****  * @{
 157:./lib/chibios/os/rt/include/chsys.h ****  */
 158:./lib/chibios/os/rt/include/chsys.h **** /**
 159:./lib/chibios/os/rt/include/chsys.h ****  * @brief   Seconds to realtime counter.
 160:./lib/chibios/os/rt/include/chsys.h ****  * @details Converts from seconds to realtime counter cycles.
 161:./lib/chibios/os/rt/include/chsys.h ****  * @note    The macro assumes that @p freq >= @p 1.
 162:./lib/chibios/os/rt/include/chsys.h ****  *
 163:./lib/chibios/os/rt/include/chsys.h ****  * @param[in] freq      clock frequency, in Hz, of the realtime counter
 164:./lib/chibios/os/rt/include/chsys.h ****  * @param[in] sec       number of seconds
 165:./lib/chibios/os/rt/include/chsys.h ****  * @return              The number of cycles.
 166:./lib/chibios/os/rt/include/chsys.h ****  *
 167:./lib/chibios/os/rt/include/chsys.h ****  * @api
 168:./lib/chibios/os/rt/include/chsys.h ****  */
 169:./lib/chibios/os/rt/include/chsys.h **** #define S2RTC(freq, sec) ((freq) * (sec))
 170:./lib/chibios/os/rt/include/chsys.h **** 
 171:./lib/chibios/os/rt/include/chsys.h **** /**
 172:./lib/chibios/os/rt/include/chsys.h ****  * @brief   Milliseconds to realtime counter.
 173:./lib/chibios/os/rt/include/chsys.h ****  * @details Converts from milliseconds to realtime counter cycles.
 174:./lib/chibios/os/rt/include/chsys.h ****  * @note    The result is rounded upward to the next millisecond boundary.
 175:./lib/chibios/os/rt/include/chsys.h ****  * @note    The macro assumes that @p freq >= @p 1000.
 176:./lib/chibios/os/rt/include/chsys.h ****  *
 177:./lib/chibios/os/rt/include/chsys.h ****  * @param[in] freq      clock frequency, in Hz, of the realtime counter
 178:./lib/chibios/os/rt/include/chsys.h ****  * @param[in] msec      number of milliseconds
 179:./lib/chibios/os/rt/include/chsys.h ****  * @return              The number of cycles.
 180:./lib/chibios/os/rt/include/chsys.h ****  *
 181:./lib/chibios/os/rt/include/chsys.h ****  * @api
 182:./lib/chibios/os/rt/include/chsys.h ****  */
 183:./lib/chibios/os/rt/include/chsys.h **** #define MS2RTC(freq, msec) (rtcnt_t)((((freq) + 999UL) / 1000UL) * (msec))
 184:./lib/chibios/os/rt/include/chsys.h **** 
 185:./lib/chibios/os/rt/include/chsys.h **** /**
 186:./lib/chibios/os/rt/include/chsys.h ****  * @brief   Microseconds to realtime counter.
 187:./lib/chibios/os/rt/include/chsys.h ****  * @details Converts from microseconds to realtime counter cycles.
 188:./lib/chibios/os/rt/include/chsys.h ****  * @note    The result is rounded upward to the next microsecond boundary.
 189:./lib/chibios/os/rt/include/chsys.h ****  * @note    The macro assumes that @p freq >= @p 1000000.
 190:./lib/chibios/os/rt/include/chsys.h ****  *
 191:./lib/chibios/os/rt/include/chsys.h ****  * @param[in] freq      clock frequency, in Hz, of the realtime counter
 192:./lib/chibios/os/rt/include/chsys.h ****  * @param[in] usec      number of microseconds
 193:./lib/chibios/os/rt/include/chsys.h ****  * @return              The number of cycles.
 194:./lib/chibios/os/rt/include/chsys.h ****  *
 195:./lib/chibios/os/rt/include/chsys.h ****  * @api
 196:./lib/chibios/os/rt/include/chsys.h ****  */
 197:./lib/chibios/os/rt/include/chsys.h **** #define US2RTC(freq, usec) (rtcnt_t)((((freq) + 999999UL) / 1000000UL) * (usec))
 198:./lib/chibios/os/rt/include/chsys.h **** 
 199:./lib/chibios/os/rt/include/chsys.h **** /**
 200:./lib/chibios/os/rt/include/chsys.h ****  * @brief   Realtime counter cycles to seconds.
 201:./lib/chibios/os/rt/include/chsys.h ****  * @details Converts from realtime counter cycles number to seconds.
 202:./lib/chibios/os/rt/include/chsys.h ****  * @note    The result is rounded up to the next second boundary.
 203:./lib/chibios/os/rt/include/chsys.h ****  * @note    The macro assumes that @p freq >= @p 1.
 204:./lib/chibios/os/rt/include/chsys.h ****  *
 205:./lib/chibios/os/rt/include/chsys.h ****  * @param[in] freq      clock frequency, in Hz, of the realtime counter
 206:./lib/chibios/os/rt/include/chsys.h ****  * @param[in] n         number of cycles
 207:./lib/chibios/os/rt/include/chsys.h ****  * @return              The number of seconds.
 208:./lib/chibios/os/rt/include/chsys.h ****  *
 209:./lib/chibios/os/rt/include/chsys.h ****  * @api
 210:./lib/chibios/os/rt/include/chsys.h ****  */
 211:./lib/chibios/os/rt/include/chsys.h **** #define RTC2S(freq, n) ((((n) - 1UL) / (freq)) + 1UL)
 212:./lib/chibios/os/rt/include/chsys.h **** 
 213:./lib/chibios/os/rt/include/chsys.h **** /**
 214:./lib/chibios/os/rt/include/chsys.h ****  * @brief   Realtime counter cycles to milliseconds.
 215:./lib/chibios/os/rt/include/chsys.h ****  * @details Converts from realtime counter cycles number to milliseconds.
 216:./lib/chibios/os/rt/include/chsys.h ****  * @note    The result is rounded up to the next millisecond boundary.
 217:./lib/chibios/os/rt/include/chsys.h ****  * @note    The macro assumes that @p freq >= @p 1000.
 218:./lib/chibios/os/rt/include/chsys.h ****  *
 219:./lib/chibios/os/rt/include/chsys.h ****  * @param[in] freq      clock frequency, in Hz, of the realtime counter
 220:./lib/chibios/os/rt/include/chsys.h ****  * @param[in] n         number of cycles
 221:./lib/chibios/os/rt/include/chsys.h ****  * @return              The number of milliseconds.
 222:./lib/chibios/os/rt/include/chsys.h ****  *
 223:./lib/chibios/os/rt/include/chsys.h ****  * @api
 224:./lib/chibios/os/rt/include/chsys.h ****  */
 225:./lib/chibios/os/rt/include/chsys.h **** #define RTC2MS(freq, n) ((((n) - 1UL) / ((freq) / 1000UL)) + 1UL)
 226:./lib/chibios/os/rt/include/chsys.h **** 
 227:./lib/chibios/os/rt/include/chsys.h **** /**
 228:./lib/chibios/os/rt/include/chsys.h ****  * @brief   Realtime counter cycles to microseconds.
 229:./lib/chibios/os/rt/include/chsys.h ****  * @details Converts from realtime counter cycles number to microseconds.
 230:./lib/chibios/os/rt/include/chsys.h ****  * @note    The result is rounded up to the next microsecond boundary.
 231:./lib/chibios/os/rt/include/chsys.h ****  * @note    The macro assumes that @p freq >= @p 1000000.
 232:./lib/chibios/os/rt/include/chsys.h ****  *
 233:./lib/chibios/os/rt/include/chsys.h ****  * @param[in] freq      clock frequency, in Hz, of the realtime counter
 234:./lib/chibios/os/rt/include/chsys.h ****  * @param[in] n         number of cycles
 235:./lib/chibios/os/rt/include/chsys.h ****  * @return              The number of microseconds.
 236:./lib/chibios/os/rt/include/chsys.h ****  *
 237:./lib/chibios/os/rt/include/chsys.h ****  * @api
 238:./lib/chibios/os/rt/include/chsys.h ****  */
 239:./lib/chibios/os/rt/include/chsys.h **** #define RTC2US(freq, n) ((((n) - 1UL) / ((freq) / 1000000UL)) + 1UL)
 240:./lib/chibios/os/rt/include/chsys.h **** /** @} */
 241:./lib/chibios/os/rt/include/chsys.h **** 
 242:./lib/chibios/os/rt/include/chsys.h **** /**
 243:./lib/chibios/os/rt/include/chsys.h ****  * @brief   Returns the current value of the system real time counter.
 244:./lib/chibios/os/rt/include/chsys.h ****  * @note    This function is only available if the port layer supports the
 245:./lib/chibios/os/rt/include/chsys.h ****  *          option @p PORT_SUPPORTS_RT.
 246:./lib/chibios/os/rt/include/chsys.h ****  *
 247:./lib/chibios/os/rt/include/chsys.h ****  * @return              The value of the system realtime counter of
 248:./lib/chibios/os/rt/include/chsys.h ****  *                      type rtcnt_t.
 249:./lib/chibios/os/rt/include/chsys.h ****  *
 250:./lib/chibios/os/rt/include/chsys.h ****  * @xclass
 251:./lib/chibios/os/rt/include/chsys.h ****  */
 252:./lib/chibios/os/rt/include/chsys.h **** #if (PORT_SUPPORTS_RT == TRUE) || defined(__DOXYGEN__)
 253:./lib/chibios/os/rt/include/chsys.h **** #define chSysGetRealtimeCounterX() (rtcnt_t)port_rt_get_counter_value()
 254:./lib/chibios/os/rt/include/chsys.h **** #endif
 255:./lib/chibios/os/rt/include/chsys.h **** 
 256:./lib/chibios/os/rt/include/chsys.h **** /**
 257:./lib/chibios/os/rt/include/chsys.h ****  * @brief   Performs a context switch.
 258:./lib/chibios/os/rt/include/chsys.h ****  * @note    Not a user function, it is meant to be invoked by the scheduler
 259:./lib/chibios/os/rt/include/chsys.h ****  *          itself or from within the port layer.
 260:./lib/chibios/os/rt/include/chsys.h ****  *
 261:./lib/chibios/os/rt/include/chsys.h ****  * @param[in] ntp       the thread to be switched in
 262:./lib/chibios/os/rt/include/chsys.h ****  * @param[in] otp       the thread to be switched out
 263:./lib/chibios/os/rt/include/chsys.h ****  *
 264:./lib/chibios/os/rt/include/chsys.h ****  * @special
 265:./lib/chibios/os/rt/include/chsys.h ****  */
 266:./lib/chibios/os/rt/include/chsys.h **** #define chSysSwitch(ntp, otp) {                                             \
 267:./lib/chibios/os/rt/include/chsys.h ****                                                                             \
 268:./lib/chibios/os/rt/include/chsys.h ****   _trace_switch(ntp, otp);                                                  \
 269:./lib/chibios/os/rt/include/chsys.h ****   _stats_ctxswc(ntp, otp);                                                  \
 270:./lib/chibios/os/rt/include/chsys.h ****   CH_CFG_CONTEXT_SWITCH_HOOK(ntp, otp);                                     \
 271:./lib/chibios/os/rt/include/chsys.h ****   port_switch(ntp, otp);                                                    \
 272:./lib/chibios/os/rt/include/chsys.h **** }
 273:./lib/chibios/os/rt/include/chsys.h **** 
 274:./lib/chibios/os/rt/include/chsys.h **** /*===========================================================================*/
 275:./lib/chibios/os/rt/include/chsys.h **** /* External declarations.                                                    */
 276:./lib/chibios/os/rt/include/chsys.h **** /*===========================================================================*/
 277:./lib/chibios/os/rt/include/chsys.h **** 
 278:./lib/chibios/os/rt/include/chsys.h **** #if !defined(__DOXYGEN__)
 279:./lib/chibios/os/rt/include/chsys.h **** extern stkalign_t ch_idle_thread_wa[];
 280:./lib/chibios/os/rt/include/chsys.h **** #endif
 281:./lib/chibios/os/rt/include/chsys.h **** 
 282:./lib/chibios/os/rt/include/chsys.h **** #ifdef __cplusplus
 283:./lib/chibios/os/rt/include/chsys.h **** extern "C" {
 284:./lib/chibios/os/rt/include/chsys.h **** #endif
 285:./lib/chibios/os/rt/include/chsys.h ****   void chSysInit(void);
 286:./lib/chibios/os/rt/include/chsys.h ****   bool chSysIntegrityCheckI(unsigned testmask);
 287:./lib/chibios/os/rt/include/chsys.h ****   void chSysTimerHandlerI(void);
 288:./lib/chibios/os/rt/include/chsys.h ****   syssts_t chSysGetStatusAndLockX(void);
 289:./lib/chibios/os/rt/include/chsys.h ****   void chSysRestoreStatusX(syssts_t sts);
 290:./lib/chibios/os/rt/include/chsys.h **** #if PORT_SUPPORTS_RT == TRUE
 291:./lib/chibios/os/rt/include/chsys.h ****   bool chSysIsCounterWithinX(rtcnt_t cnt, rtcnt_t start, rtcnt_t end);
 292:./lib/chibios/os/rt/include/chsys.h ****   void chSysPolledDelayX(rtcnt_t cycles);
 293:./lib/chibios/os/rt/include/chsys.h **** #endif
 294:./lib/chibios/os/rt/include/chsys.h **** #ifdef __cplusplus
 295:./lib/chibios/os/rt/include/chsys.h **** }
 296:./lib/chibios/os/rt/include/chsys.h **** #endif
 297:./lib/chibios/os/rt/include/chsys.h **** 
 298:./lib/chibios/os/rt/include/chsys.h **** /*===========================================================================*/
 299:./lib/chibios/os/rt/include/chsys.h **** /* Module inline functions.                                                  */
 300:./lib/chibios/os/rt/include/chsys.h **** /*===========================================================================*/
 301:./lib/chibios/os/rt/include/chsys.h **** 
 302:./lib/chibios/os/rt/include/chsys.h **** /**
 303:./lib/chibios/os/rt/include/chsys.h ****  * @brief   Raises the system interrupt priority mask to the maximum level.
 304:./lib/chibios/os/rt/include/chsys.h ****  * @details All the maskable interrupt sources are disabled regardless their
 305:./lib/chibios/os/rt/include/chsys.h ****  *          hardware priority.
 306:./lib/chibios/os/rt/include/chsys.h ****  * @note    Do not invoke this API from within a kernel lock.
 307:./lib/chibios/os/rt/include/chsys.h ****  *
 308:./lib/chibios/os/rt/include/chsys.h ****  * @special
 309:./lib/chibios/os/rt/include/chsys.h ****  */
 310:./lib/chibios/os/rt/include/chsys.h **** static inline void chSysDisable(void) {
 311:./lib/chibios/os/rt/include/chsys.h **** 
 312:./lib/chibios/os/rt/include/chsys.h ****   port_disable();
 313:./lib/chibios/os/rt/include/chsys.h ****   _dbg_check_disable();
 314:./lib/chibios/os/rt/include/chsys.h **** }
 315:./lib/chibios/os/rt/include/chsys.h **** 
 316:./lib/chibios/os/rt/include/chsys.h **** /**
 317:./lib/chibios/os/rt/include/chsys.h ****  * @brief   Raises the system interrupt priority mask to system level.
 318:./lib/chibios/os/rt/include/chsys.h ****  * @details The interrupt sources that should not be able to preempt the kernel
 319:./lib/chibios/os/rt/include/chsys.h ****  *          are disabled, interrupt sources with higher priority are still
 320:./lib/chibios/os/rt/include/chsys.h ****  *          enabled.
 321:./lib/chibios/os/rt/include/chsys.h ****  * @note    Do not invoke this API from within a kernel lock.
 322:./lib/chibios/os/rt/include/chsys.h ****  * @note    This API is no replacement for @p chSysLock(), the @p chSysLock()
 323:./lib/chibios/os/rt/include/chsys.h ****  *          could do more than just disable the interrupts.
 324:./lib/chibios/os/rt/include/chsys.h ****  *
 325:./lib/chibios/os/rt/include/chsys.h ****  * @special
 326:./lib/chibios/os/rt/include/chsys.h ****  */
 327:./lib/chibios/os/rt/include/chsys.h **** static inline void chSysSuspend(void) {
 328:./lib/chibios/os/rt/include/chsys.h **** 
 329:./lib/chibios/os/rt/include/chsys.h ****   port_suspend();
 330:./lib/chibios/os/rt/include/chsys.h ****   _dbg_check_suspend();
 331:./lib/chibios/os/rt/include/chsys.h **** }
 332:./lib/chibios/os/rt/include/chsys.h **** 
 333:./lib/chibios/os/rt/include/chsys.h **** /**
 334:./lib/chibios/os/rt/include/chsys.h ****  * @brief   Lowers the system interrupt priority mask to user level.
 335:./lib/chibios/os/rt/include/chsys.h ****  * @details All the interrupt sources are enabled.
 336:./lib/chibios/os/rt/include/chsys.h ****  * @note    Do not invoke this API from within a kernel lock.
 337:./lib/chibios/os/rt/include/chsys.h ****  * @note    This API is no replacement for @p chSysUnlock(), the
 338:./lib/chibios/os/rt/include/chsys.h ****  *          @p chSysUnlock() could do more than just enable the interrupts.
 339:./lib/chibios/os/rt/include/chsys.h ****  *
 340:./lib/chibios/os/rt/include/chsys.h ****  * @special
 341:./lib/chibios/os/rt/include/chsys.h ****  */
 342:./lib/chibios/os/rt/include/chsys.h **** static inline void chSysEnable(void) {
 343:./lib/chibios/os/rt/include/chsys.h **** 
 344:./lib/chibios/os/rt/include/chsys.h ****   _dbg_check_enable();
 345:./lib/chibios/os/rt/include/chsys.h ****   port_enable();
 346:./lib/chibios/os/rt/include/chsys.h **** }
 347:./lib/chibios/os/rt/include/chsys.h **** 
 348:./lib/chibios/os/rt/include/chsys.h **** /**
 349:./lib/chibios/os/rt/include/chsys.h ****  * @brief   Enters the kernel lock state.
 350:./lib/chibios/os/rt/include/chsys.h ****  *
 351:./lib/chibios/os/rt/include/chsys.h ****  * @special
 352:./lib/chibios/os/rt/include/chsys.h ****  */
 353:./lib/chibios/os/rt/include/chsys.h **** static inline void chSysLock(void) {
 223              		.loc 3 353 20 view .LVU74
 224              	.LBE222:
 354:./lib/chibios/os/rt/include/chsys.h **** 
 355:./lib/chibios/os/rt/include/chsys.h ****   port_lock();
 225              		.loc 3 355 3 view .LVU75
 226              	.LBB230:
 227              	.LBB223:
 228              	.LBI223:
 229              		.file 4 "./lib/chibios/os/common/ports/ARMCMx/chcore_v6m.h"
   1:./lib/chibios/os/common/ports/ARMCMx/chcore_v6m.h **** /*
   2:./lib/chibios/os/common/ports/ARMCMx/chcore_v6m.h ****     ChibiOS - Copyright (C) 2006..2018 Giovanni Di Sirio.
   3:./lib/chibios/os/common/ports/ARMCMx/chcore_v6m.h **** 
   4:./lib/chibios/os/common/ports/ARMCMx/chcore_v6m.h ****     This file is part of ChibiOS.
   5:./lib/chibios/os/common/ports/ARMCMx/chcore_v6m.h **** 
   6:./lib/chibios/os/common/ports/ARMCMx/chcore_v6m.h ****     ChibiOS is free software; you can redistribute it and/or modify
   7:./lib/chibios/os/common/ports/ARMCMx/chcore_v6m.h ****     it under the terms of the GNU General Public License as published by
   8:./lib/chibios/os/common/ports/ARMCMx/chcore_v6m.h ****     the Free Software Foundation; either version 3 of the License, or
   9:./lib/chibios/os/common/ports/ARMCMx/chcore_v6m.h ****     (at your option) any later version.
  10:./lib/chibios/os/common/ports/ARMCMx/chcore_v6m.h **** 
  11:./lib/chibios/os/common/ports/ARMCMx/chcore_v6m.h ****     ChibiOS is distributed in the hope that it will be useful,
  12:./lib/chibios/os/common/ports/ARMCMx/chcore_v6m.h ****     but WITHOUT ANY WARRANTY; without even the implied warranty of
  13:./lib/chibios/os/common/ports/ARMCMx/chcore_v6m.h ****     MERCHANTABILITY or FITNESS FOR A PARTICULAR PURPOSE.  See the
  14:./lib/chibios/os/common/ports/ARMCMx/chcore_v6m.h ****     GNU General Public License for more details.
  15:./lib/chibios/os/common/ports/ARMCMx/chcore_v6m.h **** 
  16:./lib/chibios/os/common/ports/ARMCMx/chcore_v6m.h ****     You should have received a copy of the GNU General Public License
  17:./lib/chibios/os/common/ports/ARMCMx/chcore_v6m.h ****     along with this program.  If not, see <http://www.gnu.org/licenses/>.
  18:./lib/chibios/os/common/ports/ARMCMx/chcore_v6m.h **** */
  19:./lib/chibios/os/common/ports/ARMCMx/chcore_v6m.h **** 
  20:./lib/chibios/os/common/ports/ARMCMx/chcore_v6m.h **** /**
  21:./lib/chibios/os/common/ports/ARMCMx/chcore_v6m.h ****  * @file    chcore_v6m.h
  22:./lib/chibios/os/common/ports/ARMCMx/chcore_v6m.h ****  * @brief   ARMv6-M architecture port macros and structures.
  23:./lib/chibios/os/common/ports/ARMCMx/chcore_v6m.h ****  *
  24:./lib/chibios/os/common/ports/ARMCMx/chcore_v6m.h ****  * @addtogroup ARMCMx_V6M_CORE
  25:./lib/chibios/os/common/ports/ARMCMx/chcore_v6m.h ****  * @{
  26:./lib/chibios/os/common/ports/ARMCMx/chcore_v6m.h ****  */
  27:./lib/chibios/os/common/ports/ARMCMx/chcore_v6m.h **** 
  28:./lib/chibios/os/common/ports/ARMCMx/chcore_v6m.h **** #ifndef CHCORE_V6M_H
  29:./lib/chibios/os/common/ports/ARMCMx/chcore_v6m.h **** #define CHCORE_V6M_H
  30:./lib/chibios/os/common/ports/ARMCMx/chcore_v6m.h **** 
  31:./lib/chibios/os/common/ports/ARMCMx/chcore_v6m.h **** /*===========================================================================*/
  32:./lib/chibios/os/common/ports/ARMCMx/chcore_v6m.h **** /* Module constants.                                                         */
  33:./lib/chibios/os/common/ports/ARMCMx/chcore_v6m.h **** /*===========================================================================*/
  34:./lib/chibios/os/common/ports/ARMCMx/chcore_v6m.h **** 
  35:./lib/chibios/os/common/ports/ARMCMx/chcore_v6m.h **** /**
  36:./lib/chibios/os/common/ports/ARMCMx/chcore_v6m.h ****  * @name    Port Capabilities and Constants
  37:./lib/chibios/os/common/ports/ARMCMx/chcore_v6m.h ****  * @{
  38:./lib/chibios/os/common/ports/ARMCMx/chcore_v6m.h ****  */
  39:./lib/chibios/os/common/ports/ARMCMx/chcore_v6m.h **** /**
  40:./lib/chibios/os/common/ports/ARMCMx/chcore_v6m.h ****  * @brief   This port supports a realtime counter.
  41:./lib/chibios/os/common/ports/ARMCMx/chcore_v6m.h ****  */
  42:./lib/chibios/os/common/ports/ARMCMx/chcore_v6m.h **** #define PORT_SUPPORTS_RT                FALSE
  43:./lib/chibios/os/common/ports/ARMCMx/chcore_v6m.h **** 
  44:./lib/chibios/os/common/ports/ARMCMx/chcore_v6m.h **** /**
  45:./lib/chibios/os/common/ports/ARMCMx/chcore_v6m.h ****  * @brief   Natural alignment constant.
  46:./lib/chibios/os/common/ports/ARMCMx/chcore_v6m.h ****  * @note    It is the minimum alignment for pointer-size variables.
  47:./lib/chibios/os/common/ports/ARMCMx/chcore_v6m.h ****  */
  48:./lib/chibios/os/common/ports/ARMCMx/chcore_v6m.h **** #define PORT_NATURAL_ALIGN              sizeof (void *)
  49:./lib/chibios/os/common/ports/ARMCMx/chcore_v6m.h **** 
  50:./lib/chibios/os/common/ports/ARMCMx/chcore_v6m.h **** /**
  51:./lib/chibios/os/common/ports/ARMCMx/chcore_v6m.h ****  * @brief   Stack alignment constant.
  52:./lib/chibios/os/common/ports/ARMCMx/chcore_v6m.h ****  * @note    It is the alignment required for the stack pointer.
  53:./lib/chibios/os/common/ports/ARMCMx/chcore_v6m.h ****  */
  54:./lib/chibios/os/common/ports/ARMCMx/chcore_v6m.h **** #define PORT_STACK_ALIGN                sizeof (stkalign_t)
  55:./lib/chibios/os/common/ports/ARMCMx/chcore_v6m.h **** 
  56:./lib/chibios/os/common/ports/ARMCMx/chcore_v6m.h **** /**
  57:./lib/chibios/os/common/ports/ARMCMx/chcore_v6m.h ****  * @brief   Working Areas alignment constant.
  58:./lib/chibios/os/common/ports/ARMCMx/chcore_v6m.h ****  * @note    It is the alignment to be enforced for thread working areas.
  59:./lib/chibios/os/common/ports/ARMCMx/chcore_v6m.h ****  */
  60:./lib/chibios/os/common/ports/ARMCMx/chcore_v6m.h **** #define PORT_WORKING_AREA_ALIGN         PORT_STACK_ALIGN
  61:./lib/chibios/os/common/ports/ARMCMx/chcore_v6m.h **** /** @} */
  62:./lib/chibios/os/common/ports/ARMCMx/chcore_v6m.h **** 
  63:./lib/chibios/os/common/ports/ARMCMx/chcore_v6m.h **** /**
  64:./lib/chibios/os/common/ports/ARMCMx/chcore_v6m.h ****  * @brief   PendSV priority level.
  65:./lib/chibios/os/common/ports/ARMCMx/chcore_v6m.h ****  * @note    This priority is enforced to be equal to @p 0,
  66:./lib/chibios/os/common/ports/ARMCMx/chcore_v6m.h ****  *          this handler always has the highest priority that cannot preempt
  67:./lib/chibios/os/common/ports/ARMCMx/chcore_v6m.h ****  *          the kernel.
  68:./lib/chibios/os/common/ports/ARMCMx/chcore_v6m.h ****  */
  69:./lib/chibios/os/common/ports/ARMCMx/chcore_v6m.h **** #define CORTEX_PRIORITY_PENDSV          0
  70:./lib/chibios/os/common/ports/ARMCMx/chcore_v6m.h **** 
  71:./lib/chibios/os/common/ports/ARMCMx/chcore_v6m.h **** /*===========================================================================*/
  72:./lib/chibios/os/common/ports/ARMCMx/chcore_v6m.h **** /* Module pre-compile time settings.                                         */
  73:./lib/chibios/os/common/ports/ARMCMx/chcore_v6m.h **** /*===========================================================================*/
  74:./lib/chibios/os/common/ports/ARMCMx/chcore_v6m.h **** 
  75:./lib/chibios/os/common/ports/ARMCMx/chcore_v6m.h **** /**
  76:./lib/chibios/os/common/ports/ARMCMx/chcore_v6m.h ****  * @brief   Stack size for the system idle thread.
  77:./lib/chibios/os/common/ports/ARMCMx/chcore_v6m.h ****  * @details This size depends on the idle thread implementation, usually
  78:./lib/chibios/os/common/ports/ARMCMx/chcore_v6m.h ****  *          the idle thread should take no more space than those reserved
  79:./lib/chibios/os/common/ports/ARMCMx/chcore_v6m.h ****  *          by @p PORT_INT_REQUIRED_STACK.
  80:./lib/chibios/os/common/ports/ARMCMx/chcore_v6m.h ****  * @note    In this port it is set to 16 because the idle thread does have
  81:./lib/chibios/os/common/ports/ARMCMx/chcore_v6m.h ****  *          a stack frame when compiling without optimizations. You may
  82:./lib/chibios/os/common/ports/ARMCMx/chcore_v6m.h ****  *          reduce this value to zero when compiling with optimizations.
  83:./lib/chibios/os/common/ports/ARMCMx/chcore_v6m.h ****  */
  84:./lib/chibios/os/common/ports/ARMCMx/chcore_v6m.h **** #if !defined(PORT_IDLE_THREAD_STACK_SIZE)
  85:./lib/chibios/os/common/ports/ARMCMx/chcore_v6m.h **** #define PORT_IDLE_THREAD_STACK_SIZE     16
  86:./lib/chibios/os/common/ports/ARMCMx/chcore_v6m.h **** #endif
  87:./lib/chibios/os/common/ports/ARMCMx/chcore_v6m.h **** 
  88:./lib/chibios/os/common/ports/ARMCMx/chcore_v6m.h **** /**
  89:./lib/chibios/os/common/ports/ARMCMx/chcore_v6m.h ****  * @brief   Per-thread stack overhead for interrupts servicing.
  90:./lib/chibios/os/common/ports/ARMCMx/chcore_v6m.h ****  * @details This constant is used in the calculation of the correct working
  91:./lib/chibios/os/common/ports/ARMCMx/chcore_v6m.h ****  *          area size.
  92:./lib/chibios/os/common/ports/ARMCMx/chcore_v6m.h ****  * @note    In this port this value is conservatively set to 64 because the
  93:./lib/chibios/os/common/ports/ARMCMx/chcore_v6m.h ****  *          function @p chSchDoReschedule() can have a stack frame, especially
  94:./lib/chibios/os/common/ports/ARMCMx/chcore_v6m.h ****  *          with compiler optimizations disabled. The value can be reduced
  95:./lib/chibios/os/common/ports/ARMCMx/chcore_v6m.h ****  *          when compiler optimizations are enabled.
  96:./lib/chibios/os/common/ports/ARMCMx/chcore_v6m.h ****  */
  97:./lib/chibios/os/common/ports/ARMCMx/chcore_v6m.h **** #if !defined(PORT_INT_REQUIRED_STACK)
  98:./lib/chibios/os/common/ports/ARMCMx/chcore_v6m.h **** #define PORT_INT_REQUIRED_STACK         64
  99:./lib/chibios/os/common/ports/ARMCMx/chcore_v6m.h **** #endif
 100:./lib/chibios/os/common/ports/ARMCMx/chcore_v6m.h **** 
 101:./lib/chibios/os/common/ports/ARMCMx/chcore_v6m.h **** /**
 102:./lib/chibios/os/common/ports/ARMCMx/chcore_v6m.h ****  * @brief   Enables the use of the WFI instruction in the idle thread loop.
 103:./lib/chibios/os/common/ports/ARMCMx/chcore_v6m.h ****  */
 104:./lib/chibios/os/common/ports/ARMCMx/chcore_v6m.h **** #if !defined(CORTEX_ENABLE_WFI_IDLE)
 105:./lib/chibios/os/common/ports/ARMCMx/chcore_v6m.h **** #define CORTEX_ENABLE_WFI_IDLE          FALSE
 106:./lib/chibios/os/common/ports/ARMCMx/chcore_v6m.h **** #endif
 107:./lib/chibios/os/common/ports/ARMCMx/chcore_v6m.h **** 
 108:./lib/chibios/os/common/ports/ARMCMx/chcore_v6m.h **** /**
 109:./lib/chibios/os/common/ports/ARMCMx/chcore_v6m.h ****  * @brief   Alternate preemption method.
 110:./lib/chibios/os/common/ports/ARMCMx/chcore_v6m.h ****  * @details Activating this option will make the Kernel use the PendSV
 111:./lib/chibios/os/common/ports/ARMCMx/chcore_v6m.h ****  *          handler for preemption instead of the NMI handler.
 112:./lib/chibios/os/common/ports/ARMCMx/chcore_v6m.h ****  */
 113:./lib/chibios/os/common/ports/ARMCMx/chcore_v6m.h **** #ifndef CORTEX_ALTERNATE_SWITCH
 114:./lib/chibios/os/common/ports/ARMCMx/chcore_v6m.h **** #define CORTEX_ALTERNATE_SWITCH         FALSE
 115:./lib/chibios/os/common/ports/ARMCMx/chcore_v6m.h **** #endif
 116:./lib/chibios/os/common/ports/ARMCMx/chcore_v6m.h **** 
 117:./lib/chibios/os/common/ports/ARMCMx/chcore_v6m.h **** /*===========================================================================*/
 118:./lib/chibios/os/common/ports/ARMCMx/chcore_v6m.h **** /* Derived constants and error checks.                                       */
 119:./lib/chibios/os/common/ports/ARMCMx/chcore_v6m.h **** /*===========================================================================*/
 120:./lib/chibios/os/common/ports/ARMCMx/chcore_v6m.h **** 
 121:./lib/chibios/os/common/ports/ARMCMx/chcore_v6m.h **** #if !defined(CH_CUSTOMER_LIC_PORT_CM0)
 122:./lib/chibios/os/common/ports/ARMCMx/chcore_v6m.h **** #error "CH_CUSTOMER_LIC_PORT_CM0 not defined"
 123:./lib/chibios/os/common/ports/ARMCMx/chcore_v6m.h **** #endif
 124:./lib/chibios/os/common/ports/ARMCMx/chcore_v6m.h **** 
 125:./lib/chibios/os/common/ports/ARMCMx/chcore_v6m.h **** #if CH_CUSTOMER_LIC_PORT_CM0 == FALSE
 126:./lib/chibios/os/common/ports/ARMCMx/chcore_v6m.h **** #error "ChibiOS Cortex-M0 port not licensed"
 127:./lib/chibios/os/common/ports/ARMCMx/chcore_v6m.h **** #endif
 128:./lib/chibios/os/common/ports/ARMCMx/chcore_v6m.h **** 
 129:./lib/chibios/os/common/ports/ARMCMx/chcore_v6m.h **** /* Handling a GCC problem impacting ARMv6-M.*/
 130:./lib/chibios/os/common/ports/ARMCMx/chcore_v6m.h **** #if defined(__GNUC__) && !defined(PORT_IGNORE_GCC_VERSION_CHECK)
 131:./lib/chibios/os/common/ports/ARMCMx/chcore_v6m.h **** #if __GNUC__ > 5
 132:./lib/chibios/os/common/ports/ARMCMx/chcore_v6m.h **** #warning "This compiler has a know problem with Cortex-M0, see bugs: 88167, 88656."
 133:./lib/chibios/os/common/ports/ARMCMx/chcore_v6m.h **** #warning "*** Use GCC version 5 or below ***"
 134:./lib/chibios/os/common/ports/ARMCMx/chcore_v6m.h **** #endif
 135:./lib/chibios/os/common/ports/ARMCMx/chcore_v6m.h **** #endif
 136:./lib/chibios/os/common/ports/ARMCMx/chcore_v6m.h **** 
 137:./lib/chibios/os/common/ports/ARMCMx/chcore_v6m.h **** /**
 138:./lib/chibios/os/common/ports/ARMCMx/chcore_v6m.h ****  * @name    Architecture and Compiler
 139:./lib/chibios/os/common/ports/ARMCMx/chcore_v6m.h ****  * @{
 140:./lib/chibios/os/common/ports/ARMCMx/chcore_v6m.h ****  */
 141:./lib/chibios/os/common/ports/ARMCMx/chcore_v6m.h **** #if ((CORTEX_MODEL == 0) && !defined(__CORE_CM0PLUS_H_DEPENDANT)) ||        \
 142:./lib/chibios/os/common/ports/ARMCMx/chcore_v6m.h ****     defined(__DOXYGEN__)
 143:./lib/chibios/os/common/ports/ARMCMx/chcore_v6m.h **** /**
 144:./lib/chibios/os/common/ports/ARMCMx/chcore_v6m.h ****  * @brief   Macro defining the specific ARM architecture.
 145:./lib/chibios/os/common/ports/ARMCMx/chcore_v6m.h ****  */
 146:./lib/chibios/os/common/ports/ARMCMx/chcore_v6m.h **** #define PORT_ARCHITECTURE_ARM_v6M
 147:./lib/chibios/os/common/ports/ARMCMx/chcore_v6m.h **** 
 148:./lib/chibios/os/common/ports/ARMCMx/chcore_v6m.h **** /**
 149:./lib/chibios/os/common/ports/ARMCMx/chcore_v6m.h ****  * @brief   Name of the implemented architecture.
 150:./lib/chibios/os/common/ports/ARMCMx/chcore_v6m.h ****  */
 151:./lib/chibios/os/common/ports/ARMCMx/chcore_v6m.h **** #define PORT_ARCHITECTURE_NAME          "ARMv6-M"
 152:./lib/chibios/os/common/ports/ARMCMx/chcore_v6m.h **** 
 153:./lib/chibios/os/common/ports/ARMCMx/chcore_v6m.h **** /**
 154:./lib/chibios/os/common/ports/ARMCMx/chcore_v6m.h ****  * @brief   Name of the architecture variant.
 155:./lib/chibios/os/common/ports/ARMCMx/chcore_v6m.h ****  */
 156:./lib/chibios/os/common/ports/ARMCMx/chcore_v6m.h **** #define PORT_CORE_VARIANT_NAME          "Cortex-M0"
 157:./lib/chibios/os/common/ports/ARMCMx/chcore_v6m.h **** 
 158:./lib/chibios/os/common/ports/ARMCMx/chcore_v6m.h **** #elif (CORTEX_MODEL == 0) && defined(__CORE_CM0PLUS_H_DEPENDANT)
 159:./lib/chibios/os/common/ports/ARMCMx/chcore_v6m.h **** #define PORT_ARCHITECTURE_ARM_v6M
 160:./lib/chibios/os/common/ports/ARMCMx/chcore_v6m.h **** #define PORT_ARCHITECTURE_NAME          "ARMv6-M"
 161:./lib/chibios/os/common/ports/ARMCMx/chcore_v6m.h **** #define PORT_CORE_VARIANT_NAME          "Cortex-M0+"
 162:./lib/chibios/os/common/ports/ARMCMx/chcore_v6m.h **** #endif
 163:./lib/chibios/os/common/ports/ARMCMx/chcore_v6m.h **** 
 164:./lib/chibios/os/common/ports/ARMCMx/chcore_v6m.h **** /**
 165:./lib/chibios/os/common/ports/ARMCMx/chcore_v6m.h ****  * @brief   Port-specific information string.
 166:./lib/chibios/os/common/ports/ARMCMx/chcore_v6m.h ****  */
 167:./lib/chibios/os/common/ports/ARMCMx/chcore_v6m.h **** #if (CORTEX_ALTERNATE_SWITCH == FALSE) || defined(__DOXYGEN__)
 168:./lib/chibios/os/common/ports/ARMCMx/chcore_v6m.h **** #define PORT_INFO                       "Preemption through NMI"
 169:./lib/chibios/os/common/ports/ARMCMx/chcore_v6m.h **** #else
 170:./lib/chibios/os/common/ports/ARMCMx/chcore_v6m.h **** #define PORT_INFO                       "Preemption through PendSV"
 171:./lib/chibios/os/common/ports/ARMCMx/chcore_v6m.h **** #endif
 172:./lib/chibios/os/common/ports/ARMCMx/chcore_v6m.h **** /** @} */
 173:./lib/chibios/os/common/ports/ARMCMx/chcore_v6m.h **** 
 174:./lib/chibios/os/common/ports/ARMCMx/chcore_v6m.h **** /**
 175:./lib/chibios/os/common/ports/ARMCMx/chcore_v6m.h ****  * @brief   Maximum usable priority for normal ISRs.
 176:./lib/chibios/os/common/ports/ARMCMx/chcore_v6m.h ****  */
 177:./lib/chibios/os/common/ports/ARMCMx/chcore_v6m.h **** #if (CORTEX_ALTERNATE_SWITCH == TRUE) || defined(__DOXYGEN__)
 178:./lib/chibios/os/common/ports/ARMCMx/chcore_v6m.h **** #define CORTEX_MAX_KERNEL_PRIORITY      1
 179:./lib/chibios/os/common/ports/ARMCMx/chcore_v6m.h **** #else
 180:./lib/chibios/os/common/ports/ARMCMx/chcore_v6m.h **** #define CORTEX_MAX_KERNEL_PRIORITY      0
 181:./lib/chibios/os/common/ports/ARMCMx/chcore_v6m.h **** #endif
 182:./lib/chibios/os/common/ports/ARMCMx/chcore_v6m.h **** 
 183:./lib/chibios/os/common/ports/ARMCMx/chcore_v6m.h **** /*===========================================================================*/
 184:./lib/chibios/os/common/ports/ARMCMx/chcore_v6m.h **** /* Module data structures and types.                                         */
 185:./lib/chibios/os/common/ports/ARMCMx/chcore_v6m.h **** /*===========================================================================*/
 186:./lib/chibios/os/common/ports/ARMCMx/chcore_v6m.h **** 
 187:./lib/chibios/os/common/ports/ARMCMx/chcore_v6m.h **** #if !defined(_FROM_ASM_)
 188:./lib/chibios/os/common/ports/ARMCMx/chcore_v6m.h **** 
 189:./lib/chibios/os/common/ports/ARMCMx/chcore_v6m.h ****  /* The documentation of the following declarations is in chconf.h in order
 190:./lib/chibios/os/common/ports/ARMCMx/chcore_v6m.h ****     to not have duplicated structure names into the documentation.*/
 191:./lib/chibios/os/common/ports/ARMCMx/chcore_v6m.h **** #if !defined(__DOXYGEN__)
 192:./lib/chibios/os/common/ports/ARMCMx/chcore_v6m.h **** struct port_extctx {
 193:./lib/chibios/os/common/ports/ARMCMx/chcore_v6m.h ****   regarm_t      r0;
 194:./lib/chibios/os/common/ports/ARMCMx/chcore_v6m.h ****   regarm_t      r1;
 195:./lib/chibios/os/common/ports/ARMCMx/chcore_v6m.h ****   regarm_t      r2;
 196:./lib/chibios/os/common/ports/ARMCMx/chcore_v6m.h ****   regarm_t      r3;
 197:./lib/chibios/os/common/ports/ARMCMx/chcore_v6m.h ****   regarm_t      r12;
 198:./lib/chibios/os/common/ports/ARMCMx/chcore_v6m.h ****   regarm_t      lr_thd;
 199:./lib/chibios/os/common/ports/ARMCMx/chcore_v6m.h ****   regarm_t      pc;
 200:./lib/chibios/os/common/ports/ARMCMx/chcore_v6m.h ****   regarm_t      xpsr;
 201:./lib/chibios/os/common/ports/ARMCMx/chcore_v6m.h **** };
 202:./lib/chibios/os/common/ports/ARMCMx/chcore_v6m.h **** 
 203:./lib/chibios/os/common/ports/ARMCMx/chcore_v6m.h **** struct port_intctx {
 204:./lib/chibios/os/common/ports/ARMCMx/chcore_v6m.h ****   regarm_t      r8;
 205:./lib/chibios/os/common/ports/ARMCMx/chcore_v6m.h ****   regarm_t      r9;
 206:./lib/chibios/os/common/ports/ARMCMx/chcore_v6m.h ****   regarm_t      r10;
 207:./lib/chibios/os/common/ports/ARMCMx/chcore_v6m.h ****   regarm_t      r11;
 208:./lib/chibios/os/common/ports/ARMCMx/chcore_v6m.h ****   regarm_t      r4;
 209:./lib/chibios/os/common/ports/ARMCMx/chcore_v6m.h ****   regarm_t      r5;
 210:./lib/chibios/os/common/ports/ARMCMx/chcore_v6m.h ****   regarm_t      r6;
 211:./lib/chibios/os/common/ports/ARMCMx/chcore_v6m.h ****   regarm_t      r7;
 212:./lib/chibios/os/common/ports/ARMCMx/chcore_v6m.h ****   regarm_t      lr;
 213:./lib/chibios/os/common/ports/ARMCMx/chcore_v6m.h **** };
 214:./lib/chibios/os/common/ports/ARMCMx/chcore_v6m.h **** #endif /* !defined(__DOXYGEN__) */
 215:./lib/chibios/os/common/ports/ARMCMx/chcore_v6m.h **** 
 216:./lib/chibios/os/common/ports/ARMCMx/chcore_v6m.h **** /*===========================================================================*/
 217:./lib/chibios/os/common/ports/ARMCMx/chcore_v6m.h **** /* Module macros.                                                            */
 218:./lib/chibios/os/common/ports/ARMCMx/chcore_v6m.h **** /*===========================================================================*/
 219:./lib/chibios/os/common/ports/ARMCMx/chcore_v6m.h **** 
 220:./lib/chibios/os/common/ports/ARMCMx/chcore_v6m.h **** /**
 221:./lib/chibios/os/common/ports/ARMCMx/chcore_v6m.h ****  * @brief   Platform dependent part of the @p chThdCreateI() API.
 222:./lib/chibios/os/common/ports/ARMCMx/chcore_v6m.h ****  * @details This code usually setup the context switching frame represented
 223:./lib/chibios/os/common/ports/ARMCMx/chcore_v6m.h ****  *          by an @p port_intctx structure.
 224:./lib/chibios/os/common/ports/ARMCMx/chcore_v6m.h ****  */
 225:./lib/chibios/os/common/ports/ARMCMx/chcore_v6m.h **** #define PORT_SETUP_CONTEXT(tp, wbase, wtop, pf, arg) {                      \
 226:./lib/chibios/os/common/ports/ARMCMx/chcore_v6m.h ****   (tp)->ctx.sp = (struct port_intctx *)((uint8_t *)(wtop) -                 \
 227:./lib/chibios/os/common/ports/ARMCMx/chcore_v6m.h ****                                         sizeof (struct port_intctx));       \
 228:./lib/chibios/os/common/ports/ARMCMx/chcore_v6m.h ****   (tp)->ctx.sp->r4 = (regarm_t)(pf);                                        \
 229:./lib/chibios/os/common/ports/ARMCMx/chcore_v6m.h ****   (tp)->ctx.sp->r5 = (regarm_t)(arg);                                       \
 230:./lib/chibios/os/common/ports/ARMCMx/chcore_v6m.h ****   (tp)->ctx.sp->lr = (regarm_t)_port_thread_start;                          \
 231:./lib/chibios/os/common/ports/ARMCMx/chcore_v6m.h **** }
 232:./lib/chibios/os/common/ports/ARMCMx/chcore_v6m.h **** 
 233:./lib/chibios/os/common/ports/ARMCMx/chcore_v6m.h **** /**
 234:./lib/chibios/os/common/ports/ARMCMx/chcore_v6m.h ****  * @brief   Computes the thread working area global size.
 235:./lib/chibios/os/common/ports/ARMCMx/chcore_v6m.h ****  * @note    There is no need to perform alignments in this macro.
 236:./lib/chibios/os/common/ports/ARMCMx/chcore_v6m.h ****  */
 237:./lib/chibios/os/common/ports/ARMCMx/chcore_v6m.h **** #define PORT_WA_SIZE(n) (sizeof (struct port_intctx) +                      \
 238:./lib/chibios/os/common/ports/ARMCMx/chcore_v6m.h ****                          sizeof (struct port_extctx) +                      \
 239:./lib/chibios/os/common/ports/ARMCMx/chcore_v6m.h ****                          ((size_t)(n)) + ((size_t)(PORT_INT_REQUIRED_STACK)))
 240:./lib/chibios/os/common/ports/ARMCMx/chcore_v6m.h **** 
 241:./lib/chibios/os/common/ports/ARMCMx/chcore_v6m.h **** /**
 242:./lib/chibios/os/common/ports/ARMCMx/chcore_v6m.h ****  * @brief   Static working area allocation.
 243:./lib/chibios/os/common/ports/ARMCMx/chcore_v6m.h ****  * @details This macro is used to allocate a static thread working area
 244:./lib/chibios/os/common/ports/ARMCMx/chcore_v6m.h ****  *          aligned as both position and size.
 245:./lib/chibios/os/common/ports/ARMCMx/chcore_v6m.h ****  *
 246:./lib/chibios/os/common/ports/ARMCMx/chcore_v6m.h ****  * @param[in] s         the name to be assigned to the stack array
 247:./lib/chibios/os/common/ports/ARMCMx/chcore_v6m.h ****  * @param[in] n         the stack size to be assigned to the thread
 248:./lib/chibios/os/common/ports/ARMCMx/chcore_v6m.h ****  */
 249:./lib/chibios/os/common/ports/ARMCMx/chcore_v6m.h **** #define PORT_WORKING_AREA(s, n)                                             \
 250:./lib/chibios/os/common/ports/ARMCMx/chcore_v6m.h ****   stkalign_t s[THD_WORKING_AREA_SIZE(n) / sizeof (stkalign_t)]
 251:./lib/chibios/os/common/ports/ARMCMx/chcore_v6m.h **** 
 252:./lib/chibios/os/common/ports/ARMCMx/chcore_v6m.h **** /**
 253:./lib/chibios/os/common/ports/ARMCMx/chcore_v6m.h ****  * @brief   IRQ prologue code.
 254:./lib/chibios/os/common/ports/ARMCMx/chcore_v6m.h ****  * @details This macro must be inserted at the start of all IRQ handlers
 255:./lib/chibios/os/common/ports/ARMCMx/chcore_v6m.h ****  *          enabled to invoke system APIs.
 256:./lib/chibios/os/common/ports/ARMCMx/chcore_v6m.h ****  */
 257:./lib/chibios/os/common/ports/ARMCMx/chcore_v6m.h **** #if defined(__GNUC__) || defined(__DOXYGEN__)
 258:./lib/chibios/os/common/ports/ARMCMx/chcore_v6m.h **** #define PORT_IRQ_PROLOGUE()                                                 \
 259:./lib/chibios/os/common/ports/ARMCMx/chcore_v6m.h ****   regarm_t _saved_lr = (regarm_t)__builtin_return_address(0)
 260:./lib/chibios/os/common/ports/ARMCMx/chcore_v6m.h **** #elif defined(__ICCARM__)
 261:./lib/chibios/os/common/ports/ARMCMx/chcore_v6m.h **** #define PORT_IRQ_PROLOGUE()                                                 \
 262:./lib/chibios/os/common/ports/ARMCMx/chcore_v6m.h ****   regarm_t _saved_lr = (regarm_t)__get_LR()
 263:./lib/chibios/os/common/ports/ARMCMx/chcore_v6m.h **** #elif defined(__CC_ARM)
 264:./lib/chibios/os/common/ports/ARMCMx/chcore_v6m.h **** #define PORT_IRQ_PROLOGUE()                                                 \
 265:./lib/chibios/os/common/ports/ARMCMx/chcore_v6m.h ****   regarm_t _saved_lr = (regarm_t)__return_address()
 266:./lib/chibios/os/common/ports/ARMCMx/chcore_v6m.h **** #endif
 267:./lib/chibios/os/common/ports/ARMCMx/chcore_v6m.h **** 
 268:./lib/chibios/os/common/ports/ARMCMx/chcore_v6m.h **** /**
 269:./lib/chibios/os/common/ports/ARMCMx/chcore_v6m.h ****  * @brief   IRQ epilogue code.
 270:./lib/chibios/os/common/ports/ARMCMx/chcore_v6m.h ****  * @details This macro must be inserted at the end of all IRQ handlers
 271:./lib/chibios/os/common/ports/ARMCMx/chcore_v6m.h ****  *          enabled to invoke system APIs.
 272:./lib/chibios/os/common/ports/ARMCMx/chcore_v6m.h ****  */
 273:./lib/chibios/os/common/ports/ARMCMx/chcore_v6m.h **** #define PORT_IRQ_EPILOGUE() _port_irq_epilogue(_saved_lr)
 274:./lib/chibios/os/common/ports/ARMCMx/chcore_v6m.h **** 
 275:./lib/chibios/os/common/ports/ARMCMx/chcore_v6m.h **** /**
 276:./lib/chibios/os/common/ports/ARMCMx/chcore_v6m.h ****  * @brief   IRQ handler function declaration.
 277:./lib/chibios/os/common/ports/ARMCMx/chcore_v6m.h ****  * @note    @p id can be a function name or a vector number depending on the
 278:./lib/chibios/os/common/ports/ARMCMx/chcore_v6m.h ****  *          port implementation.
 279:./lib/chibios/os/common/ports/ARMCMx/chcore_v6m.h ****  */
 280:./lib/chibios/os/common/ports/ARMCMx/chcore_v6m.h **** #ifdef __cplusplus
 281:./lib/chibios/os/common/ports/ARMCMx/chcore_v6m.h **** #define PORT_IRQ_HANDLER(id) extern "C" void id(void)
 282:./lib/chibios/os/common/ports/ARMCMx/chcore_v6m.h **** #else
 283:./lib/chibios/os/common/ports/ARMCMx/chcore_v6m.h **** #define PORT_IRQ_HANDLER(id) void id(void)
 284:./lib/chibios/os/common/ports/ARMCMx/chcore_v6m.h **** #endif
 285:./lib/chibios/os/common/ports/ARMCMx/chcore_v6m.h **** 
 286:./lib/chibios/os/common/ports/ARMCMx/chcore_v6m.h **** /**
 287:./lib/chibios/os/common/ports/ARMCMx/chcore_v6m.h ****  * @brief   Fast IRQ handler function declaration.
 288:./lib/chibios/os/common/ports/ARMCMx/chcore_v6m.h ****  * @note    @p id can be a function name or a vector number depending on the
 289:./lib/chibios/os/common/ports/ARMCMx/chcore_v6m.h ****  *          port implementation.
 290:./lib/chibios/os/common/ports/ARMCMx/chcore_v6m.h ****  */
 291:./lib/chibios/os/common/ports/ARMCMx/chcore_v6m.h **** #ifdef __cplusplus
 292:./lib/chibios/os/common/ports/ARMCMx/chcore_v6m.h **** #define PORT_FAST_IRQ_HANDLER(id) extern "C" void id(void)
 293:./lib/chibios/os/common/ports/ARMCMx/chcore_v6m.h **** #else
 294:./lib/chibios/os/common/ports/ARMCMx/chcore_v6m.h **** #define PORT_FAST_IRQ_HANDLER(id) void id(void)
 295:./lib/chibios/os/common/ports/ARMCMx/chcore_v6m.h **** #endif
 296:./lib/chibios/os/common/ports/ARMCMx/chcore_v6m.h **** 
 297:./lib/chibios/os/common/ports/ARMCMx/chcore_v6m.h **** /**
 298:./lib/chibios/os/common/ports/ARMCMx/chcore_v6m.h ****  * @brief   Performs a context switch between two threads.
 299:./lib/chibios/os/common/ports/ARMCMx/chcore_v6m.h ****  * @details This is the most critical code in any port, this function
 300:./lib/chibios/os/common/ports/ARMCMx/chcore_v6m.h ****  *          is responsible for the context switch between 2 threads.
 301:./lib/chibios/os/common/ports/ARMCMx/chcore_v6m.h ****  * @note    The implementation of this code affects <b>directly</b> the context
 302:./lib/chibios/os/common/ports/ARMCMx/chcore_v6m.h ****  *          switch performance so optimize here as much as you can.
 303:./lib/chibios/os/common/ports/ARMCMx/chcore_v6m.h ****  *
 304:./lib/chibios/os/common/ports/ARMCMx/chcore_v6m.h ****  * @param[in] ntp       the thread to be switched in
 305:./lib/chibios/os/common/ports/ARMCMx/chcore_v6m.h ****  * @param[in] otp       the thread to be switched out
 306:./lib/chibios/os/common/ports/ARMCMx/chcore_v6m.h ****  */
 307:./lib/chibios/os/common/ports/ARMCMx/chcore_v6m.h **** #if (CH_DBG_ENABLE_STACK_CHECK == FALSE) || defined(__DOXYGEN__)
 308:./lib/chibios/os/common/ports/ARMCMx/chcore_v6m.h **** #define port_switch(ntp, otp) _port_switch(ntp, otp)
 309:./lib/chibios/os/common/ports/ARMCMx/chcore_v6m.h **** #else
 310:./lib/chibios/os/common/ports/ARMCMx/chcore_v6m.h **** #define port_switch(ntp, otp) {                                             \
 311:./lib/chibios/os/common/ports/ARMCMx/chcore_v6m.h ****   struct port_intctx *r13 = (struct port_intctx *)__get_PSP();              \
 312:./lib/chibios/os/common/ports/ARMCMx/chcore_v6m.h ****   if ((stkalign_t *)(r13 - 1) < (otp)->wabase) {                            \
 313:./lib/chibios/os/common/ports/ARMCMx/chcore_v6m.h ****     chSysHalt("stack overflow");                                            \
 314:./lib/chibios/os/common/ports/ARMCMx/chcore_v6m.h ****   }                                                                         \
 315:./lib/chibios/os/common/ports/ARMCMx/chcore_v6m.h ****   _port_switch(ntp, otp);                                                   \
 316:./lib/chibios/os/common/ports/ARMCMx/chcore_v6m.h **** }
 317:./lib/chibios/os/common/ports/ARMCMx/chcore_v6m.h **** #endif
 318:./lib/chibios/os/common/ports/ARMCMx/chcore_v6m.h **** 
 319:./lib/chibios/os/common/ports/ARMCMx/chcore_v6m.h **** /*===========================================================================*/
 320:./lib/chibios/os/common/ports/ARMCMx/chcore_v6m.h **** /* External declarations.                                                    */
 321:./lib/chibios/os/common/ports/ARMCMx/chcore_v6m.h **** /*===========================================================================*/
 322:./lib/chibios/os/common/ports/ARMCMx/chcore_v6m.h **** 
 323:./lib/chibios/os/common/ports/ARMCMx/chcore_v6m.h **** #ifdef __cplusplus
 324:./lib/chibios/os/common/ports/ARMCMx/chcore_v6m.h **** extern "C" {
 325:./lib/chibios/os/common/ports/ARMCMx/chcore_v6m.h **** #endif
 326:./lib/chibios/os/common/ports/ARMCMx/chcore_v6m.h ****   void _port_irq_epilogue(regarm_t lr);
 327:./lib/chibios/os/common/ports/ARMCMx/chcore_v6m.h ****   void _port_switch(thread_t *ntp, thread_t *otp);
 328:./lib/chibios/os/common/ports/ARMCMx/chcore_v6m.h ****   void _port_thread_start(void);
 329:./lib/chibios/os/common/ports/ARMCMx/chcore_v6m.h ****   void _port_switch_from_isr(void);
 330:./lib/chibios/os/common/ports/ARMCMx/chcore_v6m.h ****   void _port_exit_from_isr(void);
 331:./lib/chibios/os/common/ports/ARMCMx/chcore_v6m.h **** #ifdef __cplusplus
 332:./lib/chibios/os/common/ports/ARMCMx/chcore_v6m.h **** }
 333:./lib/chibios/os/common/ports/ARMCMx/chcore_v6m.h **** #endif
 334:./lib/chibios/os/common/ports/ARMCMx/chcore_v6m.h **** 
 335:./lib/chibios/os/common/ports/ARMCMx/chcore_v6m.h **** /*===========================================================================*/
 336:./lib/chibios/os/common/ports/ARMCMx/chcore_v6m.h **** /* Module inline functions.                                                  */
 337:./lib/chibios/os/common/ports/ARMCMx/chcore_v6m.h **** /*===========================================================================*/
 338:./lib/chibios/os/common/ports/ARMCMx/chcore_v6m.h **** 
 339:./lib/chibios/os/common/ports/ARMCMx/chcore_v6m.h **** /**
 340:./lib/chibios/os/common/ports/ARMCMx/chcore_v6m.h ****  * @brief   Port-related initialization code.
 341:./lib/chibios/os/common/ports/ARMCMx/chcore_v6m.h ****  */
 342:./lib/chibios/os/common/ports/ARMCMx/chcore_v6m.h **** static inline void port_init(void) {
 343:./lib/chibios/os/common/ports/ARMCMx/chcore_v6m.h **** 
 344:./lib/chibios/os/common/ports/ARMCMx/chcore_v6m.h ****   NVIC_SetPriority(PendSV_IRQn, CORTEX_PRIORITY_PENDSV);
 345:./lib/chibios/os/common/ports/ARMCMx/chcore_v6m.h **** }
 346:./lib/chibios/os/common/ports/ARMCMx/chcore_v6m.h **** 
 347:./lib/chibios/os/common/ports/ARMCMx/chcore_v6m.h **** /**
 348:./lib/chibios/os/common/ports/ARMCMx/chcore_v6m.h ****  * @brief   Returns a word encoding the current interrupts status.
 349:./lib/chibios/os/common/ports/ARMCMx/chcore_v6m.h ****  *
 350:./lib/chibios/os/common/ports/ARMCMx/chcore_v6m.h ****  * @return              The interrupts status.
 351:./lib/chibios/os/common/ports/ARMCMx/chcore_v6m.h ****  */
 352:./lib/chibios/os/common/ports/ARMCMx/chcore_v6m.h **** static inline syssts_t port_get_irq_status(void) {
 353:./lib/chibios/os/common/ports/ARMCMx/chcore_v6m.h **** 
 354:./lib/chibios/os/common/ports/ARMCMx/chcore_v6m.h ****   return (syssts_t)__get_PRIMASK();
 355:./lib/chibios/os/common/ports/ARMCMx/chcore_v6m.h **** }
 356:./lib/chibios/os/common/ports/ARMCMx/chcore_v6m.h **** 
 357:./lib/chibios/os/common/ports/ARMCMx/chcore_v6m.h **** /**
 358:./lib/chibios/os/common/ports/ARMCMx/chcore_v6m.h ****  * @brief   Checks the interrupt status.
 359:./lib/chibios/os/common/ports/ARMCMx/chcore_v6m.h ****  *
 360:./lib/chibios/os/common/ports/ARMCMx/chcore_v6m.h ****  * @param[in] sts       the interrupt status word
 361:./lib/chibios/os/common/ports/ARMCMx/chcore_v6m.h ****  *
 362:./lib/chibios/os/common/ports/ARMCMx/chcore_v6m.h ****  * @return              The interrupt status.
 363:./lib/chibios/os/common/ports/ARMCMx/chcore_v6m.h ****  * @retval false        the word specified a disabled interrupts status.
 364:./lib/chibios/os/common/ports/ARMCMx/chcore_v6m.h ****  * @retval true         the word specified an enabled interrupts status.
 365:./lib/chibios/os/common/ports/ARMCMx/chcore_v6m.h ****  */
 366:./lib/chibios/os/common/ports/ARMCMx/chcore_v6m.h **** static inline bool port_irq_enabled(syssts_t sts) {
 367:./lib/chibios/os/common/ports/ARMCMx/chcore_v6m.h **** 
 368:./lib/chibios/os/common/ports/ARMCMx/chcore_v6m.h ****   return (sts & (syssts_t)1) == (syssts_t)0;
 369:./lib/chibios/os/common/ports/ARMCMx/chcore_v6m.h **** }
 370:./lib/chibios/os/common/ports/ARMCMx/chcore_v6m.h **** 
 371:./lib/chibios/os/common/ports/ARMCMx/chcore_v6m.h **** /**
 372:./lib/chibios/os/common/ports/ARMCMx/chcore_v6m.h ****  * @brief   Determines the current execution context.
 373:./lib/chibios/os/common/ports/ARMCMx/chcore_v6m.h ****  *
 374:./lib/chibios/os/common/ports/ARMCMx/chcore_v6m.h ****  * @return              The execution context.
 375:./lib/chibios/os/common/ports/ARMCMx/chcore_v6m.h ****  * @retval false        not running in ISR mode.
 376:./lib/chibios/os/common/ports/ARMCMx/chcore_v6m.h ****  * @retval true         running in ISR mode.
 377:./lib/chibios/os/common/ports/ARMCMx/chcore_v6m.h ****  */
 378:./lib/chibios/os/common/ports/ARMCMx/chcore_v6m.h **** static inline bool port_is_isr_context(void) {
 379:./lib/chibios/os/common/ports/ARMCMx/chcore_v6m.h **** 
 380:./lib/chibios/os/common/ports/ARMCMx/chcore_v6m.h ****   return (bool)((__get_IPSR() & 0x1FFU) != 0U);
 381:./lib/chibios/os/common/ports/ARMCMx/chcore_v6m.h **** }
 382:./lib/chibios/os/common/ports/ARMCMx/chcore_v6m.h **** 
 383:./lib/chibios/os/common/ports/ARMCMx/chcore_v6m.h **** /**
 384:./lib/chibios/os/common/ports/ARMCMx/chcore_v6m.h ****  * @brief   Kernel-lock action.
 385:./lib/chibios/os/common/ports/ARMCMx/chcore_v6m.h ****  * @details In this port this function disables interrupts globally.
 386:./lib/chibios/os/common/ports/ARMCMx/chcore_v6m.h ****  */
 387:./lib/chibios/os/common/ports/ARMCMx/chcore_v6m.h **** static inline void port_lock(void) {
 230              		.loc 4 387 20 view .LVU76
 231              	.LBE223:
 232              	.LBE230:
 388:./lib/chibios/os/common/ports/ARMCMx/chcore_v6m.h **** 
 389:./lib/chibios/os/common/ports/ARMCMx/chcore_v6m.h ****   __disable_irq();
 233              		.loc 4 389 3 view .LVU77
 234              	.LBB231:
 235              	.LBB228:
 236              	.LBB224:
 237              	.LBI224:
 238              		.file 5 "./lib/chibios/os/common/ext/ARM/CMSIS/Core/Include/cmsis_gcc.h"
   1:./lib/chibios/os/common/ext/ARM/CMSIS/Core/Include/cmsis_gcc.h **** /**************************************************************************//**
   2:./lib/chibios/os/common/ext/ARM/CMSIS/Core/Include/cmsis_gcc.h ****  * @file     cmsis_gcc.h
   3:./lib/chibios/os/common/ext/ARM/CMSIS/Core/Include/cmsis_gcc.h ****  * @brief    CMSIS compiler GCC header file
   4:./lib/chibios/os/common/ext/ARM/CMSIS/Core/Include/cmsis_gcc.h ****  * @version  V5.0.4
   5:./lib/chibios/os/common/ext/ARM/CMSIS/Core/Include/cmsis_gcc.h ****  * @date     09. April 2018
   6:./lib/chibios/os/common/ext/ARM/CMSIS/Core/Include/cmsis_gcc.h ****  ******************************************************************************/
   7:./lib/chibios/os/common/ext/ARM/CMSIS/Core/Include/cmsis_gcc.h **** /*
   8:./lib/chibios/os/common/ext/ARM/CMSIS/Core/Include/cmsis_gcc.h ****  * Copyright (c) 2009-2018 Arm Limited. All rights reserved.
   9:./lib/chibios/os/common/ext/ARM/CMSIS/Core/Include/cmsis_gcc.h ****  *
  10:./lib/chibios/os/common/ext/ARM/CMSIS/Core/Include/cmsis_gcc.h ****  * SPDX-License-Identifier: Apache-2.0
  11:./lib/chibios/os/common/ext/ARM/CMSIS/Core/Include/cmsis_gcc.h ****  *
  12:./lib/chibios/os/common/ext/ARM/CMSIS/Core/Include/cmsis_gcc.h ****  * Licensed under the Apache License, Version 2.0 (the License); you may
  13:./lib/chibios/os/common/ext/ARM/CMSIS/Core/Include/cmsis_gcc.h ****  * not use this file except in compliance with the License.
  14:./lib/chibios/os/common/ext/ARM/CMSIS/Core/Include/cmsis_gcc.h ****  * You may obtain a copy of the License at
  15:./lib/chibios/os/common/ext/ARM/CMSIS/Core/Include/cmsis_gcc.h ****  *
  16:./lib/chibios/os/common/ext/ARM/CMSIS/Core/Include/cmsis_gcc.h ****  * www.apache.org/licenses/LICENSE-2.0
  17:./lib/chibios/os/common/ext/ARM/CMSIS/Core/Include/cmsis_gcc.h ****  *
  18:./lib/chibios/os/common/ext/ARM/CMSIS/Core/Include/cmsis_gcc.h ****  * Unless required by applicable law or agreed to in writing, software
  19:./lib/chibios/os/common/ext/ARM/CMSIS/Core/Include/cmsis_gcc.h ****  * distributed under the License is distributed on an AS IS BASIS, WITHOUT
  20:./lib/chibios/os/common/ext/ARM/CMSIS/Core/Include/cmsis_gcc.h ****  * WARRANTIES OR CONDITIONS OF ANY KIND, either express or implied.
  21:./lib/chibios/os/common/ext/ARM/CMSIS/Core/Include/cmsis_gcc.h ****  * See the License for the specific language governing permissions and
  22:./lib/chibios/os/common/ext/ARM/CMSIS/Core/Include/cmsis_gcc.h ****  * limitations under the License.
  23:./lib/chibios/os/common/ext/ARM/CMSIS/Core/Include/cmsis_gcc.h ****  */
  24:./lib/chibios/os/common/ext/ARM/CMSIS/Core/Include/cmsis_gcc.h **** 
  25:./lib/chibios/os/common/ext/ARM/CMSIS/Core/Include/cmsis_gcc.h **** #ifndef __CMSIS_GCC_H
  26:./lib/chibios/os/common/ext/ARM/CMSIS/Core/Include/cmsis_gcc.h **** #define __CMSIS_GCC_H
  27:./lib/chibios/os/common/ext/ARM/CMSIS/Core/Include/cmsis_gcc.h **** 
  28:./lib/chibios/os/common/ext/ARM/CMSIS/Core/Include/cmsis_gcc.h **** /* ignore some GCC warnings */
  29:./lib/chibios/os/common/ext/ARM/CMSIS/Core/Include/cmsis_gcc.h **** #pragma GCC diagnostic push
  30:./lib/chibios/os/common/ext/ARM/CMSIS/Core/Include/cmsis_gcc.h **** #pragma GCC diagnostic ignored "-Wsign-conversion"
  31:./lib/chibios/os/common/ext/ARM/CMSIS/Core/Include/cmsis_gcc.h **** #pragma GCC diagnostic ignored "-Wconversion"
  32:./lib/chibios/os/common/ext/ARM/CMSIS/Core/Include/cmsis_gcc.h **** #pragma GCC diagnostic ignored "-Wunused-parameter"
  33:./lib/chibios/os/common/ext/ARM/CMSIS/Core/Include/cmsis_gcc.h **** 
  34:./lib/chibios/os/common/ext/ARM/CMSIS/Core/Include/cmsis_gcc.h **** /* Fallback for __has_builtin */
  35:./lib/chibios/os/common/ext/ARM/CMSIS/Core/Include/cmsis_gcc.h **** #ifndef __has_builtin
  36:./lib/chibios/os/common/ext/ARM/CMSIS/Core/Include/cmsis_gcc.h ****   #define __has_builtin(x) (0)
  37:./lib/chibios/os/common/ext/ARM/CMSIS/Core/Include/cmsis_gcc.h **** #endif
  38:./lib/chibios/os/common/ext/ARM/CMSIS/Core/Include/cmsis_gcc.h **** 
  39:./lib/chibios/os/common/ext/ARM/CMSIS/Core/Include/cmsis_gcc.h **** /* CMSIS compiler specific defines */
  40:./lib/chibios/os/common/ext/ARM/CMSIS/Core/Include/cmsis_gcc.h **** #ifndef   __ASM
  41:./lib/chibios/os/common/ext/ARM/CMSIS/Core/Include/cmsis_gcc.h ****   #define __ASM                                  __asm
  42:./lib/chibios/os/common/ext/ARM/CMSIS/Core/Include/cmsis_gcc.h **** #endif
  43:./lib/chibios/os/common/ext/ARM/CMSIS/Core/Include/cmsis_gcc.h **** #ifndef   __INLINE
  44:./lib/chibios/os/common/ext/ARM/CMSIS/Core/Include/cmsis_gcc.h ****   #define __INLINE                               inline
  45:./lib/chibios/os/common/ext/ARM/CMSIS/Core/Include/cmsis_gcc.h **** #endif
  46:./lib/chibios/os/common/ext/ARM/CMSIS/Core/Include/cmsis_gcc.h **** #ifndef   __STATIC_INLINE
  47:./lib/chibios/os/common/ext/ARM/CMSIS/Core/Include/cmsis_gcc.h ****   #define __STATIC_INLINE                        static inline
  48:./lib/chibios/os/common/ext/ARM/CMSIS/Core/Include/cmsis_gcc.h **** #endif
  49:./lib/chibios/os/common/ext/ARM/CMSIS/Core/Include/cmsis_gcc.h **** #ifndef   __STATIC_FORCEINLINE                 
  50:./lib/chibios/os/common/ext/ARM/CMSIS/Core/Include/cmsis_gcc.h ****   #define __STATIC_FORCEINLINE                   __attribute__((always_inline)) static inline
  51:./lib/chibios/os/common/ext/ARM/CMSIS/Core/Include/cmsis_gcc.h **** #endif                                           
  52:./lib/chibios/os/common/ext/ARM/CMSIS/Core/Include/cmsis_gcc.h **** #ifndef   __NO_RETURN
  53:./lib/chibios/os/common/ext/ARM/CMSIS/Core/Include/cmsis_gcc.h ****   #define __NO_RETURN                            __attribute__((__noreturn__))
  54:./lib/chibios/os/common/ext/ARM/CMSIS/Core/Include/cmsis_gcc.h **** #endif
  55:./lib/chibios/os/common/ext/ARM/CMSIS/Core/Include/cmsis_gcc.h **** #ifndef   __USED
  56:./lib/chibios/os/common/ext/ARM/CMSIS/Core/Include/cmsis_gcc.h ****   #define __USED                                 __attribute__((used))
  57:./lib/chibios/os/common/ext/ARM/CMSIS/Core/Include/cmsis_gcc.h **** #endif
  58:./lib/chibios/os/common/ext/ARM/CMSIS/Core/Include/cmsis_gcc.h **** #ifndef   __WEAK
  59:./lib/chibios/os/common/ext/ARM/CMSIS/Core/Include/cmsis_gcc.h ****   #define __WEAK                                 __attribute__((weak))
  60:./lib/chibios/os/common/ext/ARM/CMSIS/Core/Include/cmsis_gcc.h **** #endif
  61:./lib/chibios/os/common/ext/ARM/CMSIS/Core/Include/cmsis_gcc.h **** #ifndef   __PACKED
  62:./lib/chibios/os/common/ext/ARM/CMSIS/Core/Include/cmsis_gcc.h ****   #define __PACKED                               __attribute__((packed, aligned(1)))
  63:./lib/chibios/os/common/ext/ARM/CMSIS/Core/Include/cmsis_gcc.h **** #endif
  64:./lib/chibios/os/common/ext/ARM/CMSIS/Core/Include/cmsis_gcc.h **** #ifndef   __PACKED_STRUCT
  65:./lib/chibios/os/common/ext/ARM/CMSIS/Core/Include/cmsis_gcc.h ****   #define __PACKED_STRUCT                        struct __attribute__((packed, aligned(1)))
  66:./lib/chibios/os/common/ext/ARM/CMSIS/Core/Include/cmsis_gcc.h **** #endif
  67:./lib/chibios/os/common/ext/ARM/CMSIS/Core/Include/cmsis_gcc.h **** #ifndef   __PACKED_UNION
  68:./lib/chibios/os/common/ext/ARM/CMSIS/Core/Include/cmsis_gcc.h ****   #define __PACKED_UNION                         union __attribute__((packed, aligned(1)))
  69:./lib/chibios/os/common/ext/ARM/CMSIS/Core/Include/cmsis_gcc.h **** #endif
  70:./lib/chibios/os/common/ext/ARM/CMSIS/Core/Include/cmsis_gcc.h **** #ifndef   __UNALIGNED_UINT32        /* deprecated */
  71:./lib/chibios/os/common/ext/ARM/CMSIS/Core/Include/cmsis_gcc.h ****   #pragma GCC diagnostic push
  72:./lib/chibios/os/common/ext/ARM/CMSIS/Core/Include/cmsis_gcc.h ****   #pragma GCC diagnostic ignored "-Wpacked"
  73:./lib/chibios/os/common/ext/ARM/CMSIS/Core/Include/cmsis_gcc.h ****   #pragma GCC diagnostic ignored "-Wattributes"
  74:./lib/chibios/os/common/ext/ARM/CMSIS/Core/Include/cmsis_gcc.h ****   struct __attribute__((packed)) T_UINT32 { uint32_t v; };
  75:./lib/chibios/os/common/ext/ARM/CMSIS/Core/Include/cmsis_gcc.h ****   #pragma GCC diagnostic pop
  76:./lib/chibios/os/common/ext/ARM/CMSIS/Core/Include/cmsis_gcc.h ****   #define __UNALIGNED_UINT32(x)                  (((struct T_UINT32 *)(x))->v)
  77:./lib/chibios/os/common/ext/ARM/CMSIS/Core/Include/cmsis_gcc.h **** #endif
  78:./lib/chibios/os/common/ext/ARM/CMSIS/Core/Include/cmsis_gcc.h **** #ifndef   __UNALIGNED_UINT16_WRITE
  79:./lib/chibios/os/common/ext/ARM/CMSIS/Core/Include/cmsis_gcc.h ****   #pragma GCC diagnostic push
  80:./lib/chibios/os/common/ext/ARM/CMSIS/Core/Include/cmsis_gcc.h ****   #pragma GCC diagnostic ignored "-Wpacked"
  81:./lib/chibios/os/common/ext/ARM/CMSIS/Core/Include/cmsis_gcc.h ****   #pragma GCC diagnostic ignored "-Wattributes"
  82:./lib/chibios/os/common/ext/ARM/CMSIS/Core/Include/cmsis_gcc.h ****   __PACKED_STRUCT T_UINT16_WRITE { uint16_t v; };
  83:./lib/chibios/os/common/ext/ARM/CMSIS/Core/Include/cmsis_gcc.h ****   #pragma GCC diagnostic pop
  84:./lib/chibios/os/common/ext/ARM/CMSIS/Core/Include/cmsis_gcc.h ****   #define __UNALIGNED_UINT16_WRITE(addr, val)    (void)((((struct T_UINT16_WRITE *)(void *)(addr))-
  85:./lib/chibios/os/common/ext/ARM/CMSIS/Core/Include/cmsis_gcc.h **** #endif
  86:./lib/chibios/os/common/ext/ARM/CMSIS/Core/Include/cmsis_gcc.h **** #ifndef   __UNALIGNED_UINT16_READ
  87:./lib/chibios/os/common/ext/ARM/CMSIS/Core/Include/cmsis_gcc.h ****   #pragma GCC diagnostic push
  88:./lib/chibios/os/common/ext/ARM/CMSIS/Core/Include/cmsis_gcc.h ****   #pragma GCC diagnostic ignored "-Wpacked"
  89:./lib/chibios/os/common/ext/ARM/CMSIS/Core/Include/cmsis_gcc.h ****   #pragma GCC diagnostic ignored "-Wattributes"
  90:./lib/chibios/os/common/ext/ARM/CMSIS/Core/Include/cmsis_gcc.h ****   __PACKED_STRUCT T_UINT16_READ { uint16_t v; };
  91:./lib/chibios/os/common/ext/ARM/CMSIS/Core/Include/cmsis_gcc.h ****   #pragma GCC diagnostic pop
  92:./lib/chibios/os/common/ext/ARM/CMSIS/Core/Include/cmsis_gcc.h ****   #define __UNALIGNED_UINT16_READ(addr)          (((const struct T_UINT16_READ *)(const void *)(add
  93:./lib/chibios/os/common/ext/ARM/CMSIS/Core/Include/cmsis_gcc.h **** #endif
  94:./lib/chibios/os/common/ext/ARM/CMSIS/Core/Include/cmsis_gcc.h **** #ifndef   __UNALIGNED_UINT32_WRITE
  95:./lib/chibios/os/common/ext/ARM/CMSIS/Core/Include/cmsis_gcc.h ****   #pragma GCC diagnostic push
  96:./lib/chibios/os/common/ext/ARM/CMSIS/Core/Include/cmsis_gcc.h ****   #pragma GCC diagnostic ignored "-Wpacked"
  97:./lib/chibios/os/common/ext/ARM/CMSIS/Core/Include/cmsis_gcc.h ****   #pragma GCC diagnostic ignored "-Wattributes"
  98:./lib/chibios/os/common/ext/ARM/CMSIS/Core/Include/cmsis_gcc.h ****   __PACKED_STRUCT T_UINT32_WRITE { uint32_t v; };
  99:./lib/chibios/os/common/ext/ARM/CMSIS/Core/Include/cmsis_gcc.h ****   #pragma GCC diagnostic pop
 100:./lib/chibios/os/common/ext/ARM/CMSIS/Core/Include/cmsis_gcc.h ****   #define __UNALIGNED_UINT32_WRITE(addr, val)    (void)((((struct T_UINT32_WRITE *)(void *)(addr))-
 101:./lib/chibios/os/common/ext/ARM/CMSIS/Core/Include/cmsis_gcc.h **** #endif
 102:./lib/chibios/os/common/ext/ARM/CMSIS/Core/Include/cmsis_gcc.h **** #ifndef   __UNALIGNED_UINT32_READ
 103:./lib/chibios/os/common/ext/ARM/CMSIS/Core/Include/cmsis_gcc.h ****   #pragma GCC diagnostic push
 104:./lib/chibios/os/common/ext/ARM/CMSIS/Core/Include/cmsis_gcc.h ****   #pragma GCC diagnostic ignored "-Wpacked"
 105:./lib/chibios/os/common/ext/ARM/CMSIS/Core/Include/cmsis_gcc.h ****   #pragma GCC diagnostic ignored "-Wattributes"
 106:./lib/chibios/os/common/ext/ARM/CMSIS/Core/Include/cmsis_gcc.h ****   __PACKED_STRUCT T_UINT32_READ { uint32_t v; };
 107:./lib/chibios/os/common/ext/ARM/CMSIS/Core/Include/cmsis_gcc.h ****   #pragma GCC diagnostic pop
 108:./lib/chibios/os/common/ext/ARM/CMSIS/Core/Include/cmsis_gcc.h ****   #define __UNALIGNED_UINT32_READ(addr)          (((const struct T_UINT32_READ *)(const void *)(add
 109:./lib/chibios/os/common/ext/ARM/CMSIS/Core/Include/cmsis_gcc.h **** #endif
 110:./lib/chibios/os/common/ext/ARM/CMSIS/Core/Include/cmsis_gcc.h **** #ifndef   __ALIGNED
 111:./lib/chibios/os/common/ext/ARM/CMSIS/Core/Include/cmsis_gcc.h ****   #define __ALIGNED(x)                           __attribute__((aligned(x)))
 112:./lib/chibios/os/common/ext/ARM/CMSIS/Core/Include/cmsis_gcc.h **** #endif
 113:./lib/chibios/os/common/ext/ARM/CMSIS/Core/Include/cmsis_gcc.h **** #ifndef   __RESTRICT
 114:./lib/chibios/os/common/ext/ARM/CMSIS/Core/Include/cmsis_gcc.h ****   #define __RESTRICT                             __restrict
 115:./lib/chibios/os/common/ext/ARM/CMSIS/Core/Include/cmsis_gcc.h **** #endif
 116:./lib/chibios/os/common/ext/ARM/CMSIS/Core/Include/cmsis_gcc.h **** 
 117:./lib/chibios/os/common/ext/ARM/CMSIS/Core/Include/cmsis_gcc.h **** 
 118:./lib/chibios/os/common/ext/ARM/CMSIS/Core/Include/cmsis_gcc.h **** /* ###########################  Core Function Access  ########################### */
 119:./lib/chibios/os/common/ext/ARM/CMSIS/Core/Include/cmsis_gcc.h **** /** \ingroup  CMSIS_Core_FunctionInterface
 120:./lib/chibios/os/common/ext/ARM/CMSIS/Core/Include/cmsis_gcc.h ****     \defgroup CMSIS_Core_RegAccFunctions CMSIS Core Register Access Functions
 121:./lib/chibios/os/common/ext/ARM/CMSIS/Core/Include/cmsis_gcc.h ****   @{
 122:./lib/chibios/os/common/ext/ARM/CMSIS/Core/Include/cmsis_gcc.h ****  */
 123:./lib/chibios/os/common/ext/ARM/CMSIS/Core/Include/cmsis_gcc.h **** 
 124:./lib/chibios/os/common/ext/ARM/CMSIS/Core/Include/cmsis_gcc.h **** /**
 125:./lib/chibios/os/common/ext/ARM/CMSIS/Core/Include/cmsis_gcc.h ****   \brief   Enable IRQ Interrupts
 126:./lib/chibios/os/common/ext/ARM/CMSIS/Core/Include/cmsis_gcc.h ****   \details Enables IRQ interrupts by clearing the I-bit in the CPSR.
 127:./lib/chibios/os/common/ext/ARM/CMSIS/Core/Include/cmsis_gcc.h ****            Can only be executed in Privileged modes.
 128:./lib/chibios/os/common/ext/ARM/CMSIS/Core/Include/cmsis_gcc.h ****  */
 129:./lib/chibios/os/common/ext/ARM/CMSIS/Core/Include/cmsis_gcc.h **** __STATIC_FORCEINLINE void __enable_irq(void)
 130:./lib/chibios/os/common/ext/ARM/CMSIS/Core/Include/cmsis_gcc.h **** {
 131:./lib/chibios/os/common/ext/ARM/CMSIS/Core/Include/cmsis_gcc.h ****   __ASM volatile ("cpsie i" : : : "memory");
 132:./lib/chibios/os/common/ext/ARM/CMSIS/Core/Include/cmsis_gcc.h **** }
 133:./lib/chibios/os/common/ext/ARM/CMSIS/Core/Include/cmsis_gcc.h **** 
 134:./lib/chibios/os/common/ext/ARM/CMSIS/Core/Include/cmsis_gcc.h **** 
 135:./lib/chibios/os/common/ext/ARM/CMSIS/Core/Include/cmsis_gcc.h **** /**
 136:./lib/chibios/os/common/ext/ARM/CMSIS/Core/Include/cmsis_gcc.h ****   \brief   Disable IRQ Interrupts
 137:./lib/chibios/os/common/ext/ARM/CMSIS/Core/Include/cmsis_gcc.h ****   \details Disables IRQ interrupts by setting the I-bit in the CPSR.
 138:./lib/chibios/os/common/ext/ARM/CMSIS/Core/Include/cmsis_gcc.h ****            Can only be executed in Privileged modes.
 139:./lib/chibios/os/common/ext/ARM/CMSIS/Core/Include/cmsis_gcc.h ****  */
 140:./lib/chibios/os/common/ext/ARM/CMSIS/Core/Include/cmsis_gcc.h **** __STATIC_FORCEINLINE void __disable_irq(void)
 239              		.loc 5 140 27 view .LVU78
 240              	.LBB225:
 141:./lib/chibios/os/common/ext/ARM/CMSIS/Core/Include/cmsis_gcc.h **** {
 142:./lib/chibios/os/common/ext/ARM/CMSIS/Core/Include/cmsis_gcc.h ****   __ASM volatile ("cpsid i" : : : "memory");
 241              		.loc 5 142 3 view .LVU79
 242              	.LBE225:
 243              	.LBE224:
 244              	.LBE228:
 245              	.LBE231:
 216:lib/chibios/os/rt/src/chthreads.c ****   thread_t *tp;
 246              		.loc 1 216 64 is_stmt 0 view .LVU80
 247 0000 10B5     		push	{r4, lr}
 248              		.cfi_def_cfa_offset 8
 249              		.cfi_offset 4, -8
 250              		.cfi_offset 14, -4
 251              	.LBB232:
 252              	.LBB229:
 253              	.LBB227:
 254              	.LBB226:
 255              		.loc 5 142 3 view .LVU81
 256              		.syntax divided
 257              	@ 142 "./lib/chibios/os/common/ext/ARM/CMSIS/Core/Include/cmsis_gcc.h" 1
 258 0002 72B6     		cpsid i
 259              	@ 0 "" 2
 260              		.thumb
 261              		.syntax unified
 262              	.LBE226:
 263              	.LBE227:
 264              	.LBE229:
 265              	.LBE232:
 356:./lib/chibios/os/rt/include/chsys.h ****   _stats_start_measure_crit_thd();
 266              		.loc 3 356 34 is_stmt 1 view .LVU82
 357:./lib/chibios/os/rt/include/chsys.h ****   _dbg_check_lock();
 267              		.loc 3 357 20 view .LVU83
 231:lib/chibios/os/rt/src/chthreads.c ****   tp = chThdCreateSuspendedI(tdp);
 268              		.loc 1 231 3 view .LVU84
 269              		.loc 1 231 8 is_stmt 0 view .LVU85
 270 0004 FFF7FEFF 		bl	chThdCreateSuspendedI
 271              	.LVL15:
 232:lib/chibios/os/rt/src/chthreads.c ****   chSysUnlock();
 272              		.loc 1 232 3 is_stmt 1 view .LVU86
 273              	.LBB233:
 274              	.LBI233:
 358:./lib/chibios/os/rt/include/chsys.h **** }
 359:./lib/chibios/os/rt/include/chsys.h **** 
 360:./lib/chibios/os/rt/include/chsys.h **** /**
 361:./lib/chibios/os/rt/include/chsys.h ****  * @brief   Leaves the kernel lock state.
 362:./lib/chibios/os/rt/include/chsys.h ****  *
 363:./lib/chibios/os/rt/include/chsys.h ****  * @special
 364:./lib/chibios/os/rt/include/chsys.h ****  */
 365:./lib/chibios/os/rt/include/chsys.h **** static inline void chSysUnlock(void) {
 275              		.loc 3 365 20 view .LVU87
 276              	.LBB234:
 366:./lib/chibios/os/rt/include/chsys.h **** 
 367:./lib/chibios/os/rt/include/chsys.h ****   _dbg_check_unlock();
 277              		.loc 3 367 22 view .LVU88
 368:./lib/chibios/os/rt/include/chsys.h ****   _stats_stop_measure_crit_thd();
 278              		.loc 3 368 33 view .LVU89
 369:./lib/chibios/os/rt/include/chsys.h **** 
 370:./lib/chibios/os/rt/include/chsys.h ****   /* The following condition can be triggered by the use of i-class functions
 371:./lib/chibios/os/rt/include/chsys.h ****      in a critical section not followed by a chSchResceduleS(), this means
 372:./lib/chibios/os/rt/include/chsys.h ****      that the current thread has a lower priority than the next thread in
 373:./lib/chibios/os/rt/include/chsys.h ****      the ready list.*/
 374:./lib/chibios/os/rt/include/chsys.h ****   chDbgAssert((ch.rlist.queue.next == (thread_t *)&ch.rlist.queue) ||
 279              		.loc 3 374 3 view .LVU90
 280              		.loc 3 374 3 view .LVU91
 375:./lib/chibios/os/rt/include/chsys.h ****               (ch.rlist.current->prio >= ch.rlist.queue.next->prio),
 376:./lib/chibios/os/rt/include/chsys.h ****               "priority order violation");
 377:./lib/chibios/os/rt/include/chsys.h **** 
 378:./lib/chibios/os/rt/include/chsys.h ****   port_unlock();
 281              		.loc 3 378 3 view .LVU92
 282              	.LBB235:
 283              	.LBI235:
 390:./lib/chibios/os/common/ports/ARMCMx/chcore_v6m.h **** }
 391:./lib/chibios/os/common/ports/ARMCMx/chcore_v6m.h **** 
 392:./lib/chibios/os/common/ports/ARMCMx/chcore_v6m.h **** /**
 393:./lib/chibios/os/common/ports/ARMCMx/chcore_v6m.h ****  * @brief   Kernel-unlock action.
 394:./lib/chibios/os/common/ports/ARMCMx/chcore_v6m.h ****  * @details In this port this function enables interrupts globally.
 395:./lib/chibios/os/common/ports/ARMCMx/chcore_v6m.h ****  */
 396:./lib/chibios/os/common/ports/ARMCMx/chcore_v6m.h **** static inline void port_unlock(void) {
 284              		.loc 4 396 20 view .LVU93
 285              	.LBE235:
 286              	.LBE234:
 287              	.LBE233:
 397:./lib/chibios/os/common/ports/ARMCMx/chcore_v6m.h **** 
 398:./lib/chibios/os/common/ports/ARMCMx/chcore_v6m.h ****   __enable_irq();
 288              		.loc 4 398 3 view .LVU94
 289              	.LBB240:
 290              	.LBB239:
 291              	.LBB238:
 292              	.LBB236:
 293              	.LBI236:
 129:./lib/chibios/os/common/ext/ARM/CMSIS/Core/Include/cmsis_gcc.h **** {
 294              		.loc 5 129 27 view .LVU95
 295              	.LBB237:
 131:./lib/chibios/os/common/ext/ARM/CMSIS/Core/Include/cmsis_gcc.h **** }
 296              		.loc 5 131 3 view .LVU96
 297              		.syntax divided
 298              	@ 131 "./lib/chibios/os/common/ext/ARM/CMSIS/Core/Include/cmsis_gcc.h" 1
 299 0008 62B6     		cpsie i
 300              	@ 0 "" 2
 301              		.thumb
 302              		.syntax unified
 303              	.LBE237:
 304              	.LBE236:
 305              	.LBE238:
 306              	.LBE239:
 307              	.LBE240:
 233:lib/chibios/os/rt/src/chthreads.c **** 
 234:lib/chibios/os/rt/src/chthreads.c ****   return tp;
 308              		.loc 1 234 3 view .LVU97
 235:lib/chibios/os/rt/src/chthreads.c **** }
 309              		.loc 1 235 1 is_stmt 0 view .LVU98
 310              		@ sp needed
 311 000a 10BD     		pop	{r4, pc}
 312              		.cfi_endproc
 313              	.LFE156:
 315              		.section	.text.chThdCreateI,"ax",%progbits
 316              		.align	1
 317              		.global	chThdCreateI
 318              		.syntax unified
 319              		.code	16
 320              		.thumb_func
 321              		.fpu softvfp
 323              	chThdCreateI:
 324              	.LVL16:
 325              	.LFB157:
 236:lib/chibios/os/rt/src/chthreads.c **** 
 237:lib/chibios/os/rt/src/chthreads.c **** /**
 238:lib/chibios/os/rt/src/chthreads.c ****  * @brief   Creates a new thread into a static memory area.
 239:lib/chibios/os/rt/src/chthreads.c ****  * @details The new thread is initialized and make ready to execute.
 240:lib/chibios/os/rt/src/chthreads.c ****  * @post    The created thread has a reference counter set to one, it is
 241:lib/chibios/os/rt/src/chthreads.c ****  *          caller responsibility to call @p chThdRelease() or @p chthdWait()
 242:lib/chibios/os/rt/src/chthreads.c ****  *          in order to release the reference. The thread persists in the
 243:lib/chibios/os/rt/src/chthreads.c ****  *          registry until its reference counter reaches zero.
 244:lib/chibios/os/rt/src/chthreads.c ****  * @post    The initialized thread can be subsequently started by invoking
 245:lib/chibios/os/rt/src/chthreads.c ****  *          @p chThdStart(), @p chThdStartI() or @p chSchWakeupS()
 246:lib/chibios/os/rt/src/chthreads.c ****  *          depending on the execution context.
 247:lib/chibios/os/rt/src/chthreads.c ****  * @note    A thread can terminate by calling @p chThdExit() or by simply
 248:lib/chibios/os/rt/src/chthreads.c ****  *          returning from its main function.
 249:lib/chibios/os/rt/src/chthreads.c ****  * @note    Threads created using this function do not obey to the
 250:lib/chibios/os/rt/src/chthreads.c ****  *          @p CH_DBG_FILL_THREADS debug option because it would keep
 251:lib/chibios/os/rt/src/chthreads.c ****  *          the kernel locked for too much time.
 252:lib/chibios/os/rt/src/chthreads.c ****  *
 253:lib/chibios/os/rt/src/chthreads.c ****  * @param[out] tdp      pointer to the thread descriptor
 254:lib/chibios/os/rt/src/chthreads.c ****  * @return              The pointer to the @p thread_t structure allocated for
 255:lib/chibios/os/rt/src/chthreads.c ****  *                      the thread into the working space area.
 256:lib/chibios/os/rt/src/chthreads.c ****  *
 257:lib/chibios/os/rt/src/chthreads.c ****  * @iclass
 258:lib/chibios/os/rt/src/chthreads.c ****  */
 259:lib/chibios/os/rt/src/chthreads.c **** thread_t *chThdCreateI(const thread_descriptor_t *tdp) {
 326              		.loc 1 259 56 is_stmt 1 view -0
 327              		.cfi_startproc
 328              		@ args = 0, pretend = 0, frame = 0
 329              		@ frame_needed = 0, uses_anonymous_args = 0
 260:lib/chibios/os/rt/src/chthreads.c **** 
 261:lib/chibios/os/rt/src/chthreads.c ****   return chSchReadyI(chThdCreateSuspendedI(tdp));
 330              		.loc 1 261 3 view .LVU100
 259:lib/chibios/os/rt/src/chthreads.c **** 
 331              		.loc 1 259 56 is_stmt 0 view .LVU101
 332 0000 10B5     		push	{r4, lr}
 333              		.cfi_def_cfa_offset 8
 334              		.cfi_offset 4, -8
 335              		.cfi_offset 14, -4
 336              		.loc 1 261 10 view .LVU102
 337 0002 FFF7FEFF 		bl	chThdCreateSuspendedI
 338              	.LVL17:
 339              		.loc 1 261 10 view .LVU103
 340 0006 FFF7FEFF 		bl	chSchReadyI
 341              	.LVL18:
 262:lib/chibios/os/rt/src/chthreads.c **** }
 342              		.loc 1 262 1 view .LVU104
 343              		@ sp needed
 344 000a 10BD     		pop	{r4, pc}
 345              		.cfi_endproc
 346              	.LFE157:
 348              		.section	.text.chThdCreate,"ax",%progbits
 349              		.align	1
 350              		.global	chThdCreate
 351              		.syntax unified
 352              		.code	16
 353              		.thumb_func
 354              		.fpu softvfp
 356              	chThdCreate:
 357              	.LVL19:
 358              	.LFB158:
 263:lib/chibios/os/rt/src/chthreads.c **** 
 264:lib/chibios/os/rt/src/chthreads.c **** /**
 265:lib/chibios/os/rt/src/chthreads.c ****  * @brief   Creates a new thread into a static memory area.
 266:lib/chibios/os/rt/src/chthreads.c ****  * @details The new thread is initialized and make ready to execute.
 267:lib/chibios/os/rt/src/chthreads.c ****  * @post    The created thread has a reference counter set to one, it is
 268:lib/chibios/os/rt/src/chthreads.c ****  *          caller responsibility to call @p chThdRelease() or @p chthdWait()
 269:lib/chibios/os/rt/src/chthreads.c ****  *          in order to release the reference. The thread persists in the
 270:lib/chibios/os/rt/src/chthreads.c ****  *          registry until its reference counter reaches zero.
 271:lib/chibios/os/rt/src/chthreads.c ****  * @note    A thread can terminate by calling @p chThdExit() or by simply
 272:lib/chibios/os/rt/src/chthreads.c ****  *          returning from its main function.
 273:lib/chibios/os/rt/src/chthreads.c ****  *
 274:lib/chibios/os/rt/src/chthreads.c ****  * @param[out] tdp      pointer to the thread descriptor
 275:lib/chibios/os/rt/src/chthreads.c ****  * @return              The pointer to the @p thread_t structure allocated for
 276:lib/chibios/os/rt/src/chthreads.c ****  *                      the thread into the working space area.
 277:lib/chibios/os/rt/src/chthreads.c ****  *
 278:lib/chibios/os/rt/src/chthreads.c ****  * @iclass
 279:lib/chibios/os/rt/src/chthreads.c ****  */
 280:lib/chibios/os/rt/src/chthreads.c **** thread_t *chThdCreate(const thread_descriptor_t *tdp) {
 359              		.loc 1 280 55 is_stmt 1 view -0
 360              		.cfi_startproc
 361              		@ args = 0, pretend = 0, frame = 0
 362              		@ frame_needed = 0, uses_anonymous_args = 0
 281:lib/chibios/os/rt/src/chthreads.c ****   thread_t *tp;
 363              		.loc 1 281 3 view .LVU106
 282:lib/chibios/os/rt/src/chthreads.c **** 
 283:lib/chibios/os/rt/src/chthreads.c **** #if (CH_CFG_USE_REGISTRY == TRUE) &&                                        \
 284:lib/chibios/os/rt/src/chthreads.c ****     ((CH_DBG_ENABLE_STACK_CHECK == TRUE) || (CH_CFG_USE_DYNAMIC == TRUE))
 285:lib/chibios/os/rt/src/chthreads.c ****   chDbgAssert(chRegFindThreadByWorkingArea(tdp->wbase) == NULL,
 286:lib/chibios/os/rt/src/chthreads.c ****               "working area in use");
 287:lib/chibios/os/rt/src/chthreads.c **** #endif
 288:lib/chibios/os/rt/src/chthreads.c **** 
 289:lib/chibios/os/rt/src/chthreads.c **** #if CH_DBG_FILL_THREADS == TRUE
 290:lib/chibios/os/rt/src/chthreads.c ****   _thread_memfill((uint8_t *)tdp->wbase,
 291:lib/chibios/os/rt/src/chthreads.c ****                   (uint8_t *)tdp->wend,
 292:lib/chibios/os/rt/src/chthreads.c ****                   CH_DBG_STACK_FILL_VALUE);
 293:lib/chibios/os/rt/src/chthreads.c **** #endif
 294:lib/chibios/os/rt/src/chthreads.c **** 
 295:lib/chibios/os/rt/src/chthreads.c ****   chSysLock();
 364              		.loc 1 295 3 view .LVU107
 365              	.LBB241:
 366              	.LBI241:
 353:./lib/chibios/os/rt/include/chsys.h **** 
 367              		.loc 3 353 20 view .LVU108
 368              	.LBE241:
 355:./lib/chibios/os/rt/include/chsys.h ****   _stats_start_measure_crit_thd();
 369              		.loc 3 355 3 view .LVU109
 370              	.LBB249:
 371              	.LBB242:
 372              	.LBI242:
 387:./lib/chibios/os/common/ports/ARMCMx/chcore_v6m.h **** 
 373              		.loc 4 387 20 view .LVU110
 374              	.LBE242:
 375              	.LBE249:
 389:./lib/chibios/os/common/ports/ARMCMx/chcore_v6m.h **** }
 376              		.loc 4 389 3 view .LVU111
 377              	.LBB250:
 378              	.LBB247:
 379              	.LBB243:
 380              	.LBI243:
 140:./lib/chibios/os/common/ext/ARM/CMSIS/Core/Include/cmsis_gcc.h **** {
 381              		.loc 5 140 27 view .LVU112
 382              	.LBB244:
 383              		.loc 5 142 3 view .LVU113
 384              	.LBE244:
 385              	.LBE243:
 386              	.LBE247:
 387              	.LBE250:
 280:lib/chibios/os/rt/src/chthreads.c ****   thread_t *tp;
 388              		.loc 1 280 55 is_stmt 0 view .LVU114
 389 0000 10B5     		push	{r4, lr}
 390              		.cfi_def_cfa_offset 8
 391              		.cfi_offset 4, -8
 392              		.cfi_offset 14, -4
 393              	.LBB251:
 394              	.LBB248:
 395              	.LBB246:
 396              	.LBB245:
 397              		.loc 5 142 3 view .LVU115
 398              		.syntax divided
 399              	@ 142 "./lib/chibios/os/common/ext/ARM/CMSIS/Core/Include/cmsis_gcc.h" 1
 400 0002 72B6     		cpsid i
 401              	@ 0 "" 2
 402              		.thumb
 403              		.syntax unified
 404              	.LBE245:
 405              	.LBE246:
 406              	.LBE248:
 407              	.LBE251:
 356:./lib/chibios/os/rt/include/chsys.h ****   _dbg_check_lock();
 408              		.loc 3 356 34 is_stmt 1 view .LVU116
 357:./lib/chibios/os/rt/include/chsys.h **** }
 409              		.loc 3 357 20 view .LVU117
 296:lib/chibios/os/rt/src/chthreads.c ****   tp = chThdCreateSuspendedI(tdp);
 410              		.loc 1 296 3 view .LVU118
 411              		.loc 1 296 8 is_stmt 0 view .LVU119
 412 0004 FFF7FEFF 		bl	chThdCreateSuspendedI
 413              	.LVL20:
 297:lib/chibios/os/rt/src/chthreads.c ****   chSchWakeupS(tp, MSG_OK);
 414              		.loc 1 297 3 view .LVU120
 415 0008 0021     		movs	r1, #0
 296:lib/chibios/os/rt/src/chthreads.c ****   tp = chThdCreateSuspendedI(tdp);
 416              		.loc 1 296 8 view .LVU121
 417 000a 0400     		movs	r4, r0
 418              	.LVL21:
 419              		.loc 1 297 3 is_stmt 1 view .LVU122
 420 000c FFF7FEFF 		bl	chSchWakeupS
 421              	.LVL22:
 298:lib/chibios/os/rt/src/chthreads.c ****   chSysUnlock();
 422              		.loc 1 298 3 view .LVU123
 423              	.LBB252:
 424              	.LBI252:
 365:./lib/chibios/os/rt/include/chsys.h **** 
 425              		.loc 3 365 20 view .LVU124
 426              	.LBB253:
 367:./lib/chibios/os/rt/include/chsys.h ****   _stats_stop_measure_crit_thd();
 427              		.loc 3 367 22 view .LVU125
 368:./lib/chibios/os/rt/include/chsys.h **** 
 428              		.loc 3 368 33 view .LVU126
 374:./lib/chibios/os/rt/include/chsys.h ****               (ch.rlist.current->prio >= ch.rlist.queue.next->prio),
 429              		.loc 3 374 3 view .LVU127
 374:./lib/chibios/os/rt/include/chsys.h ****               (ch.rlist.current->prio >= ch.rlist.queue.next->prio),
 430              		.loc 3 374 3 view .LVU128
 431              		.loc 3 378 3 view .LVU129
 432              	.LBB254:
 433              	.LBI254:
 396:./lib/chibios/os/common/ports/ARMCMx/chcore_v6m.h **** 
 434              		.loc 4 396 20 view .LVU130
 435              	.LBE254:
 436              	.LBE253:
 437              	.LBE252:
 438              		.loc 4 398 3 view .LVU131
 439              	.LBB259:
 440              	.LBB258:
 441              	.LBB257:
 442              	.LBB255:
 443              	.LBI255:
 129:./lib/chibios/os/common/ext/ARM/CMSIS/Core/Include/cmsis_gcc.h **** {
 444              		.loc 5 129 27 view .LVU132
 445              	.LBB256:
 131:./lib/chibios/os/common/ext/ARM/CMSIS/Core/Include/cmsis_gcc.h **** }
 446              		.loc 5 131 3 view .LVU133
 447              		.syntax divided
 448              	@ 131 "./lib/chibios/os/common/ext/ARM/CMSIS/Core/Include/cmsis_gcc.h" 1
 449 0010 62B6     		cpsie i
 450              	@ 0 "" 2
 451              		.thumb
 452              		.syntax unified
 453              	.LBE256:
 454              	.LBE255:
 455              	.LBE257:
 456              	.LBE258:
 457              	.LBE259:
 299:lib/chibios/os/rt/src/chthreads.c **** 
 300:lib/chibios/os/rt/src/chthreads.c ****   return tp;
 458              		.loc 1 300 3 view .LVU134
 301:lib/chibios/os/rt/src/chthreads.c **** }
 459              		.loc 1 301 1 is_stmt 0 view .LVU135
 460 0012 2000     		movs	r0, r4
 461              		@ sp needed
 462              	.LVL23:
 463              		.loc 1 301 1 view .LVU136
 464 0014 10BD     		pop	{r4, pc}
 465              		.cfi_endproc
 466              	.LFE158:
 468              		.section	.text.chThdCreateStatic,"ax",%progbits
 469              		.align	1
 470              		.global	chThdCreateStatic
 471              		.syntax unified
 472              		.code	16
 473              		.thumb_func
 474              		.fpu softvfp
 476              	chThdCreateStatic:
 477              	.LVL24:
 478              	.LFB159:
 302:lib/chibios/os/rt/src/chthreads.c **** 
 303:lib/chibios/os/rt/src/chthreads.c **** /**
 304:lib/chibios/os/rt/src/chthreads.c ****  * @brief   Creates a new thread into a static memory area.
 305:lib/chibios/os/rt/src/chthreads.c ****  * @post    The created thread has a reference counter set to one, it is
 306:lib/chibios/os/rt/src/chthreads.c ****  *          caller responsibility to call @p chThdRelease() or @p chthdWait()
 307:lib/chibios/os/rt/src/chthreads.c ****  *          in order to release the reference. The thread persists in the
 308:lib/chibios/os/rt/src/chthreads.c ****  *          registry until its reference counter reaches zero.
 309:lib/chibios/os/rt/src/chthreads.c ****  * @note    A thread can terminate by calling @p chThdExit() or by simply
 310:lib/chibios/os/rt/src/chthreads.c ****  *          returning from its main function.
 311:lib/chibios/os/rt/src/chthreads.c ****  *
 312:lib/chibios/os/rt/src/chthreads.c ****  * @param[out] wsp      pointer to a working area dedicated to the thread stack
 313:lib/chibios/os/rt/src/chthreads.c ****  * @param[in] size      size of the working area
 314:lib/chibios/os/rt/src/chthreads.c ****  * @param[in] prio      the priority level for the new thread
 315:lib/chibios/os/rt/src/chthreads.c ****  * @param[in] pf        the thread function
 316:lib/chibios/os/rt/src/chthreads.c ****  * @param[in] arg       an argument passed to the thread function. It can be
 317:lib/chibios/os/rt/src/chthreads.c ****  *                      @p NULL.
 318:lib/chibios/os/rt/src/chthreads.c ****  * @return              The pointer to the @p thread_t structure allocated for
 319:lib/chibios/os/rt/src/chthreads.c ****  *                      the thread into the working space area.
 320:lib/chibios/os/rt/src/chthreads.c ****  *
 321:lib/chibios/os/rt/src/chthreads.c ****  * @api
 322:lib/chibios/os/rt/src/chthreads.c ****  */
 323:lib/chibios/os/rt/src/chthreads.c **** thread_t *chThdCreateStatic(void *wsp, size_t size,
 324:lib/chibios/os/rt/src/chthreads.c ****                             tprio_t prio, tfunc_t pf, void *arg) {
 479              		.loc 1 324 66 is_stmt 1 view -0
 480              		.cfi_startproc
 481              		@ args = 4, pretend = 0, frame = 0
 482              		@ frame_needed = 0, uses_anonymous_args = 0
 325:lib/chibios/os/rt/src/chthreads.c ****   thread_t *tp;
 483              		.loc 1 325 3 view .LVU138
 326:lib/chibios/os/rt/src/chthreads.c **** 
 327:lib/chibios/os/rt/src/chthreads.c ****   chDbgCheck((wsp != NULL) &&
 484              		.loc 1 327 3 view .LVU139
 485              		.loc 1 327 3 view .LVU140
 328:lib/chibios/os/rt/src/chthreads.c ****              MEM_IS_ALIGNED(wsp, PORT_WORKING_AREA_ALIGN) &&
 329:lib/chibios/os/rt/src/chthreads.c ****              (size >= THD_WORKING_AREA_SIZE(0)) &&
 330:lib/chibios/os/rt/src/chthreads.c ****              MEM_IS_ALIGNED(size, PORT_STACK_ALIGN) &&
 331:lib/chibios/os/rt/src/chthreads.c ****              (prio <= HIGHPRIO) && (pf != NULL));
 332:lib/chibios/os/rt/src/chthreads.c **** 
 333:lib/chibios/os/rt/src/chthreads.c **** #if (CH_CFG_USE_REGISTRY == TRUE) &&                                        \
 334:lib/chibios/os/rt/src/chthreads.c ****     ((CH_DBG_ENABLE_STACK_CHECK == TRUE) || (CH_CFG_USE_DYNAMIC == TRUE))
 335:lib/chibios/os/rt/src/chthreads.c ****   chDbgAssert(chRegFindThreadByWorkingArea(wsp) == NULL,
 336:lib/chibios/os/rt/src/chthreads.c ****               "working area in use");
 337:lib/chibios/os/rt/src/chthreads.c **** #endif
 338:lib/chibios/os/rt/src/chthreads.c **** 
 339:lib/chibios/os/rt/src/chthreads.c **** #if CH_DBG_FILL_THREADS == TRUE
 340:lib/chibios/os/rt/src/chthreads.c ****   _thread_memfill((uint8_t *)wsp,
 341:lib/chibios/os/rt/src/chthreads.c ****                   (uint8_t *)wsp + size,
 342:lib/chibios/os/rt/src/chthreads.c ****                   CH_DBG_STACK_FILL_VALUE);
 343:lib/chibios/os/rt/src/chthreads.c **** #endif
 344:lib/chibios/os/rt/src/chthreads.c **** 
 345:lib/chibios/os/rt/src/chthreads.c ****   chSysLock();
 486              		.loc 1 345 3 view .LVU141
 487              	.LBB260:
 488              	.LBI260:
 353:./lib/chibios/os/rt/include/chsys.h **** 
 489              		.loc 3 353 20 view .LVU142
 490              	.LBE260:
 355:./lib/chibios/os/rt/include/chsys.h ****   _stats_start_measure_crit_thd();
 491              		.loc 3 355 3 view .LVU143
 492              	.LBB268:
 493              	.LBB261:
 494              	.LBI261:
 387:./lib/chibios/os/common/ports/ARMCMx/chcore_v6m.h **** 
 495              		.loc 4 387 20 view .LVU144
 496              	.LBE261:
 497              	.LBE268:
 389:./lib/chibios/os/common/ports/ARMCMx/chcore_v6m.h **** }
 498              		.loc 4 389 3 view .LVU145
 499              	.LBB269:
 500              	.LBB266:
 501              	.LBB262:
 502              	.LBI262:
 140:./lib/chibios/os/common/ext/ARM/CMSIS/Core/Include/cmsis_gcc.h **** {
 503              		.loc 5 140 27 view .LVU146
 504              	.LBB263:
 505              		.loc 5 142 3 view .LVU147
 506              	.LBE263:
 507              	.LBE262:
 508              	.LBE266:
 509              	.LBE269:
 324:lib/chibios/os/rt/src/chthreads.c ****   thread_t *tp;
 510              		.loc 1 324 66 is_stmt 0 view .LVU148
 511 0000 10B5     		push	{r4, lr}
 512              		.cfi_def_cfa_offset 8
 513              		.cfi_offset 4, -8
 514              		.cfi_offset 14, -4
 515              	.LBB270:
 516              	.LBB267:
 517              	.LBB265:
 518              	.LBB264:
 519              		.loc 5 142 3 view .LVU149
 520              		.syntax divided
 521              	@ 142 "./lib/chibios/os/common/ext/ARM/CMSIS/Core/Include/cmsis_gcc.h" 1
 522 0002 72B6     		cpsid i
 523              	@ 0 "" 2
 524              		.thumb
 525              		.syntax unified
 526              	.LBE264:
 527              	.LBE265:
 528              	.LBE267:
 529              	.LBE270:
 356:./lib/chibios/os/rt/include/chsys.h ****   _dbg_check_lock();
 530              		.loc 3 356 34 is_stmt 1 view .LVU150
 357:./lib/chibios/os/rt/include/chsys.h **** }
 531              		.loc 3 357 20 view .LVU151
 346:lib/chibios/os/rt/src/chthreads.c **** 
 347:lib/chibios/os/rt/src/chthreads.c ****   /* The thread structure is laid out in the upper part of the thread
 348:lib/chibios/os/rt/src/chthreads.c ****      workspace. The thread position structure is aligned to the required
 349:lib/chibios/os/rt/src/chthreads.c ****      stack alignment because it represents the stack top.*/
 350:lib/chibios/os/rt/src/chthreads.c ****   tp = (thread_t *)((uint8_t *)wsp + size -
 532              		.loc 1 350 3 view .LVU152
 533              		.loc 1 350 43 is_stmt 0 view .LVU153
 534 0004 4039     		subs	r1, r1, #64
 535              	.LVL25:
 536              		.loc 1 350 6 view .LVU154
 537 0006 4018     		adds	r0, r0, r1
 538              	.LVL26:
 351:lib/chibios/os/rt/src/chthreads.c ****                     MEM_ALIGN_NEXT(sizeof (thread_t), PORT_STACK_ALIGN));
 352:lib/chibios/os/rt/src/chthreads.c **** 
 353:lib/chibios/os/rt/src/chthreads.c **** #if (CH_DBG_ENABLE_STACK_CHECK == TRUE) || (CH_CFG_USE_DYNAMIC == TRUE)
 354:lib/chibios/os/rt/src/chthreads.c ****   /* Stack boundary.*/
 355:lib/chibios/os/rt/src/chthreads.c ****   tp->wabase = (stkalign_t *)wsp;
 356:lib/chibios/os/rt/src/chthreads.c **** #endif
 357:lib/chibios/os/rt/src/chthreads.c **** 
 358:lib/chibios/os/rt/src/chthreads.c ****   /* Setting up the port-dependent part of the working area.*/
 359:lib/chibios/os/rt/src/chthreads.c ****   PORT_SETUP_CONTEXT(tp, wsp, tp, pf, arg);
 539              		.loc 1 359 3 is_stmt 1 view .LVU155
 540 0008 0100     		movs	r1, r0
 541              	.LVL27:
 542              		.loc 1 359 3 is_stmt 0 view .LVU156
 543 000a 2439     		subs	r1, r1, #36
 544 000c C160     		str	r1, [r0, #12]
 545              		.loc 1 359 3 is_stmt 1 view .LVU157
 546 000e 0B61     		str	r3, [r1, #16]
 547              		.loc 1 359 3 view .LVU158
 548 0010 029B     		ldr	r3, [sp, #8]
 549              	.LVL28:
 550              		.loc 1 359 3 is_stmt 0 view .LVU159
 551 0012 4B61     		str	r3, [r1, #20]
 552              		.loc 1 359 3 is_stmt 1 view .LVU160
 553 0014 054B     		ldr	r3, .L11
 554 0016 0B62     		str	r3, [r1, #32]
 555              		.loc 1 359 43 view .LVU161
 360:lib/chibios/os/rt/src/chthreads.c **** 
 361:lib/chibios/os/rt/src/chthreads.c ****   tp = _thread_init(tp, "noname", prio);
 556              		.loc 1 361 3 view .LVU162
 557              		.loc 1 361 8 is_stmt 0 view .LVU163
 558 0018 0549     		ldr	r1, .L11+4
 559              	.LVL29:
 560              		.loc 1 361 8 view .LVU164
 561 001a FFF7FEFF 		bl	_thread_init
 562              	.LVL30:
 362:lib/chibios/os/rt/src/chthreads.c **** 
 363:lib/chibios/os/rt/src/chthreads.c ****   /* Starting the thread immediately.*/
 364:lib/chibios/os/rt/src/chthreads.c ****   chSchWakeupS(tp, MSG_OK);
 563              		.loc 1 364 3 view .LVU165
 564 001e 0021     		movs	r1, #0
 361:lib/chibios/os/rt/src/chthreads.c **** 
 565              		.loc 1 361 8 view .LVU166
 566 0020 0400     		movs	r4, r0
 567              	.LVL31:
 568              		.loc 1 364 3 is_stmt 1 view .LVU167
 569 0022 FFF7FEFF 		bl	chSchWakeupS
 570              	.LVL32:
 365:lib/chibios/os/rt/src/chthreads.c ****   chSysUnlock();
 571              		.loc 1 365 3 view .LVU168
 572              	.LBB271:
 573              	.LBI271:
 365:./lib/chibios/os/rt/include/chsys.h **** 
 574              		.loc 3 365 20 view .LVU169
 575              	.LBB272:
 367:./lib/chibios/os/rt/include/chsys.h ****   _stats_stop_measure_crit_thd();
 576              		.loc 3 367 22 view .LVU170
 368:./lib/chibios/os/rt/include/chsys.h **** 
 577              		.loc 3 368 33 view .LVU171
 374:./lib/chibios/os/rt/include/chsys.h ****               (ch.rlist.current->prio >= ch.rlist.queue.next->prio),
 578              		.loc 3 374 3 view .LVU172
 374:./lib/chibios/os/rt/include/chsys.h ****               (ch.rlist.current->prio >= ch.rlist.queue.next->prio),
 579              		.loc 3 374 3 view .LVU173
 580              		.loc 3 378 3 view .LVU174
 581              	.LBB273:
 582              	.LBI273:
 396:./lib/chibios/os/common/ports/ARMCMx/chcore_v6m.h **** 
 583              		.loc 4 396 20 view .LVU175
 584              	.LBE273:
 585              	.LBE272:
 586              	.LBE271:
 587              		.loc 4 398 3 view .LVU176
 588              	.LBB278:
 589              	.LBB277:
 590              	.LBB276:
 591              	.LBB274:
 592              	.LBI274:
 129:./lib/chibios/os/common/ext/ARM/CMSIS/Core/Include/cmsis_gcc.h **** {
 593              		.loc 5 129 27 view .LVU177
 594              	.LBB275:
 131:./lib/chibios/os/common/ext/ARM/CMSIS/Core/Include/cmsis_gcc.h **** }
 595              		.loc 5 131 3 view .LVU178
 596              		.syntax divided
 597              	@ 131 "./lib/chibios/os/common/ext/ARM/CMSIS/Core/Include/cmsis_gcc.h" 1
 598 0026 62B6     		cpsie i
 599              	@ 0 "" 2
 600              		.thumb
 601              		.syntax unified
 602              	.LBE275:
 603              	.LBE274:
 604              	.LBE276:
 605              	.LBE277:
 606              	.LBE278:
 366:lib/chibios/os/rt/src/chthreads.c **** 
 367:lib/chibios/os/rt/src/chthreads.c ****   return tp;
 607              		.loc 1 367 3 view .LVU179
 368:lib/chibios/os/rt/src/chthreads.c **** }
 608              		.loc 1 368 1 is_stmt 0 view .LVU180
 609 0028 2000     		movs	r0, r4
 610              		@ sp needed
 611              	.LVL33:
 612              		.loc 1 368 1 view .LVU181
 613 002a 10BD     		pop	{r4, pc}
 614              	.L12:
 615              		.align	2
 616              	.L11:
 617 002c 00000000 		.word	_port_thread_start
 618 0030 00000000 		.word	.LC3
 619              		.cfi_endproc
 620              	.LFE159:
 622              		.section	.text.chThdStart,"ax",%progbits
 623              		.align	1
 624              		.global	chThdStart
 625              		.syntax unified
 626              		.code	16
 627              		.thumb_func
 628              		.fpu softvfp
 630              	chThdStart:
 631              	.LVL34:
 632              	.LFB160:
 369:lib/chibios/os/rt/src/chthreads.c **** 
 370:lib/chibios/os/rt/src/chthreads.c **** /**
 371:lib/chibios/os/rt/src/chthreads.c ****  * @brief   Resumes a thread created with @p chThdCreateI().
 372:lib/chibios/os/rt/src/chthreads.c ****  *
 373:lib/chibios/os/rt/src/chthreads.c ****  * @param[in] tp        pointer to the thread
 374:lib/chibios/os/rt/src/chthreads.c ****  * @return              The pointer to the @p thread_t structure allocated for
 375:lib/chibios/os/rt/src/chthreads.c ****  *                      the thread into the working space area.
 376:lib/chibios/os/rt/src/chthreads.c ****  *
 377:lib/chibios/os/rt/src/chthreads.c ****  * @api
 378:lib/chibios/os/rt/src/chthreads.c ****  */
 379:lib/chibios/os/rt/src/chthreads.c **** thread_t *chThdStart(thread_t *tp) {
 633              		.loc 1 379 36 is_stmt 1 view -0
 634              		.cfi_startproc
 635              		@ args = 0, pretend = 0, frame = 0
 636              		@ frame_needed = 0, uses_anonymous_args = 0
 380:lib/chibios/os/rt/src/chthreads.c **** 
 381:lib/chibios/os/rt/src/chthreads.c ****   chSysLock();
 637              		.loc 1 381 3 view .LVU183
 638              	.LBB279:
 639              	.LBI279:
 353:./lib/chibios/os/rt/include/chsys.h **** 
 640              		.loc 3 353 20 view .LVU184
 641              	.LBE279:
 355:./lib/chibios/os/rt/include/chsys.h ****   _stats_start_measure_crit_thd();
 642              		.loc 3 355 3 view .LVU185
 643              	.LBB287:
 644              	.LBB280:
 645              	.LBI280:
 387:./lib/chibios/os/common/ports/ARMCMx/chcore_v6m.h **** 
 646              		.loc 4 387 20 view .LVU186
 647              	.LBE280:
 648              	.LBE287:
 389:./lib/chibios/os/common/ports/ARMCMx/chcore_v6m.h **** }
 649              		.loc 4 389 3 view .LVU187
 650              	.LBB288:
 651              	.LBB285:
 652              	.LBB281:
 653              	.LBI281:
 140:./lib/chibios/os/common/ext/ARM/CMSIS/Core/Include/cmsis_gcc.h **** {
 654              		.loc 5 140 27 view .LVU188
 655              	.LBB282:
 656              		.loc 5 142 3 view .LVU189
 657              	.LBE282:
 658              	.LBE281:
 659              	.LBE285:
 660              	.LBE288:
 379:lib/chibios/os/rt/src/chthreads.c **** 
 661              		.loc 1 379 36 is_stmt 0 view .LVU190
 662 0000 10B5     		push	{r4, lr}
 663              		.cfi_def_cfa_offset 8
 664              		.cfi_offset 4, -8
 665              		.cfi_offset 14, -4
 379:lib/chibios/os/rt/src/chthreads.c **** 
 666              		.loc 1 379 36 view .LVU191
 667 0002 0400     		movs	r4, r0
 668              	.LBB289:
 669              	.LBB286:
 670              	.LBB284:
 671              	.LBB283:
 672              		.loc 5 142 3 view .LVU192
 673              		.syntax divided
 674              	@ 142 "./lib/chibios/os/common/ext/ARM/CMSIS/Core/Include/cmsis_gcc.h" 1
 675 0004 72B6     		cpsid i
 676              	@ 0 "" 2
 677              		.thumb
 678              		.syntax unified
 679              	.LBE283:
 680              	.LBE284:
 681              	.LBE286:
 682              	.LBE289:
 356:./lib/chibios/os/rt/include/chsys.h ****   _dbg_check_lock();
 683              		.loc 3 356 34 is_stmt 1 view .LVU193
 357:./lib/chibios/os/rt/include/chsys.h **** }
 684              		.loc 3 357 20 view .LVU194
 382:lib/chibios/os/rt/src/chthreads.c ****   chDbgAssert(tp->state == CH_STATE_WTSTART, "wrong state");
 685              		.loc 1 382 3 view .LVU195
 686              		.loc 1 382 3 view .LVU196
 383:lib/chibios/os/rt/src/chthreads.c ****   chSchWakeupS(tp, MSG_OK);
 687              		.loc 1 383 3 view .LVU197
 688 0006 0021     		movs	r1, #0
 689 0008 FFF7FEFF 		bl	chSchWakeupS
 690              	.LVL35:
 384:lib/chibios/os/rt/src/chthreads.c ****   chSysUnlock();
 691              		.loc 1 384 3 view .LVU198
 692              	.LBB290:
 693              	.LBI290:
 365:./lib/chibios/os/rt/include/chsys.h **** 
 694              		.loc 3 365 20 view .LVU199
 695              	.LBB291:
 367:./lib/chibios/os/rt/include/chsys.h ****   _stats_stop_measure_crit_thd();
 696              		.loc 3 367 22 view .LVU200
 368:./lib/chibios/os/rt/include/chsys.h **** 
 697              		.loc 3 368 33 view .LVU201
 374:./lib/chibios/os/rt/include/chsys.h ****               (ch.rlist.current->prio >= ch.rlist.queue.next->prio),
 698              		.loc 3 374 3 view .LVU202
 374:./lib/chibios/os/rt/include/chsys.h ****               (ch.rlist.current->prio >= ch.rlist.queue.next->prio),
 699              		.loc 3 374 3 view .LVU203
 700              		.loc 3 378 3 view .LVU204
 701              	.LBB292:
 702              	.LBI292:
 396:./lib/chibios/os/common/ports/ARMCMx/chcore_v6m.h **** 
 703              		.loc 4 396 20 view .LVU205
 704              	.LBE292:
 705              	.LBE291:
 706              	.LBE290:
 707              		.loc 4 398 3 view .LVU206
 708              	.LBB297:
 709              	.LBB296:
 710              	.LBB295:
 711              	.LBB293:
 712              	.LBI293:
 129:./lib/chibios/os/common/ext/ARM/CMSIS/Core/Include/cmsis_gcc.h **** {
 713              		.loc 5 129 27 view .LVU207
 714              	.LBB294:
 131:./lib/chibios/os/common/ext/ARM/CMSIS/Core/Include/cmsis_gcc.h **** }
 715              		.loc 5 131 3 view .LVU208
 716              		.syntax divided
 717              	@ 131 "./lib/chibios/os/common/ext/ARM/CMSIS/Core/Include/cmsis_gcc.h" 1
 718 000c 62B6     		cpsie i
 719              	@ 0 "" 2
 720              		.thumb
 721              		.syntax unified
 722              	.LBE294:
 723              	.LBE293:
 724              	.LBE295:
 725              	.LBE296:
 726              	.LBE297:
 385:lib/chibios/os/rt/src/chthreads.c **** 
 386:lib/chibios/os/rt/src/chthreads.c ****   return tp;
 727              		.loc 1 386 3 view .LVU209
 387:lib/chibios/os/rt/src/chthreads.c **** }
 728              		.loc 1 387 1 is_stmt 0 view .LVU210
 729 000e 2000     		movs	r0, r4
 730              		@ sp needed
 731              	.LVL36:
 732              		.loc 1 387 1 view .LVU211
 733 0010 10BD     		pop	{r4, pc}
 734              		.cfi_endproc
 735              	.LFE160:
 737              		.section	.text.chThdAddRef,"ax",%progbits
 738              		.align	1
 739              		.global	chThdAddRef
 740              		.syntax unified
 741              		.code	16
 742              		.thumb_func
 743              		.fpu softvfp
 745              	chThdAddRef:
 746              	.LVL37:
 747              	.LFB161:
 388:lib/chibios/os/rt/src/chthreads.c **** 
 389:lib/chibios/os/rt/src/chthreads.c **** #if (CH_CFG_USE_REGISTRY == TRUE) || defined(__DOXYGEN__)
 390:lib/chibios/os/rt/src/chthreads.c **** /**
 391:lib/chibios/os/rt/src/chthreads.c ****  * @brief   Adds a reference to a thread object.
 392:lib/chibios/os/rt/src/chthreads.c ****  * @pre     The configuration option @p CH_CFG_USE_REGISTRY must be enabled in
 393:lib/chibios/os/rt/src/chthreads.c ****  *          order to use this function.
 394:lib/chibios/os/rt/src/chthreads.c ****  *
 395:lib/chibios/os/rt/src/chthreads.c ****  * @param[in] tp        pointer to the thread
 396:lib/chibios/os/rt/src/chthreads.c ****  * @return              The same thread pointer passed as parameter
 397:lib/chibios/os/rt/src/chthreads.c ****  *                      representing the new reference.
 398:lib/chibios/os/rt/src/chthreads.c ****  *
 399:lib/chibios/os/rt/src/chthreads.c ****  * @api
 400:lib/chibios/os/rt/src/chthreads.c ****  */
 401:lib/chibios/os/rt/src/chthreads.c **** thread_t *chThdAddRef(thread_t *tp) {
 748              		.loc 1 401 37 is_stmt 1 view -0
 749              		.cfi_startproc
 750              		@ args = 0, pretend = 0, frame = 0
 751              		@ frame_needed = 0, uses_anonymous_args = 0
 752              		@ link register save eliminated.
 402:lib/chibios/os/rt/src/chthreads.c **** 
 403:lib/chibios/os/rt/src/chthreads.c ****   chSysLock();
 753              		.loc 1 403 3 view .LVU213
 754              	.LBB298:
 755              	.LBI298:
 353:./lib/chibios/os/rt/include/chsys.h **** 
 756              		.loc 3 353 20 view .LVU214
 757              	.LBE298:
 355:./lib/chibios/os/rt/include/chsys.h ****   _stats_start_measure_crit_thd();
 758              		.loc 3 355 3 view .LVU215
 759              	.LBB303:
 760              	.LBB299:
 761              	.LBI299:
 387:./lib/chibios/os/common/ports/ARMCMx/chcore_v6m.h **** 
 762              		.loc 4 387 20 view .LVU216
 763              	.LBE299:
 764              	.LBE303:
 389:./lib/chibios/os/common/ports/ARMCMx/chcore_v6m.h **** }
 765              		.loc 4 389 3 view .LVU217
 766              	.LBB304:
 767              	.LBB302:
 768              	.LBB300:
 769              	.LBI300:
 140:./lib/chibios/os/common/ext/ARM/CMSIS/Core/Include/cmsis_gcc.h **** {
 770              		.loc 5 140 27 view .LVU218
 771              	.LBB301:
 772              		.loc 5 142 3 view .LVU219
 773              		.syntax divided
 774              	@ 142 "./lib/chibios/os/common/ext/ARM/CMSIS/Core/Include/cmsis_gcc.h" 1
 775 0000 72B6     		cpsid i
 776              	@ 0 "" 2
 777              		.thumb
 778              		.syntax unified
 779              	.LBE301:
 780              	.LBE300:
 781              	.LBE302:
 782              	.LBE304:
 356:./lib/chibios/os/rt/include/chsys.h ****   _dbg_check_lock();
 783              		.loc 3 356 34 view .LVU220
 357:./lib/chibios/os/rt/include/chsys.h **** }
 784              		.loc 3 357 20 view .LVU221
 404:lib/chibios/os/rt/src/chthreads.c ****   chDbgAssert(tp->refs < (trefs_t)255, "too many references");
 785              		.loc 1 404 3 view .LVU222
 786              		.loc 1 404 3 view .LVU223
 405:lib/chibios/os/rt/src/chthreads.c ****   tp->refs++;
 787              		.loc 1 405 3 view .LVU224
 788              		.loc 1 405 11 is_stmt 0 view .LVU225
 789 0002 837F     		ldrb	r3, [r0, #30]
 790 0004 0133     		adds	r3, r3, #1
 791 0006 8377     		strb	r3, [r0, #30]
 406:lib/chibios/os/rt/src/chthreads.c ****   chSysUnlock();
 792              		.loc 1 406 3 is_stmt 1 view .LVU226
 793              	.LBB305:
 794              	.LBI305:
 365:./lib/chibios/os/rt/include/chsys.h **** 
 795              		.loc 3 365 20 view .LVU227
 796              	.LBB306:
 367:./lib/chibios/os/rt/include/chsys.h ****   _stats_stop_measure_crit_thd();
 797              		.loc 3 367 22 view .LVU228
 368:./lib/chibios/os/rt/include/chsys.h **** 
 798              		.loc 3 368 33 view .LVU229
 374:./lib/chibios/os/rt/include/chsys.h ****               (ch.rlist.current->prio >= ch.rlist.queue.next->prio),
 799              		.loc 3 374 3 view .LVU230
 374:./lib/chibios/os/rt/include/chsys.h ****               (ch.rlist.current->prio >= ch.rlist.queue.next->prio),
 800              		.loc 3 374 3 view .LVU231
 801              		.loc 3 378 3 view .LVU232
 802              	.LBB307:
 803              	.LBI307:
 396:./lib/chibios/os/common/ports/ARMCMx/chcore_v6m.h **** 
 804              		.loc 4 396 20 view .LVU233
 805              	.LBE307:
 806              	.LBE306:
 807              	.LBE305:
 808              		.loc 4 398 3 view .LVU234
 809              	.LBB312:
 810              	.LBB311:
 811              	.LBB310:
 812              	.LBB308:
 813              	.LBI308:
 129:./lib/chibios/os/common/ext/ARM/CMSIS/Core/Include/cmsis_gcc.h **** {
 814              		.loc 5 129 27 view .LVU235
 815              	.LBB309:
 131:./lib/chibios/os/common/ext/ARM/CMSIS/Core/Include/cmsis_gcc.h **** }
 816              		.loc 5 131 3 view .LVU236
 817              		.syntax divided
 818              	@ 131 "./lib/chibios/os/common/ext/ARM/CMSIS/Core/Include/cmsis_gcc.h" 1
 819 0008 62B6     		cpsie i
 820              	@ 0 "" 2
 821              		.thumb
 822              		.syntax unified
 823              	.LBE309:
 824              	.LBE308:
 825              	.LBE310:
 826              	.LBE311:
 827              	.LBE312:
 407:lib/chibios/os/rt/src/chthreads.c **** 
 408:lib/chibios/os/rt/src/chthreads.c ****   return tp;
 828              		.loc 1 408 3 view .LVU237
 409:lib/chibios/os/rt/src/chthreads.c **** }
 829              		.loc 1 409 1 is_stmt 0 view .LVU238
 830              		@ sp needed
 831 000a 7047     		bx	lr
 832              		.cfi_endproc
 833              	.LFE161:
 835              		.section	.text.chThdRelease,"ax",%progbits
 836              		.align	1
 837              		.global	chThdRelease
 838              		.syntax unified
 839              		.code	16
 840              		.thumb_func
 841              		.fpu softvfp
 843              	chThdRelease:
 844              	.LVL38:
 845              	.LFB162:
 410:lib/chibios/os/rt/src/chthreads.c **** 
 411:lib/chibios/os/rt/src/chthreads.c **** /**
 412:lib/chibios/os/rt/src/chthreads.c ****  * @brief   Releases a reference to a thread object.
 413:lib/chibios/os/rt/src/chthreads.c ****  * @details If the references counter reaches zero <b>and</b> the thread
 414:lib/chibios/os/rt/src/chthreads.c ****  *          is in the @p CH_STATE_FINAL state then the thread's memory is
 415:lib/chibios/os/rt/src/chthreads.c ****  *          returned to the proper allocator and the thread is removed
 416:lib/chibios/os/rt/src/chthreads.c ****  *          from the registry.<br>
 417:lib/chibios/os/rt/src/chthreads.c ****  *          Threads whose counter reaches zero and are still active become
 418:lib/chibios/os/rt/src/chthreads.c ****  *          "detached" and will be removed from registry on termination.
 419:lib/chibios/os/rt/src/chthreads.c ****  * @pre     The configuration option @p CH_CFG_USE_REGISTRY must be enabled in
 420:lib/chibios/os/rt/src/chthreads.c ****  *          order to use this function.
 421:lib/chibios/os/rt/src/chthreads.c ****  * @note    Static threads are not affected.
 422:lib/chibios/os/rt/src/chthreads.c ****  *
 423:lib/chibios/os/rt/src/chthreads.c ****  * @param[in] tp        pointer to the thread
 424:lib/chibios/os/rt/src/chthreads.c ****  *
 425:lib/chibios/os/rt/src/chthreads.c ****  * @api
 426:lib/chibios/os/rt/src/chthreads.c ****  */
 427:lib/chibios/os/rt/src/chthreads.c **** void chThdRelease(thread_t *tp) {
 846              		.loc 1 427 33 is_stmt 1 view -0
 847              		.cfi_startproc
 848              		@ args = 0, pretend = 0, frame = 0
 849              		@ frame_needed = 0, uses_anonymous_args = 0
 850              		@ link register save eliminated.
 428:lib/chibios/os/rt/src/chthreads.c **** 
 429:lib/chibios/os/rt/src/chthreads.c ****   chSysLock();
 851              		.loc 1 429 3 view .LVU240
 852              	.LBB338:
 853              	.LBI338:
 353:./lib/chibios/os/rt/include/chsys.h **** 
 854              		.loc 3 353 20 view .LVU241
 855              	.LBE338:
 355:./lib/chibios/os/rt/include/chsys.h ****   _stats_start_measure_crit_thd();
 856              		.loc 3 355 3 view .LVU242
 857              	.LBB343:
 858              	.LBB339:
 859              	.LBI339:
 387:./lib/chibios/os/common/ports/ARMCMx/chcore_v6m.h **** 
 860              		.loc 4 387 20 view .LVU243
 861              	.LBE339:
 862              	.LBE343:
 389:./lib/chibios/os/common/ports/ARMCMx/chcore_v6m.h **** }
 863              		.loc 4 389 3 view .LVU244
 864              	.LBB344:
 865              	.LBB342:
 866              	.LBB340:
 867              	.LBI340:
 140:./lib/chibios/os/common/ext/ARM/CMSIS/Core/Include/cmsis_gcc.h **** {
 868              		.loc 5 140 27 view .LVU245
 869              	.LBB341:
 870              		.loc 5 142 3 view .LVU246
 871              		.syntax divided
 872              	@ 142 "./lib/chibios/os/common/ext/ARM/CMSIS/Core/Include/cmsis_gcc.h" 1
 873 0000 72B6     		cpsid i
 874              	@ 0 "" 2
 875              		.thumb
 876              		.syntax unified
 877              	.LBE341:
 878              	.LBE340:
 879              	.LBE342:
 880              	.LBE344:
 356:./lib/chibios/os/rt/include/chsys.h ****   _dbg_check_lock();
 881              		.loc 3 356 34 view .LVU247
 357:./lib/chibios/os/rt/include/chsys.h **** }
 882              		.loc 3 357 20 view .LVU248
 430:lib/chibios/os/rt/src/chthreads.c ****   chDbgAssert(tp->refs > (trefs_t)0, "not referenced");
 883              		.loc 1 430 3 view .LVU249
 884              		.loc 1 430 3 view .LVU250
 431:lib/chibios/os/rt/src/chthreads.c ****   tp->refs--;
 885              		.loc 1 431 3 view .LVU251
 886              		.loc 1 431 11 is_stmt 0 view .LVU252
 887 0002 837F     		ldrb	r3, [r0, #30]
 888 0004 013B     		subs	r3, r3, #1
 889 0006 8377     		strb	r3, [r0, #30]
 432:lib/chibios/os/rt/src/chthreads.c **** 
 433:lib/chibios/os/rt/src/chthreads.c ****   /* If the references counter reaches zero and the thread is in its
 434:lib/chibios/os/rt/src/chthreads.c ****      terminated state then the memory can be returned to the proper
 435:lib/chibios/os/rt/src/chthreads.c ****      allocator.*/
 436:lib/chibios/os/rt/src/chthreads.c ****   if ((tp->refs == (trefs_t)0) && (tp->state == CH_STATE_FINAL)) {
 890              		.loc 1 436 3 is_stmt 1 view .LVU253
 891              		.loc 1 436 32 is_stmt 0 view .LVU254
 892 0008 C269     		ldr	r2, [r0, #28]
 893 000a 054B     		ldr	r3, .L18
 894 000c 1340     		ands	r3, r2
 895              		.loc 1 436 6 view .LVU255
 896 000e 0F2B     		cmp	r3, #15
 897 0010 04D1     		bne	.L16
 898              	.LVL39:
 899              	.LBB345:
 900              	.LBI345:
 427:lib/chibios/os/rt/src/chthreads.c **** 
 901              		.loc 1 427 6 is_stmt 1 view .LVU256
 902              	.LBB346:
 437:lib/chibios/os/rt/src/chthreads.c ****     REG_REMOVE(tp);
 903              		.loc 1 437 5 view .LVU257
 904 0012 0269     		ldr	r2, [r0, #16]
 905 0014 4369     		ldr	r3, [r0, #20]
 906 0016 1A61     		str	r2, [r3, #16]
 907              		.loc 1 437 5 view .LVU258
 908 0018 0269     		ldr	r2, [r0, #16]
 909 001a 5361     		str	r3, [r2, #20]
 910              		.loc 1 437 19 view .LVU259
 438:lib/chibios/os/rt/src/chthreads.c ****     chSysUnlock();
 911              		.loc 1 438 5 view .LVU260
 912              	.LBB347:
 913              	.LBI347:
 365:./lib/chibios/os/rt/include/chsys.h **** 
 914              		.loc 3 365 20 view .LVU261
 915              	.LBB348:
 367:./lib/chibios/os/rt/include/chsys.h ****   _stats_stop_measure_crit_thd();
 916              		.loc 3 367 22 view .LVU262
 368:./lib/chibios/os/rt/include/chsys.h **** 
 917              		.loc 3 368 33 view .LVU263
 374:./lib/chibios/os/rt/include/chsys.h ****               (ch.rlist.current->prio >= ch.rlist.queue.next->prio),
 918              		.loc 3 374 3 view .LVU264
 374:./lib/chibios/os/rt/include/chsys.h ****               (ch.rlist.current->prio >= ch.rlist.queue.next->prio),
 919              		.loc 3 374 3 view .LVU265
 920              		.loc 3 378 3 view .LVU266
 921              	.LBB349:
 922              	.LBI349:
 396:./lib/chibios/os/common/ports/ARMCMx/chcore_v6m.h **** 
 923              		.loc 4 396 20 view .LVU267
 924              	.LBE349:
 925              	.LBE348:
 926              	.LBE347:
 927              	.LBE346:
 928              	.LBE345:
 929              		.loc 4 398 3 view .LVU268
 930              	.LBB356:
 931              	.LBB355:
 932              	.LBB354:
 933              	.LBB353:
 934              	.LBB352:
 935              	.LBB350:
 936              	.LBI350:
 129:./lib/chibios/os/common/ext/ARM/CMSIS/Core/Include/cmsis_gcc.h **** {
 937              		.loc 5 129 27 view .LVU269
 938              	.LBB351:
 131:./lib/chibios/os/common/ext/ARM/CMSIS/Core/Include/cmsis_gcc.h **** }
 939              		.loc 5 131 3 view .LVU270
 940              	.LVL40:
 941              	.L16:
 131:./lib/chibios/os/common/ext/ARM/CMSIS/Core/Include/cmsis_gcc.h **** }
 942              		.loc 5 131 3 is_stmt 0 view .LVU271
 943              	.LBE351:
 944              	.LBE350:
 945              	.LBE352:
 946              	.LBE353:
 947              	.LBE354:
 948              	.LBE355:
 949              	.LBE356:
 439:lib/chibios/os/rt/src/chthreads.c **** 
 440:lib/chibios/os/rt/src/chthreads.c **** #if CH_CFG_USE_DYNAMIC == TRUE
 441:lib/chibios/os/rt/src/chthreads.c ****     switch (tp->flags & CH_FLAG_MODE_MASK) {
 442:lib/chibios/os/rt/src/chthreads.c **** #if CH_CFG_USE_HEAP == TRUE
 443:lib/chibios/os/rt/src/chthreads.c ****     case CH_FLAG_MODE_HEAP:
 444:lib/chibios/os/rt/src/chthreads.c ****       chHeapFree(chThdGetWorkingAreaX(tp));
 445:lib/chibios/os/rt/src/chthreads.c ****       break;
 446:lib/chibios/os/rt/src/chthreads.c **** #endif
 447:lib/chibios/os/rt/src/chthreads.c **** #if CH_CFG_USE_MEMPOOLS == TRUE
 448:lib/chibios/os/rt/src/chthreads.c ****     case CH_FLAG_MODE_MPOOL:
 449:lib/chibios/os/rt/src/chthreads.c ****       chPoolFree(tp->mpool, chThdGetWorkingAreaX(tp));
 450:lib/chibios/os/rt/src/chthreads.c ****       break;
 451:lib/chibios/os/rt/src/chthreads.c **** #endif
 452:lib/chibios/os/rt/src/chthreads.c ****     default:
 453:lib/chibios/os/rt/src/chthreads.c ****       /* Nothing else to do for static threads.*/
 454:lib/chibios/os/rt/src/chthreads.c ****       break;
 455:lib/chibios/os/rt/src/chthreads.c ****     }
 456:lib/chibios/os/rt/src/chthreads.c **** #endif /* CH_CFG_USE_DYNAMIC == TRUE */
 457:lib/chibios/os/rt/src/chthreads.c ****     return;
 458:lib/chibios/os/rt/src/chthreads.c ****   }
 459:lib/chibios/os/rt/src/chthreads.c ****   chSysUnlock();
 950              		.loc 1 459 3 is_stmt 1 view .LVU272
 951              	.LBB357:
 952              	.LBI357:
 365:./lib/chibios/os/rt/include/chsys.h **** 
 953              		.loc 3 365 20 view .LVU273
 954              	.LBB358:
 367:./lib/chibios/os/rt/include/chsys.h ****   _stats_stop_measure_crit_thd();
 955              		.loc 3 367 22 view .LVU274
 368:./lib/chibios/os/rt/include/chsys.h **** 
 956              		.loc 3 368 33 view .LVU275
 374:./lib/chibios/os/rt/include/chsys.h ****               (ch.rlist.current->prio >= ch.rlist.queue.next->prio),
 957              		.loc 3 374 3 view .LVU276
 374:./lib/chibios/os/rt/include/chsys.h ****               (ch.rlist.current->prio >= ch.rlist.queue.next->prio),
 958              		.loc 3 374 3 view .LVU277
 959              		.loc 3 378 3 view .LVU278
 960              	.LBB359:
 961              	.LBI359:
 396:./lib/chibios/os/common/ports/ARMCMx/chcore_v6m.h **** 
 962              		.loc 4 396 20 view .LVU279
 963              	.LBE359:
 964              	.LBE358:
 965              	.LBE357:
 966              		.loc 4 398 3 view .LVU280
 967              	.LBB364:
 968              	.LBB363:
 969              	.LBB362:
 970              	.LBB360:
 971              	.LBI360:
 129:./lib/chibios/os/common/ext/ARM/CMSIS/Core/Include/cmsis_gcc.h **** {
 972              		.loc 5 129 27 view .LVU281
 973              	.LBB361:
 131:./lib/chibios/os/common/ext/ARM/CMSIS/Core/Include/cmsis_gcc.h **** }
 974              		.loc 5 131 3 view .LVU282
 975              		.syntax divided
 976              	@ 131 "./lib/chibios/os/common/ext/ARM/CMSIS/Core/Include/cmsis_gcc.h" 1
 977 001c 62B6     		cpsie i
 978              	@ 0 "" 2
 979              		.thumb
 980              		.syntax unified
 981              	.LBE361:
 982              	.LBE360:
 983              	.LBE362:
 984              	.LBE363:
 985              	.LBE364:
 460:lib/chibios/os/rt/src/chthreads.c **** }
 986              		.loc 1 460 1 is_stmt 0 view .LVU283
 987              		@ sp needed
 988 001e 7047     		bx	lr
 989              	.L19:
 990              		.align	2
 991              	.L18:
 992 0020 FF00FF00 		.word	16711935
 993              		.cfi_endproc
 994              	.LFE162:
 996              		.section	.text.chThdExitS,"ax",%progbits
 997              		.align	1
 998              		.global	chThdExitS
 999              		.syntax unified
 1000              		.code	16
 1001              		.thumb_func
 1002              		.fpu softvfp
 1004              	chThdExitS:
 1005              	.LVL41:
 1006              	.LFB164:
 461:lib/chibios/os/rt/src/chthreads.c **** #endif /* CH_CFG_USE_REGISTRY == TRUE */
 462:lib/chibios/os/rt/src/chthreads.c **** 
 463:lib/chibios/os/rt/src/chthreads.c **** /**
 464:lib/chibios/os/rt/src/chthreads.c ****  * @brief   Terminates the current thread.
 465:lib/chibios/os/rt/src/chthreads.c ****  * @details The thread goes in the @p CH_STATE_FINAL state holding the
 466:lib/chibios/os/rt/src/chthreads.c ****  *          specified exit status code, other threads can retrieve the
 467:lib/chibios/os/rt/src/chthreads.c ****  *          exit status code by invoking the function @p chThdWait().
 468:lib/chibios/os/rt/src/chthreads.c ****  * @post    Eventual code after this function will never be executed,
 469:lib/chibios/os/rt/src/chthreads.c ****  *          this function never returns. The compiler has no way to
 470:lib/chibios/os/rt/src/chthreads.c ****  *          know this so do not assume that the compiler would remove
 471:lib/chibios/os/rt/src/chthreads.c ****  *          the dead code.
 472:lib/chibios/os/rt/src/chthreads.c ****  *
 473:lib/chibios/os/rt/src/chthreads.c ****  * @param[in] msg       thread exit code
 474:lib/chibios/os/rt/src/chthreads.c ****  *
 475:lib/chibios/os/rt/src/chthreads.c ****  * @api
 476:lib/chibios/os/rt/src/chthreads.c ****  */
 477:lib/chibios/os/rt/src/chthreads.c **** void chThdExit(msg_t msg) {
 478:lib/chibios/os/rt/src/chthreads.c **** 
 479:lib/chibios/os/rt/src/chthreads.c ****   chSysLock();
 480:lib/chibios/os/rt/src/chthreads.c ****   chThdExitS(msg);
 481:lib/chibios/os/rt/src/chthreads.c ****   /* The thread never returns here.*/
 482:lib/chibios/os/rt/src/chthreads.c **** }
 483:lib/chibios/os/rt/src/chthreads.c **** 
 484:lib/chibios/os/rt/src/chthreads.c **** /**
 485:lib/chibios/os/rt/src/chthreads.c ****  * @brief   Terminates the current thread.
 486:lib/chibios/os/rt/src/chthreads.c ****  * @details The thread goes in the @p CH_STATE_FINAL state holding the
 487:lib/chibios/os/rt/src/chthreads.c ****  *          specified exit status code, other threads can retrieve the
 488:lib/chibios/os/rt/src/chthreads.c ****  *          exit status code by invoking the function @p chThdWait().
 489:lib/chibios/os/rt/src/chthreads.c ****  * @post    Exiting a non-static thread that does not have references
 490:lib/chibios/os/rt/src/chthreads.c ****  *          (detached) causes the thread to remain in the registry.
 491:lib/chibios/os/rt/src/chthreads.c ****  *          It can only be removed by performing a registry scan operation.
 492:lib/chibios/os/rt/src/chthreads.c ****  * @post    Eventual code after this function will never be executed,
 493:lib/chibios/os/rt/src/chthreads.c ****  *          this function never returns. The compiler has no way to
 494:lib/chibios/os/rt/src/chthreads.c ****  *          know this so do not assume that the compiler would remove
 495:lib/chibios/os/rt/src/chthreads.c ****  *          the dead code.
 496:lib/chibios/os/rt/src/chthreads.c ****  *
 497:lib/chibios/os/rt/src/chthreads.c ****  * @param[in] msg       thread exit code
 498:lib/chibios/os/rt/src/chthreads.c ****  *
 499:lib/chibios/os/rt/src/chthreads.c ****  * @sclass
 500:lib/chibios/os/rt/src/chthreads.c ****  */
 501:lib/chibios/os/rt/src/chthreads.c **** void chThdExitS(msg_t msg) {
 1007              		.loc 1 501 28 is_stmt 1 view -0
 1008              		.cfi_startproc
 1009              		@ args = 0, pretend = 0, frame = 0
 1010              		@ frame_needed = 0, uses_anonymous_args = 0
 502:lib/chibios/os/rt/src/chthreads.c ****   thread_t *tp = currp;
 1011              		.loc 1 502 3 view .LVU285
 1012              		.loc 1 502 13 is_stmt 0 view .LVU286
 1013 0000 0C4B     		ldr	r3, .L24
 501:lib/chibios/os/rt/src/chthreads.c ****   thread_t *tp = currp;
 1014              		.loc 1 501 28 view .LVU287
 1015 0002 10B5     		push	{r4, lr}
 1016              		.cfi_def_cfa_offset 8
 1017              		.cfi_offset 4, -8
 1018              		.cfi_offset 14, -4
 1019              		.loc 1 502 13 view .LVU288
 1020 0004 9C69     		ldr	r4, [r3, #24]
 1021              	.LVL42:
 503:lib/chibios/os/rt/src/chthreads.c **** 
 504:lib/chibios/os/rt/src/chthreads.c ****   /* Storing exit message.*/
 505:lib/chibios/os/rt/src/chthreads.c ****   tp->u.exitcode = msg;
 1022              		.loc 1 505 3 is_stmt 1 view .LVU289
 1023              		.loc 1 505 18 is_stmt 0 view .LVU290
 1024 0006 2062     		str	r0, [r4, #32]
 506:lib/chibios/os/rt/src/chthreads.c **** 
 507:lib/chibios/os/rt/src/chthreads.c ****   /* Exit handler hook.*/
 508:lib/chibios/os/rt/src/chthreads.c ****   CH_CFG_THREAD_EXIT_HOOK(tp);
 1025              		.loc 1 508 3 is_stmt 1 view .LVU291
 1026              		.loc 1 508 30 view .LVU292
 509:lib/chibios/os/rt/src/chthreads.c **** 
 510:lib/chibios/os/rt/src/chthreads.c **** #if CH_CFG_USE_WAITEXIT == TRUE
 511:lib/chibios/os/rt/src/chthreads.c ****   /* Waking up any waiting thread.*/
 512:lib/chibios/os/rt/src/chthreads.c ****   while (list_notempty(&tp->waiting)) {
 1027              		.loc 1 512 3 view .LVU293
 1028              	.LVL43:
 1029              	.L21:
 1030              		.loc 1 512 10 is_stmt 0 view .LVU294
 1031 0008 2000     		movs	r0, r4
 1032              		.loc 1 512 9 view .LVU295
 1033 000a 636A     		ldr	r3, [r4, #36]
 1034              		.loc 1 512 10 view .LVU296
 1035 000c 2430     		adds	r0, r0, #36
 1036              	.LVL44:
 1037              	.LBB365:
 1038              	.LBI365:
 525:./lib/chibios/os/rt/include/chschd.h **** 
 1039              		.loc 2 525 20 is_stmt 1 view .LVU297
 1040              	.LBB366:
 527:./lib/chibios/os/rt/include/chschd.h **** }
 1041              		.loc 2 527 3 view .LVU298
 527:./lib/chibios/os/rt/include/chschd.h **** }
 1042              		.loc 2 527 3 is_stmt 0 view .LVU299
 1043              	.LBE366:
 1044              	.LBE365:
 1045              		.loc 1 512 9 view .LVU300
 1046 000e 9842     		cmp	r0, r3
 1047 0010 0AD1     		bne	.L22
 513:lib/chibios/os/rt/src/chthreads.c ****     (void) chSchReadyI(list_remove(&tp->waiting));
 514:lib/chibios/os/rt/src/chthreads.c ****   }
 515:lib/chibios/os/rt/src/chthreads.c **** #endif
 516:lib/chibios/os/rt/src/chthreads.c **** 
 517:lib/chibios/os/rt/src/chthreads.c **** #if CH_CFG_USE_REGISTRY == TRUE
 518:lib/chibios/os/rt/src/chthreads.c ****   /* Static threads with no references are immediately removed from the
 519:lib/chibios/os/rt/src/chthreads.c ****      registry because there is no memory to recover.*/
 520:lib/chibios/os/rt/src/chthreads.c **** #if CH_CFG_USE_DYNAMIC == TRUE
 521:lib/chibios/os/rt/src/chthreads.c ****   if ((tp->refs == (trefs_t)0) &&
 522:lib/chibios/os/rt/src/chthreads.c ****       ((tp->flags & CH_FLAG_MODE_MASK) == CH_FLAG_MODE_STATIC)) {
 523:lib/chibios/os/rt/src/chthreads.c ****     REG_REMOVE(tp);
 524:lib/chibios/os/rt/src/chthreads.c ****   }
 525:lib/chibios/os/rt/src/chthreads.c **** #else
 526:lib/chibios/os/rt/src/chthreads.c ****   if (tp->refs == (trefs_t)0) {
 1048              		.loc 1 526 3 is_stmt 1 view .LVU301
 1049              		.loc 1 526 6 is_stmt 0 view .LVU302
 1050 0012 A37F     		ldrb	r3, [r4, #30]
 1051 0014 002B     		cmp	r3, #0
 1052 0016 03D1     		bne	.L23
 527:lib/chibios/os/rt/src/chthreads.c ****     REG_REMOVE(tp);
 1053              		.loc 1 527 5 is_stmt 1 view .LVU303
 1054 0018 6269     		ldr	r2, [r4, #20]
 1055 001a 2369     		ldr	r3, [r4, #16]
 1056 001c 1361     		str	r3, [r2, #16]
 1057              		.loc 1 527 5 view .LVU304
 1058 001e 5A61     		str	r2, [r3, #20]
 1059              	.L23:
 1060              		.loc 1 527 19 discriminator 1 view .LVU305
 528:lib/chibios/os/rt/src/chthreads.c ****   }
 529:lib/chibios/os/rt/src/chthreads.c **** #endif
 530:lib/chibios/os/rt/src/chthreads.c **** #endif
 531:lib/chibios/os/rt/src/chthreads.c **** 
 532:lib/chibios/os/rt/src/chthreads.c ****   /* Going into final state.*/
 533:lib/chibios/os/rt/src/chthreads.c ****   chSchGoSleepS(CH_STATE_FINAL);
 1061              		.loc 1 533 3 discriminator 1 view .LVU306
 1062 0020 0F20     		movs	r0, #15
 1063 0022 FFF7FEFF 		bl	chSchGoSleepS
 1064              	.LVL45:
 534:lib/chibios/os/rt/src/chthreads.c **** 
 535:lib/chibios/os/rt/src/chthreads.c ****   /* The thread never returns here.*/
 536:lib/chibios/os/rt/src/chthreads.c ****   chDbgAssert(false, "zombies apocalypse");
 1065              		.loc 1 536 3 discriminator 1 view .LVU307
 1066              		.loc 1 536 3 discriminator 1 view .LVU308
 537:lib/chibios/os/rt/src/chthreads.c **** }
 1067              		.loc 1 537 1 is_stmt 0 discriminator 1 view .LVU309
 1068              		@ sp needed
 1069              	.LVL46:
 1070              		.loc 1 537 1 discriminator 1 view .LVU310
 1071 0026 10BD     		pop	{r4, pc}
 1072              	.LVL47:
 1073              	.L22:
 513:lib/chibios/os/rt/src/chthreads.c ****   }
 1074              		.loc 1 513 5 is_stmt 1 view .LVU311
 513:lib/chibios/os/rt/src/chthreads.c ****   }
 1075              		.loc 1 513 12 is_stmt 0 view .LVU312
 1076 0028 FFF7FEFF 		bl	list_remove
 1077              	.LVL48:
 1078 002c FFF7FEFF 		bl	chSchReadyI
 1079              	.LVL49:
 1080 0030 EAE7     		b	.L21
 1081              	.L25:
 1082 0032 C046     		.align	2
 1083              	.L24:
 1084 0034 00000000 		.word	ch
 1085              		.cfi_endproc
 1086              	.LFE164:
 1088              		.section	.text.chThdExit,"ax",%progbits
 1089              		.align	1
 1090              		.global	chThdExit
 1091              		.syntax unified
 1092              		.code	16
 1093              		.thumb_func
 1094              		.fpu softvfp
 1096              	chThdExit:
 1097              	.LVL50:
 1098              	.LFB163:
 477:lib/chibios/os/rt/src/chthreads.c **** 
 1099              		.loc 1 477 27 is_stmt 1 view -0
 1100              		.cfi_startproc
 1101              		@ args = 0, pretend = 0, frame = 0
 1102              		@ frame_needed = 0, uses_anonymous_args = 0
 479:lib/chibios/os/rt/src/chthreads.c ****   chThdExitS(msg);
 1103              		.loc 1 479 3 view .LVU314
 1104              	.LBB367:
 1105              	.LBI367:
 353:./lib/chibios/os/rt/include/chsys.h **** 
 1106              		.loc 3 353 20 view .LVU315
 1107              	.LBE367:
 355:./lib/chibios/os/rt/include/chsys.h ****   _stats_start_measure_crit_thd();
 1108              		.loc 3 355 3 view .LVU316
 1109              	.LBB375:
 1110              	.LBB368:
 1111              	.LBI368:
 387:./lib/chibios/os/common/ports/ARMCMx/chcore_v6m.h **** 
 1112              		.loc 4 387 20 view .LVU317
 1113              	.LBE368:
 1114              	.LBE375:
 389:./lib/chibios/os/common/ports/ARMCMx/chcore_v6m.h **** }
 1115              		.loc 4 389 3 view .LVU318
 1116              	.LBB376:
 1117              	.LBB373:
 1118              	.LBB369:
 1119              	.LBI369:
 140:./lib/chibios/os/common/ext/ARM/CMSIS/Core/Include/cmsis_gcc.h **** {
 1120              		.loc 5 140 27 view .LVU319
 1121              	.LBB370:
 1122              		.loc 5 142 3 view .LVU320
 1123              	.LBE370:
 1124              	.LBE369:
 1125              	.LBE373:
 1126              	.LBE376:
 477:lib/chibios/os/rt/src/chthreads.c **** 
 1127              		.loc 1 477 27 is_stmt 0 view .LVU321
 1128 0000 10B5     		push	{r4, lr}
 1129              		.cfi_def_cfa_offset 8
 1130              		.cfi_offset 4, -8
 1131              		.cfi_offset 14, -4
 1132              	.LBB377:
 1133              	.LBB374:
 1134              	.LBB372:
 1135              	.LBB371:
 1136              		.loc 5 142 3 view .LVU322
 1137              		.syntax divided
 1138              	@ 142 "./lib/chibios/os/common/ext/ARM/CMSIS/Core/Include/cmsis_gcc.h" 1
 1139 0002 72B6     		cpsid i
 1140              	@ 0 "" 2
 1141              		.thumb
 1142              		.syntax unified
 1143              	.LBE371:
 1144              	.LBE372:
 1145              	.LBE374:
 1146              	.LBE377:
 356:./lib/chibios/os/rt/include/chsys.h ****   _dbg_check_lock();
 1147              		.loc 3 356 34 is_stmt 1 view .LVU323
 357:./lib/chibios/os/rt/include/chsys.h **** }
 1148              		.loc 3 357 20 view .LVU324
 480:lib/chibios/os/rt/src/chthreads.c ****   /* The thread never returns here.*/
 1149              		.loc 1 480 3 view .LVU325
 1150 0004 FFF7FEFF 		bl	chThdExitS
 1151              	.LVL51:
 482:lib/chibios/os/rt/src/chthreads.c **** 
 1152              		.loc 1 482 1 is_stmt 0 view .LVU326
 1153              		@ sp needed
 1154 0008 10BD     		pop	{r4, pc}
 1155              		.cfi_endproc
 1156              	.LFE163:
 1158              		.section	.text.chThdWait,"ax",%progbits
 1159              		.align	1
 1160              		.global	chThdWait
 1161              		.syntax unified
 1162              		.code	16
 1163              		.thumb_func
 1164              		.fpu softvfp
 1166              	chThdWait:
 1167              	.LVL52:
 1168              	.LFB165:
 538:lib/chibios/os/rt/src/chthreads.c **** 
 539:lib/chibios/os/rt/src/chthreads.c **** #if (CH_CFG_USE_WAITEXIT == TRUE) || defined(__DOXYGEN__)
 540:lib/chibios/os/rt/src/chthreads.c **** /**
 541:lib/chibios/os/rt/src/chthreads.c ****  * @brief   Blocks the execution of the invoking thread until the specified
 542:lib/chibios/os/rt/src/chthreads.c ****  *          thread terminates then the exit code is returned.
 543:lib/chibios/os/rt/src/chthreads.c ****  * @details This function waits for the specified thread to terminate then
 544:lib/chibios/os/rt/src/chthreads.c ****  *          decrements its reference counter, if the counter reaches zero then
 545:lib/chibios/os/rt/src/chthreads.c ****  *          the thread working area is returned to the proper allocator and
 546:lib/chibios/os/rt/src/chthreads.c ****  *          the thread is removed from registry.
 547:lib/chibios/os/rt/src/chthreads.c ****  * @pre     The configuration option @p CH_CFG_USE_WAITEXIT must be enabled in
 548:lib/chibios/os/rt/src/chthreads.c ****  *          order to use this function.
 549:lib/chibios/os/rt/src/chthreads.c ****  * @post    Enabling @p chThdWait() requires 2-4 (depending on the
 550:lib/chibios/os/rt/src/chthreads.c ****  *          architecture) extra bytes in the @p thread_t structure.
 551:lib/chibios/os/rt/src/chthreads.c ****  * @note    If @p CH_CFG_USE_DYNAMIC is not specified this function just waits
 552:lib/chibios/os/rt/src/chthreads.c ****  *          for the thread termination, no memory allocators are involved.
 553:lib/chibios/os/rt/src/chthreads.c ****  *
 554:lib/chibios/os/rt/src/chthreads.c ****  * @param[in] tp        pointer to the thread
 555:lib/chibios/os/rt/src/chthreads.c ****  * @return              The exit code from the terminated thread.
 556:lib/chibios/os/rt/src/chthreads.c ****  *
 557:lib/chibios/os/rt/src/chthreads.c ****  * @api
 558:lib/chibios/os/rt/src/chthreads.c ****  */
 559:lib/chibios/os/rt/src/chthreads.c **** msg_t chThdWait(thread_t *tp) {
 1169              		.loc 1 559 31 is_stmt 1 view -0
 1170              		.cfi_startproc
 1171              		@ args = 0, pretend = 0, frame = 0
 1172              		@ frame_needed = 0, uses_anonymous_args = 0
 560:lib/chibios/os/rt/src/chthreads.c ****   msg_t msg;
 1173              		.loc 1 560 3 view .LVU328
 561:lib/chibios/os/rt/src/chthreads.c **** 
 562:lib/chibios/os/rt/src/chthreads.c ****   chDbgCheck(tp != NULL);
 1174              		.loc 1 562 3 view .LVU329
 1175              		.loc 1 562 3 view .LVU330
 563:lib/chibios/os/rt/src/chthreads.c **** 
 564:lib/chibios/os/rt/src/chthreads.c ****   chSysLock();
 1176              		.loc 1 564 3 view .LVU331
 1177              	.LBB378:
 1178              	.LBI378:
 353:./lib/chibios/os/rt/include/chsys.h **** 
 1179              		.loc 3 353 20 view .LVU332
 1180              	.LBE378:
 355:./lib/chibios/os/rt/include/chsys.h ****   _stats_start_measure_crit_thd();
 1181              		.loc 3 355 3 view .LVU333
 1182              	.LBB386:
 1183              	.LBB379:
 1184              	.LBI379:
 387:./lib/chibios/os/common/ports/ARMCMx/chcore_v6m.h **** 
 1185              		.loc 4 387 20 view .LVU334
 1186              	.LBE379:
 1187              	.LBE386:
 389:./lib/chibios/os/common/ports/ARMCMx/chcore_v6m.h **** }
 1188              		.loc 4 389 3 view .LVU335
 1189              	.LBB387:
 1190              	.LBB384:
 1191              	.LBB380:
 1192              	.LBI380:
 140:./lib/chibios/os/common/ext/ARM/CMSIS/Core/Include/cmsis_gcc.h **** {
 1193              		.loc 5 140 27 view .LVU336
 1194              	.LBB381:
 1195              		.loc 5 142 3 view .LVU337
 1196              	.LBE381:
 1197              	.LBE380:
 1198              	.LBE384:
 1199              	.LBE387:
 559:lib/chibios/os/rt/src/chthreads.c ****   msg_t msg;
 1200              		.loc 1 559 31 is_stmt 0 view .LVU338
 1201 0000 70B5     		push	{r4, r5, r6, lr}
 1202              		.cfi_def_cfa_offset 16
 1203              		.cfi_offset 4, -16
 1204              		.cfi_offset 5, -12
 1205              		.cfi_offset 6, -8
 1206              		.cfi_offset 14, -4
 559:lib/chibios/os/rt/src/chthreads.c ****   msg_t msg;
 1207              		.loc 1 559 31 view .LVU339
 1208 0002 0400     		movs	r4, r0
 1209              	.LBB388:
 1210              	.LBB385:
 1211              	.LBB383:
 1212              	.LBB382:
 1213              		.loc 5 142 3 view .LVU340
 1214              		.syntax divided
 1215              	@ 142 "./lib/chibios/os/common/ext/ARM/CMSIS/Core/Include/cmsis_gcc.h" 1
 1216 0004 72B6     		cpsid i
 1217              	@ 0 "" 2
 1218              		.thumb
 1219              		.syntax unified
 1220              	.LBE382:
 1221              	.LBE383:
 1222              	.LBE385:
 1223              	.LBE388:
 356:./lib/chibios/os/rt/include/chsys.h ****   _dbg_check_lock();
 1224              		.loc 3 356 34 is_stmt 1 view .LVU341
 357:./lib/chibios/os/rt/include/chsys.h **** }
 1225              		.loc 3 357 20 view .LVU342
 565:lib/chibios/os/rt/src/chthreads.c ****   chDbgAssert(tp != currp, "waiting self");
 1226              		.loc 1 565 3 view .LVU343
 1227              		.loc 1 565 3 view .LVU344
 566:lib/chibios/os/rt/src/chthreads.c **** #if CH_CFG_USE_REGISTRY == TRUE
 567:lib/chibios/os/rt/src/chthreads.c ****   chDbgAssert(tp->refs > (trefs_t)0, "no references");
 1228              		.loc 1 567 3 view .LVU345
 1229              		.loc 1 567 3 view .LVU346
 568:lib/chibios/os/rt/src/chthreads.c **** #endif
 569:lib/chibios/os/rt/src/chthreads.c **** 
 570:lib/chibios/os/rt/src/chthreads.c ****   if (tp->state != CH_STATE_FINAL) {
 1230              		.loc 1 570 3 view .LVU347
 1231              		.loc 1 570 6 is_stmt 0 view .LVU348
 1232 0006 037F     		ldrb	r3, [r0, #28]
 1233 0008 0F2B     		cmp	r3, #15
 1234 000a 08D0     		beq	.L28
 571:lib/chibios/os/rt/src/chthreads.c ****     list_insert(currp, &tp->waiting);
 1235              		.loc 1 571 5 is_stmt 1 view .LVU349
 1236 000c 0100     		movs	r1, r0
 1237 000e 074B     		ldr	r3, .L32
 1238 0010 2431     		adds	r1, r1, #36
 1239 0012 9869     		ldr	r0, [r3, #24]
 1240              	.LVL53:
 1241              		.loc 1 571 5 is_stmt 0 view .LVU350
 1242 0014 FFF7FEFF 		bl	list_insert
 1243              	.LVL54:
 572:lib/chibios/os/rt/src/chthreads.c ****     chSchGoSleepS(CH_STATE_WTEXIT);
 1244              		.loc 1 572 5 is_stmt 1 view .LVU351
 1245 0018 0920     		movs	r0, #9
 1246 001a FFF7FEFF 		bl	chSchGoSleepS
 1247              	.LVL55:
 1248              	.L28:
 573:lib/chibios/os/rt/src/chthreads.c ****   }
 574:lib/chibios/os/rt/src/chthreads.c ****   msg = tp->u.exitcode;
 1249              		.loc 1 574 3 view .LVU352
 1250              		.loc 1 574 7 is_stmt 0 view .LVU353
 1251 001e 256A     		ldr	r5, [r4, #32]
 1252              	.LVL56:
 575:lib/chibios/os/rt/src/chthreads.c ****   chSysUnlock();
 1253              		.loc 1 575 3 is_stmt 1 view .LVU354
 1254              	.LBB389:
 1255              	.LBI389:
 365:./lib/chibios/os/rt/include/chsys.h **** 
 1256              		.loc 3 365 20 view .LVU355
 1257              	.LBB390:
 367:./lib/chibios/os/rt/include/chsys.h ****   _stats_stop_measure_crit_thd();
 1258              		.loc 3 367 22 view .LVU356
 368:./lib/chibios/os/rt/include/chsys.h **** 
 1259              		.loc 3 368 33 view .LVU357
 374:./lib/chibios/os/rt/include/chsys.h ****               (ch.rlist.current->prio >= ch.rlist.queue.next->prio),
 1260              		.loc 3 374 3 view .LVU358
 374:./lib/chibios/os/rt/include/chsys.h ****               (ch.rlist.current->prio >= ch.rlist.queue.next->prio),
 1261              		.loc 3 374 3 view .LVU359
 1262              		.loc 3 378 3 view .LVU360
 1263              	.LBB391:
 1264              	.LBI391:
 396:./lib/chibios/os/common/ports/ARMCMx/chcore_v6m.h **** 
 1265              		.loc 4 396 20 view .LVU361
 1266              	.LBE391:
 1267              	.LBE390:
 1268              	.LBE389:
 1269              		.loc 4 398 3 view .LVU362
 1270              	.LBB396:
 1271              	.LBB395:
 1272              	.LBB394:
 1273              	.LBB392:
 1274              	.LBI392:
 129:./lib/chibios/os/common/ext/ARM/CMSIS/Core/Include/cmsis_gcc.h **** {
 1275              		.loc 5 129 27 view .LVU363
 1276              	.LBB393:
 131:./lib/chibios/os/common/ext/ARM/CMSIS/Core/Include/cmsis_gcc.h **** }
 1277              		.loc 5 131 3 view .LVU364
 1278              		.syntax divided
 1279              	@ 131 "./lib/chibios/os/common/ext/ARM/CMSIS/Core/Include/cmsis_gcc.h" 1
 1280 0020 62B6     		cpsie i
 1281              	@ 0 "" 2
 1282              		.thumb
 1283              		.syntax unified
 1284              	.LBE393:
 1285              	.LBE392:
 1286              	.LBE394:
 1287              	.LBE395:
 1288              	.LBE396:
 576:lib/chibios/os/rt/src/chthreads.c **** 
 577:lib/chibios/os/rt/src/chthreads.c **** #if CH_CFG_USE_REGISTRY == TRUE
 578:lib/chibios/os/rt/src/chthreads.c ****   /* Releasing a reference to the thread.*/
 579:lib/chibios/os/rt/src/chthreads.c ****   chThdRelease(tp);
 1289              		.loc 1 579 3 view .LVU365
 1290 0022 2000     		movs	r0, r4
 1291 0024 FFF7FEFF 		bl	chThdRelease
 1292              	.LVL57:
 580:lib/chibios/os/rt/src/chthreads.c **** #endif
 581:lib/chibios/os/rt/src/chthreads.c **** 
 582:lib/chibios/os/rt/src/chthreads.c ****   return msg;
 1293              		.loc 1 582 3 view .LVU366
 583:lib/chibios/os/rt/src/chthreads.c **** }
 1294              		.loc 1 583 1 is_stmt 0 view .LVU367
 1295              		@ sp needed
 1296 0028 2800     		movs	r0, r5
 1297              	.LVL58:
 1298              	.LVL59:
 1299              		.loc 1 583 1 view .LVU368
 1300 002a 70BD     		pop	{r4, r5, r6, pc}
 1301              	.L33:
 1302              		.align	2
 1303              	.L32:
 1304 002c 00000000 		.word	ch
 1305              		.cfi_endproc
 1306              	.LFE165:
 1308              		.section	.text.chThdSetPriority,"ax",%progbits
 1309              		.align	1
 1310              		.global	chThdSetPriority
 1311              		.syntax unified
 1312              		.code	16
 1313              		.thumb_func
 1314              		.fpu softvfp
 1316              	chThdSetPriority:
 1317              	.LVL60:
 1318              	.LFB166:
 584:lib/chibios/os/rt/src/chthreads.c **** #endif /* CH_CFG_USE_WAITEXIT */
 585:lib/chibios/os/rt/src/chthreads.c **** 
 586:lib/chibios/os/rt/src/chthreads.c **** /**
 587:lib/chibios/os/rt/src/chthreads.c ****  * @brief   Changes the running thread priority level then reschedules if
 588:lib/chibios/os/rt/src/chthreads.c ****  *          necessary.
 589:lib/chibios/os/rt/src/chthreads.c ****  * @note    The function returns the real thread priority regardless of the
 590:lib/chibios/os/rt/src/chthreads.c ****  *          current priority that could be higher than the real priority
 591:lib/chibios/os/rt/src/chthreads.c ****  *          because the priority inheritance mechanism.
 592:lib/chibios/os/rt/src/chthreads.c ****  *
 593:lib/chibios/os/rt/src/chthreads.c ****  * @param[in] newprio   the new priority level of the running thread
 594:lib/chibios/os/rt/src/chthreads.c ****  * @return              The old priority level.
 595:lib/chibios/os/rt/src/chthreads.c ****  *
 596:lib/chibios/os/rt/src/chthreads.c ****  * @api
 597:lib/chibios/os/rt/src/chthreads.c ****  */
 598:lib/chibios/os/rt/src/chthreads.c **** tprio_t chThdSetPriority(tprio_t newprio) {
 1319              		.loc 1 598 43 is_stmt 1 view -0
 1320              		.cfi_startproc
 1321              		@ args = 0, pretend = 0, frame = 0
 1322              		@ frame_needed = 0, uses_anonymous_args = 0
 599:lib/chibios/os/rt/src/chthreads.c ****   tprio_t oldprio;
 1323              		.loc 1 599 3 view .LVU370
 600:lib/chibios/os/rt/src/chthreads.c **** 
 601:lib/chibios/os/rt/src/chthreads.c ****   chDbgCheck(newprio <= HIGHPRIO);
 1324              		.loc 1 601 3 view .LVU371
 1325              		.loc 1 601 3 view .LVU372
 602:lib/chibios/os/rt/src/chthreads.c **** 
 603:lib/chibios/os/rt/src/chthreads.c ****   chSysLock();
 1326              		.loc 1 603 3 view .LVU373
 1327              	.LBB397:
 1328              	.LBI397:
 353:./lib/chibios/os/rt/include/chsys.h **** 
 1329              		.loc 3 353 20 view .LVU374
 1330              	.LBE397:
 355:./lib/chibios/os/rt/include/chsys.h ****   _stats_start_measure_crit_thd();
 1331              		.loc 3 355 3 view .LVU375
 1332              	.LBB405:
 1333              	.LBB398:
 1334              	.LBI398:
 387:./lib/chibios/os/common/ports/ARMCMx/chcore_v6m.h **** 
 1335              		.loc 4 387 20 view .LVU376
 1336              	.LBE398:
 1337              	.LBE405:
 389:./lib/chibios/os/common/ports/ARMCMx/chcore_v6m.h **** }
 1338              		.loc 4 389 3 view .LVU377
 1339              	.LBB406:
 1340              	.LBB403:
 1341              	.LBB399:
 1342              	.LBI399:
 140:./lib/chibios/os/common/ext/ARM/CMSIS/Core/Include/cmsis_gcc.h **** {
 1343              		.loc 5 140 27 view .LVU378
 1344              	.LBB400:
 1345              		.loc 5 142 3 view .LVU379
 1346              	.LBE400:
 1347              	.LBE399:
 1348              	.LBE403:
 1349              	.LBE406:
 598:lib/chibios/os/rt/src/chthreads.c ****   tprio_t oldprio;
 1350              		.loc 1 598 43 is_stmt 0 view .LVU380
 1351 0000 10B5     		push	{r4, lr}
 1352              		.cfi_def_cfa_offset 8
 1353              		.cfi_offset 4, -8
 1354              		.cfi_offset 14, -4
 1355              	.LBB407:
 1356              	.LBB404:
 1357              	.LBB402:
 1358              	.LBB401:
 1359              		.loc 5 142 3 view .LVU381
 1360              		.syntax divided
 1361              	@ 142 "./lib/chibios/os/common/ext/ARM/CMSIS/Core/Include/cmsis_gcc.h" 1
 1362 0002 72B6     		cpsid i
 1363              	@ 0 "" 2
 1364              		.thumb
 1365              		.syntax unified
 1366              	.LBE401:
 1367              	.LBE402:
 1368              	.LBE404:
 1369              	.LBE407:
 356:./lib/chibios/os/rt/include/chsys.h ****   _dbg_check_lock();
 1370              		.loc 3 356 34 is_stmt 1 view .LVU382
 357:./lib/chibios/os/rt/include/chsys.h **** }
 1371              		.loc 3 357 20 view .LVU383
 604:lib/chibios/os/rt/src/chthreads.c **** #if CH_CFG_USE_MUTEXES == TRUE
 605:lib/chibios/os/rt/src/chthreads.c ****   oldprio = currp->realprio;
 1372              		.loc 1 605 3 view .LVU384
 1373              		.loc 1 605 13 is_stmt 0 view .LVU385
 1374 0004 074B     		ldr	r3, .L37
 1375 0006 9B69     		ldr	r3, [r3, #24]
 1376              		.loc 1 605 11 view .LVU386
 1377 0008 9C6B     		ldr	r4, [r3, #56]
 1378              	.LVL61:
 606:lib/chibios/os/rt/src/chthreads.c ****   if ((currp->prio == currp->realprio) || (newprio > currp->prio)) {
 1379              		.loc 1 606 3 is_stmt 1 view .LVU387
 1380              		.loc 1 606 13 is_stmt 0 view .LVU388
 1381 000a 9A68     		ldr	r2, [r3, #8]
 1382              		.loc 1 606 6 view .LVU389
 1383 000c A242     		cmp	r2, r4
 1384 000e 01D0     		beq	.L35
 1385              		.loc 1 606 40 discriminator 1 view .LVU390
 1386 0010 8242     		cmp	r2, r0
 1387 0012 00D2     		bcs	.L36
 1388              	.L35:
 607:lib/chibios/os/rt/src/chthreads.c ****     currp->prio = newprio;
 1389              		.loc 1 607 5 is_stmt 1 view .LVU391
 1390              		.loc 1 607 17 is_stmt 0 view .LVU392
 1391 0014 9860     		str	r0, [r3, #8]
 1392              	.L36:
 608:lib/chibios/os/rt/src/chthreads.c ****   }
 609:lib/chibios/os/rt/src/chthreads.c ****   currp->realprio = newprio;
 1393              		.loc 1 609 3 is_stmt 1 view .LVU393
 1394              		.loc 1 609 19 is_stmt 0 view .LVU394
 1395 0016 9863     		str	r0, [r3, #56]
 610:lib/chibios/os/rt/src/chthreads.c **** #else
 611:lib/chibios/os/rt/src/chthreads.c ****   oldprio = currp->prio;
 612:lib/chibios/os/rt/src/chthreads.c ****   currp->prio = newprio;
 613:lib/chibios/os/rt/src/chthreads.c **** #endif
 614:lib/chibios/os/rt/src/chthreads.c ****   chSchRescheduleS();
 1396              		.loc 1 614 3 is_stmt 1 view .LVU395
 1397 0018 FFF7FEFF 		bl	chSchRescheduleS
 1398              	.LVL62:
 615:lib/chibios/os/rt/src/chthreads.c ****   chSysUnlock();
 1399              		.loc 1 615 3 view .LVU396
 1400              	.LBB408:
 1401              	.LBI408:
 365:./lib/chibios/os/rt/include/chsys.h **** 
 1402              		.loc 3 365 20 view .LVU397
 1403              	.LBB409:
 367:./lib/chibios/os/rt/include/chsys.h ****   _stats_stop_measure_crit_thd();
 1404              		.loc 3 367 22 view .LVU398
 368:./lib/chibios/os/rt/include/chsys.h **** 
 1405              		.loc 3 368 33 view .LVU399
 374:./lib/chibios/os/rt/include/chsys.h ****               (ch.rlist.current->prio >= ch.rlist.queue.next->prio),
 1406              		.loc 3 374 3 view .LVU400
 374:./lib/chibios/os/rt/include/chsys.h ****               (ch.rlist.current->prio >= ch.rlist.queue.next->prio),
 1407              		.loc 3 374 3 view .LVU401
 1408              		.loc 3 378 3 view .LVU402
 1409              	.LBB410:
 1410              	.LBI410:
 396:./lib/chibios/os/common/ports/ARMCMx/chcore_v6m.h **** 
 1411              		.loc 4 396 20 view .LVU403
 1412              	.LBE410:
 1413              	.LBE409:
 1414              	.LBE408:
 1415              		.loc 4 398 3 view .LVU404
 1416              	.LBB415:
 1417              	.LBB414:
 1418              	.LBB413:
 1419              	.LBB411:
 1420              	.LBI411:
 129:./lib/chibios/os/common/ext/ARM/CMSIS/Core/Include/cmsis_gcc.h **** {
 1421              		.loc 5 129 27 view .LVU405
 1422              	.LBB412:
 131:./lib/chibios/os/common/ext/ARM/CMSIS/Core/Include/cmsis_gcc.h **** }
 1423              		.loc 5 131 3 view .LVU406
 1424              		.syntax divided
 1425              	@ 131 "./lib/chibios/os/common/ext/ARM/CMSIS/Core/Include/cmsis_gcc.h" 1
 1426 001c 62B6     		cpsie i
 1427              	@ 0 "" 2
 1428              		.thumb
 1429              		.syntax unified
 1430              	.LBE412:
 1431              	.LBE411:
 1432              	.LBE413:
 1433              	.LBE414:
 1434              	.LBE415:
 616:lib/chibios/os/rt/src/chthreads.c **** 
 617:lib/chibios/os/rt/src/chthreads.c ****   return oldprio;
 1435              		.loc 1 617 3 view .LVU407
 618:lib/chibios/os/rt/src/chthreads.c **** }
 1436              		.loc 1 618 1 is_stmt 0 view .LVU408
 1437 001e 2000     		movs	r0, r4
 1438              		@ sp needed
 1439              	.LVL63:
 1440              		.loc 1 618 1 view .LVU409
 1441 0020 10BD     		pop	{r4, pc}
 1442              	.L38:
 1443 0022 C046     		.align	2
 1444              	.L37:
 1445 0024 00000000 		.word	ch
 1446              		.cfi_endproc
 1447              	.LFE166:
 1449              		.section	.text.chThdTerminate,"ax",%progbits
 1450              		.align	1
 1451              		.global	chThdTerminate
 1452              		.syntax unified
 1453              		.code	16
 1454              		.thumb_func
 1455              		.fpu softvfp
 1457              	chThdTerminate:
 1458              	.LVL64:
 1459              	.LFB167:
 619:lib/chibios/os/rt/src/chthreads.c **** 
 620:lib/chibios/os/rt/src/chthreads.c **** /**
 621:lib/chibios/os/rt/src/chthreads.c ****  * @brief   Requests a thread termination.
 622:lib/chibios/os/rt/src/chthreads.c ****  * @pre     The target thread must be written to invoke periodically
 623:lib/chibios/os/rt/src/chthreads.c ****  *          @p chThdShouldTerminate() and terminate cleanly if it returns
 624:lib/chibios/os/rt/src/chthreads.c ****  *          @p true.
 625:lib/chibios/os/rt/src/chthreads.c ****  * @post    The specified thread will terminate after detecting the termination
 626:lib/chibios/os/rt/src/chthreads.c ****  *          condition.
 627:lib/chibios/os/rt/src/chthreads.c ****  *
 628:lib/chibios/os/rt/src/chthreads.c ****  * @param[in] tp        pointer to the thread
 629:lib/chibios/os/rt/src/chthreads.c ****  *
 630:lib/chibios/os/rt/src/chthreads.c ****  * @api
 631:lib/chibios/os/rt/src/chthreads.c ****  */
 632:lib/chibios/os/rt/src/chthreads.c **** void chThdTerminate(thread_t *tp) {
 1460              		.loc 1 632 35 is_stmt 1 view -0
 1461              		.cfi_startproc
 1462              		@ args = 0, pretend = 0, frame = 0
 1463              		@ frame_needed = 0, uses_anonymous_args = 0
 1464              		@ link register save eliminated.
 633:lib/chibios/os/rt/src/chthreads.c **** 
 634:lib/chibios/os/rt/src/chthreads.c ****   chSysLock();
 1465              		.loc 1 634 3 view .LVU411
 1466              	.LBB416:
 1467              	.LBI416:
 353:./lib/chibios/os/rt/include/chsys.h **** 
 1468              		.loc 3 353 20 view .LVU412
 1469              	.LBE416:
 355:./lib/chibios/os/rt/include/chsys.h ****   _stats_start_measure_crit_thd();
 1470              		.loc 3 355 3 view .LVU413
 1471              	.LBB421:
 1472              	.LBB417:
 1473              	.LBI417:
 387:./lib/chibios/os/common/ports/ARMCMx/chcore_v6m.h **** 
 1474              		.loc 4 387 20 view .LVU414
 1475              	.LBE417:
 1476              	.LBE421:
 389:./lib/chibios/os/common/ports/ARMCMx/chcore_v6m.h **** }
 1477              		.loc 4 389 3 view .LVU415
 1478              	.LBB422:
 1479              	.LBB420:
 1480              	.LBB418:
 1481              	.LBI418:
 140:./lib/chibios/os/common/ext/ARM/CMSIS/Core/Include/cmsis_gcc.h **** {
 1482              		.loc 5 140 27 view .LVU416
 1483              	.LBB419:
 1484              		.loc 5 142 3 view .LVU417
 1485              		.syntax divided
 1486              	@ 142 "./lib/chibios/os/common/ext/ARM/CMSIS/Core/Include/cmsis_gcc.h" 1
 1487 0000 72B6     		cpsid i
 1488              	@ 0 "" 2
 1489              		.thumb
 1490              		.syntax unified
 1491              	.LBE419:
 1492              	.LBE418:
 1493              	.LBE420:
 1494              	.LBE422:
 356:./lib/chibios/os/rt/include/chsys.h ****   _dbg_check_lock();
 1495              		.loc 3 356 34 view .LVU418
 357:./lib/chibios/os/rt/include/chsys.h **** }
 1496              		.loc 3 357 20 view .LVU419
 635:lib/chibios/os/rt/src/chthreads.c ****   tp->flags |= CH_FLAG_TERMINATE;
 1497              		.loc 1 635 3 view .LVU420
 1498              		.loc 1 635 13 is_stmt 0 view .LVU421
 1499 0002 0423     		movs	r3, #4
 1500 0004 427F     		ldrb	r2, [r0, #29]
 1501 0006 1343     		orrs	r3, r2
 1502 0008 4377     		strb	r3, [r0, #29]
 636:lib/chibios/os/rt/src/chthreads.c ****   chSysUnlock();
 1503              		.loc 1 636 3 is_stmt 1 view .LVU422
 1504              	.LBB423:
 1505              	.LBI423:
 365:./lib/chibios/os/rt/include/chsys.h **** 
 1506              		.loc 3 365 20 view .LVU423
 1507              	.LBB424:
 367:./lib/chibios/os/rt/include/chsys.h ****   _stats_stop_measure_crit_thd();
 1508              		.loc 3 367 22 view .LVU424
 368:./lib/chibios/os/rt/include/chsys.h **** 
 1509              		.loc 3 368 33 view .LVU425
 374:./lib/chibios/os/rt/include/chsys.h ****               (ch.rlist.current->prio >= ch.rlist.queue.next->prio),
 1510              		.loc 3 374 3 view .LVU426
 374:./lib/chibios/os/rt/include/chsys.h ****               (ch.rlist.current->prio >= ch.rlist.queue.next->prio),
 1511              		.loc 3 374 3 view .LVU427
 1512              		.loc 3 378 3 view .LVU428
 1513              	.LBB425:
 1514              	.LBI425:
 396:./lib/chibios/os/common/ports/ARMCMx/chcore_v6m.h **** 
 1515              		.loc 4 396 20 view .LVU429
 1516              	.LBE425:
 1517              	.LBE424:
 1518              	.LBE423:
 1519              		.loc 4 398 3 view .LVU430
 1520              	.LBB430:
 1521              	.LBB429:
 1522              	.LBB428:
 1523              	.LBB426:
 1524              	.LBI426:
 129:./lib/chibios/os/common/ext/ARM/CMSIS/Core/Include/cmsis_gcc.h **** {
 1525              		.loc 5 129 27 view .LVU431
 1526              	.LBB427:
 131:./lib/chibios/os/common/ext/ARM/CMSIS/Core/Include/cmsis_gcc.h **** }
 1527              		.loc 5 131 3 view .LVU432
 1528              		.syntax divided
 1529              	@ 131 "./lib/chibios/os/common/ext/ARM/CMSIS/Core/Include/cmsis_gcc.h" 1
 1530 000a 62B6     		cpsie i
 1531              	@ 0 "" 2
 1532              		.thumb
 1533              		.syntax unified
 1534              	.LBE427:
 1535              	.LBE426:
 1536              	.LBE428:
 1537              	.LBE429:
 1538              	.LBE430:
 637:lib/chibios/os/rt/src/chthreads.c **** }
 1539              		.loc 1 637 1 is_stmt 0 view .LVU433
 1540              		@ sp needed
 1541 000c 7047     		bx	lr
 1542              		.cfi_endproc
 1543              	.LFE167:
 1545              		.section	.text.chThdSleep,"ax",%progbits
 1546              		.align	1
 1547              		.global	chThdSleep
 1548              		.syntax unified
 1549              		.code	16
 1550              		.thumb_func
 1551              		.fpu softvfp
 1553              	chThdSleep:
 1554              	.LVL65:
 1555              	.LFB168:
 638:lib/chibios/os/rt/src/chthreads.c **** 
 639:lib/chibios/os/rt/src/chthreads.c **** /**
 640:lib/chibios/os/rt/src/chthreads.c ****  * @brief   Suspends the invoking thread for the specified time.
 641:lib/chibios/os/rt/src/chthreads.c ****  *
 642:lib/chibios/os/rt/src/chthreads.c ****  * @param[in] time      the delay in system ticks, the special values are
 643:lib/chibios/os/rt/src/chthreads.c ****  *                      handled as follow:
 644:lib/chibios/os/rt/src/chthreads.c ****  *                      - @a TIME_INFINITE the thread enters an infinite sleep
 645:lib/chibios/os/rt/src/chthreads.c ****  *                        state.
 646:lib/chibios/os/rt/src/chthreads.c ****  *                      - @a TIME_IMMEDIATE this value is not allowed.
 647:lib/chibios/os/rt/src/chthreads.c ****  *                      .
 648:lib/chibios/os/rt/src/chthreads.c ****  *
 649:lib/chibios/os/rt/src/chthreads.c ****  * @api
 650:lib/chibios/os/rt/src/chthreads.c ****  */
 651:lib/chibios/os/rt/src/chthreads.c **** void chThdSleep(sysinterval_t time) {
 1556              		.loc 1 651 37 is_stmt 1 view -0
 1557              		.cfi_startproc
 1558              		@ args = 0, pretend = 0, frame = 0
 1559              		@ frame_needed = 0, uses_anonymous_args = 0
 652:lib/chibios/os/rt/src/chthreads.c **** 
 653:lib/chibios/os/rt/src/chthreads.c ****   chSysLock();
 1560              		.loc 1 653 3 view .LVU435
 1561              	.LBB442:
 1562              	.LBI442:
 353:./lib/chibios/os/rt/include/chsys.h **** 
 1563              		.loc 3 353 20 view .LVU436
 1564              	.LBE442:
 355:./lib/chibios/os/rt/include/chsys.h ****   _stats_start_measure_crit_thd();
 1565              		.loc 3 355 3 view .LVU437
 1566              	.LBB450:
 1567              	.LBB443:
 1568              	.LBI443:
 387:./lib/chibios/os/common/ports/ARMCMx/chcore_v6m.h **** 
 1569              		.loc 4 387 20 view .LVU438
 1570              	.LBE443:
 1571              	.LBE450:
 389:./lib/chibios/os/common/ports/ARMCMx/chcore_v6m.h **** }
 1572              		.loc 4 389 3 view .LVU439
 1573              	.LBB451:
 1574              	.LBB448:
 1575              	.LBB444:
 1576              	.LBI444:
 140:./lib/chibios/os/common/ext/ARM/CMSIS/Core/Include/cmsis_gcc.h **** {
