Archive member included to satisfy reference by file (symbol)

c:/msys64/home/kyleo/qmk_utils/avr8-gnu-toolchain/bin/../lib/gcc/avr/8.3.0/avr5\libgcc.a(_divmodqi4.o)
                              .build/obj_lily58_rev1_default/quantum/rgblight.o (__divmodqi4)
c:/msys64/home/kyleo/qmk_utils/avr8-gnu-toolchain/bin/../lib/gcc/avr/8.3.0/avr5\libgcc.a(_udivmodhi4.o)
                              .build/obj_lily58_rev1_default/quantum/color.o (__udivmodhi4)
c:/msys64/home/kyleo/qmk_utils/avr8-gnu-toolchain/bin/../lib/gcc/avr/8.3.0/avr5\libgcc.a(_divmodhi4.o)
                              .build/obj_lily58_rev1_default/ssd1306.o (__divmodhi4)
c:/msys64/home/kyleo/qmk_utils/avr8-gnu-toolchain/bin/../lib/gcc/avr/8.3.0/avr5\libgcc.a(_exit.o)
                              c:/msys64/home/kyleo/qmk_utils/avr8-gnu-toolchain/bin/../lib/gcc/avr/8.3.0/../../../../avr/lib/avr5/crtatmega32u4.o (exit)
c:/msys64/home/kyleo/qmk_utils/avr8-gnu-toolchain/bin/../lib/gcc/avr/8.3.0/avr5\libgcc.a(_tablejump2.o)
                              .build/obj_lily58_rev1_default/quantum/process_keycode/process_rgb.o (__tablejump2__)
c:/msys64/home/kyleo/qmk_utils/avr8-gnu-toolchain/bin/../lib/gcc/avr/8.3.0/avr5\libgcc.a(_copy_data.o)
                              .build/obj_lily58_rev1_default/ssd1306.o (__do_copy_data)
c:/msys64/home/kyleo/qmk_utils/avr8-gnu-toolchain/bin/../lib/gcc/avr/8.3.0/avr5\libgcc.a(_clear_bss.o)
                              .build/obj_lily58_rev1_default/i2c.o (__do_clear_bss)
c:/msys64/home/kyleo/qmk_utils/avr8-gnu-toolchain/bin/../lib/gcc/avr/8.3.0/avr5\libgcc.a(_udivmodqi4.o)
                              c:/msys64/home/kyleo/qmk_utils/avr8-gnu-toolchain/bin/../lib/gcc/avr/8.3.0/avr5\libgcc.a(_divmodqi4.o) (__udivmodqi4)
c:/msys64/home/kyleo/qmk_utils/avr8-gnu-toolchain/bin/../lib/gcc/avr/8.3.0/../../../../avr/lib/avr5\libc.a(memchr.o)
                              .build/obj_lily58_rev1_default/quantum/rgblight.o (memchr)
c:/msys64/home/kyleo/qmk_utils/avr8-gnu-toolchain/bin/../lib/gcc/avr/8.3.0/../../../../avr/lib/avr5\libc.a(memcmp.o)
                              .build/obj_lily58_rev1_default/rev1/matrix.o (memcmp)
c:/msys64/home/kyleo/qmk_utils/avr8-gnu-toolchain/bin/../lib/gcc/avr/8.3.0/../../../../avr/lib/avr5\libc.a(memmove.o)
                              .build/obj_lily58_rev1_default/ssd1306.o (memmove)
c:/msys64/home/kyleo/qmk_utils/avr8-gnu-toolchain/bin/../lib/gcc/avr/8.3.0/../../../../avr/lib/avr5\libc.a(memset.o)
                              .build/obj_lily58_rev1_default/ssd1306.o (memset)
c:/msys64/home/kyleo/qmk_utils/avr8-gnu-toolchain/bin/../lib/gcc/avr/8.3.0/../../../../avr/lib/avr5\libc.a(strcpy.o)
                              .build/obj_lily58_rev1_default/./lib/layer_state_reader.o (strcpy)
c:/msys64/home/kyleo/qmk_utils/avr8-gnu-toolchain/bin/../lib/gcc/avr/8.3.0/../../../../avr/lib/avr5\libc.a(snprintf.o)
                              .build/obj_lily58_rev1_default/ssd1306.o (snprintf)
c:/msys64/home/kyleo/qmk_utils/avr8-gnu-toolchain/bin/../lib/gcc/avr/8.3.0/../../../../avr/lib/avr5\libc.a(vfprintf_std.o)
                              c:/msys64/home/kyleo/qmk_utils/avr8-gnu-toolchain/bin/../lib/gcc/avr/8.3.0/../../../../avr/lib/avr5\libc.a(snprintf.o) (vfprintf)
c:/msys64/home/kyleo/qmk_utils/avr8-gnu-toolchain/bin/../lib/gcc/avr/8.3.0/../../../../avr/lib/avr5\libc.a(strnlen_P.o)
                              c:/msys64/home/kyleo/qmk_utils/avr8-gnu-toolchain/bin/../lib/gcc/avr/8.3.0/../../../../avr/lib/avr5\libc.a(vfprintf_std.o) (strnlen_P)
c:/msys64/home/kyleo/qmk_utils/avr8-gnu-toolchain/bin/../lib/gcc/avr/8.3.0/../../../../avr/lib/avr5\libc.a(memcpy.o)
                              c:/msys64/home/kyleo/qmk_utils/avr8-gnu-toolchain/bin/../lib/gcc/avr/8.3.0/../../../../avr/lib/avr5\libc.a(memmove.o) (memcpy)
c:/msys64/home/kyleo/qmk_utils/avr8-gnu-toolchain/bin/../lib/gcc/avr/8.3.0/../../../../avr/lib/avr5\libc.a(strnlen.o)
                              c:/msys64/home/kyleo/qmk_utils/avr8-gnu-toolchain/bin/../lib/gcc/avr/8.3.0/../../../../avr/lib/avr5\libc.a(vfprintf_std.o) (strnlen)
c:/msys64/home/kyleo/qmk_utils/avr8-gnu-toolchain/bin/../lib/gcc/avr/8.3.0/../../../../avr/lib/avr5\libc.a(fputc.o)
                              c:/msys64/home/kyleo/qmk_utils/avr8-gnu-toolchain/bin/../lib/gcc/avr/8.3.0/../../../../avr/lib/avr5\libc.a(vfprintf_std.o) (fputc)
c:/msys64/home/kyleo/qmk_utils/avr8-gnu-toolchain/bin/../lib/gcc/avr/8.3.0/../../../../avr/lib/avr5\libc.a(ultoa_invert.o)
                              c:/msys64/home/kyleo/qmk_utils/avr8-gnu-toolchain/bin/../lib/gcc/avr/8.3.0/../../../../avr/lib/avr5\libc.a(vfprintf_std.o) (__ultoa_invert)
c:/msys64/home/kyleo/qmk_utils/avr8-gnu-toolchain/bin/../lib/gcc/avr/8.3.0/../../../../avr/lib/avr5\libatmega32u4.a(eerd_byte.o)
                              .build/obj_lily58_rev1_default/common/eeconfig.o (eeprom_read_byte)
c:/msys64/home/kyleo/qmk_utils/avr8-gnu-toolchain/bin/../lib/gcc/avr/8.3.0/../../../../avr/lib/avr5\libatmega32u4.a(eerd_dword.o)
                              .build/obj_lily58_rev1_default/quantum/rgblight.o (eeprom_read_dword)
c:/msys64/home/kyleo/qmk_utils/avr8-gnu-toolchain/bin/../lib/gcc/avr/8.3.0/../../../../avr/lib/avr5\libatmega32u4.a(eerd_word.o)
                              .build/obj_lily58_rev1_default/common/eeconfig.o (eeprom_read_word)
c:/msys64/home/kyleo/qmk_utils/avr8-gnu-toolchain/bin/../lib/gcc/avr/8.3.0/../../../../avr/lib/avr5\libatmega32u4.a(eeupd_byte.o)
                              .build/obj_lily58_rev1_default/common/eeconfig.o (eeprom_update_byte)
c:/msys64/home/kyleo/qmk_utils/avr8-gnu-toolchain/bin/../lib/gcc/avr/8.3.0/../../../../avr/lib/avr5\libatmega32u4.a(eeupd_dword.o)
                              .build/obj_lily58_rev1_default/quantum/rgblight.o (eeprom_update_dword)
c:/msys64/home/kyleo/qmk_utils/avr8-gnu-toolchain/bin/../lib/gcc/avr/8.3.0/../../../../avr/lib/avr5\libatmega32u4.a(eeupd_word.o)
                              .build/obj_lily58_rev1_default/common/eeconfig.o (eeprom_update_word)
c:/msys64/home/kyleo/qmk_utils/avr8-gnu-toolchain/bin/../lib/gcc/avr/8.3.0/../../../../avr/lib/avr5\libatmega32u4.a(eerd_block.o)
                              c:/msys64/home/kyleo/qmk_utils/avr8-gnu-toolchain/bin/../lib/gcc/avr/8.3.0/../../../../avr/lib/avr5\libatmega32u4.a(eerd_dword.o) (eeprom_read_blraw)
c:/msys64/home/kyleo/qmk_utils/avr8-gnu-toolchain/bin/../lib/gcc/avr/8.3.0/avr5\libgcc.a(_prologue.o)
                              c:/msys64/home/kyleo/qmk_utils/avr8-gnu-toolchain/bin/../lib/gcc/avr/8.3.0/../../../../avr/lib/avr5\libc.a(snprintf.o) (__prologue_saves__)
c:/msys64/home/kyleo/qmk_utils/avr8-gnu-toolchain/bin/../lib/gcc/avr/8.3.0/avr5\libgcc.a(_epilogue.o)
                              c:/msys64/home/kyleo/qmk_utils/avr8-gnu-toolchain/bin/../lib/gcc/avr/8.3.0/../../../../avr/lib/avr5\libc.a(snprintf.o) (__epilogue_restores__)

Allocating common symbols
Common symbol       size              file

rbf_info_str        0x18              .build/obj_lily58_rev1_default/./lib/rgb_state_reader.o
RGB_current_mode    0x2               .build/obj_lily58_rev1_default/keyboards/lily58/keymaps/default/keymap.o
rgblight_config     0x5               .build/obj_lily58_rev1_default/quantum/rgblight.o
USB_IsInitialized   0x1               .build/obj_lily58_rev1_default/lib/lufa/LUFA/Drivers/USB/Core/USBTask.o
keymap_config       0x2               .build/obj_lily58_rev1_default/common/magic.o
USB_DeviceState     0x1               .build/obj_lily58_rev1_default/lib/lufa/LUFA/Drivers/USB/Core/USBTask.o
display             0x57              .build/obj_lily58_rev1_default/ssd1306.o
i2c_slave_buffer    0x10              .build/obj_lily58_rev1_default/i2c.o
layer_state_str     0x18              .build/obj_lily58_rev1_default/./lib/layer_state_reader.o
USB_Device_ConfigurationNumber
                    0x1               .build/obj_lily58_rev1_default/lib/lufa/LUFA/Drivers/USB/Core/DeviceStandardReq.o
led                 0x51              .build/obj_lily58_rev1_default/quantum/rgblight.o
USB_Device_CurrentlySelfPowered
                    0x1               .build/obj_lily58_rev1_default/lib/lufa/LUFA/Drivers/USB/Core/DeviceStandardReq.o
USB_ControlRequest  0x8               .build/obj_lily58_rev1_default/lib/lufa/LUFA/Drivers/USB/Core/USBTask.o
tp_buttons          0x2               .build/obj_lily58_rev1_default/common/action.o
USB_Device_RemoteWakeupEnabled
                    0x1               .build/obj_lily58_rev1_default/lib/lufa/LUFA/Drivers/USB/Core/DeviceStandardReq.o
timer_count         0x4               .build/obj_lily58_rev1_default/common/avr/timer.o

Discarded input sections

 .data          0x00000000        0x0 c:/msys64/home/kyleo/qmk_utils/avr8-gnu-toolchain/bin/../lib/gcc/avr/8.3.0/../../../../avr/lib/avr5/crtatmega32u4.o
 .bss           0x00000000        0x0 c:/msys64/home/kyleo/qmk_utils/avr8-gnu-toolchain/bin/../lib/gcc/avr/8.3.0/../../../../avr/lib/avr5/crtatmega32u4.o
 .text          0x00000000        0x0 .build/obj_lily58_rev1_default/i2c.o
 .data          0x00000000        0x0 .build/obj_lily58_rev1_default/i2c.o
 .bss           0x00000000        0x0 .build/obj_lily58_rev1_default/i2c.o
 .text.i2c_master_read
                0x00000000       0x1a .build/obj_lily58_rev1_default/i2c.o
 .text.i2c_reset_state
                0x00000000        0x6 .build/obj_lily58_rev1_default/i2c.o
 .text.i2c_slave_init
                0x00000000        0xc .build/obj_lily58_rev1_default/i2c.o
 .text          0x00000000        0x0 .build/obj_lily58_rev1_default/serial.o
 .data          0x00000000        0x0 .build/obj_lily58_rev1_default/serial.o
 .bss           0x00000000        0x0 .build/obj_lily58_rev1_default/serial.o
 .text.soft_serial_get_and_clean_status
                0x00000000       0x28 .build/obj_lily58_rev1_default/serial.o
 .text          0x00000000        0x0 .build/obj_lily58_rev1_default/ssd1306.o
 .data          0x00000000        0x0 .build/obj_lily58_rev1_default/ssd1306.o
 .bss           0x00000000        0x0 .build/obj_lily58_rev1_default/ssd1306.o
 .text.iota_gfx_write_char
                0x00000000        0xa .build/obj_lily58_rev1_default/ssd1306.o
 .text.iota_gfx_write
                0x00000000        0xa .build/obj_lily58_rev1_default/ssd1306.o
 .text.matrix_write_P
                0x00000000       0x28 .build/obj_lily58_rev1_default/ssd1306.o
 .text.iota_gfx_write_P
                0x00000000        0xa .build/obj_lily58_rev1_default/ssd1306.o
 .text.iota_gfx_clear_screen
                0x00000000        0x8 .build/obj_lily58_rev1_default/ssd1306.o
 .text.iota_gfx_task_user
                0x00000000        0x2 .build/obj_lily58_rev1_default/ssd1306.o
 .text          0x00000000        0x0 .build/obj_lily58_rev1_default/rev1/matrix.o
 .data          0x00000000        0x0 .build/obj_lily58_rev1_default/rev1/matrix.o
 .bss           0x00000000        0x0 .build/obj_lily58_rev1_default/rev1/matrix.o
 .text.matrix_init_user
                0x00000000        0x2 .build/obj_lily58_rev1_default/rev1/matrix.o
 .text.matrix_scan_user
                0x00000000        0x2 .build/obj_lily58_rev1_default/rev1/matrix.o
 .text.matrix_rows
                0x00000000        0x4 .build/obj_lily58_rev1_default/rev1/matrix.o
 .text.matrix_cols
                0x00000000        0x4 .build/obj_lily58_rev1_default/rev1/matrix.o
 .text.matrix_is_modified
                0x00000000        0xc .build/obj_lily58_rev1_default/rev1/matrix.o
 .text.matrix_is_on
                0x00000000       0x28 .build/obj_lily58_rev1_default/rev1/matrix.o
 .text.matrix_key_count
                0x00000000       0x2c .build/obj_lily58_rev1_default/rev1/matrix.o
 .text          0x00000000        0x0 .build/obj_lily58_rev1_default/rev1/split_util.o
 .data          0x00000000        0x0 .build/obj_lily58_rev1_default/rev1/split_util.o
 .bss           0x00000000        0x0 .build/obj_lily58_rev1_default/rev1/split_util.o
 .text          0x00000000        0x0 .build/obj_lily58_rev1_default/rev1/split_scomm.o
 .data          0x00000000        0x0 .build/obj_lily58_rev1_default/rev1/split_scomm.o
 .bss           0x00000000        0x0 .build/obj_lily58_rev1_default/rev1/split_scomm.o
 .text          0x00000000        0x0 .build/obj_lily58_rev1_default/./lib/glcdfont.o
 .data          0x00000000        0x0 .build/obj_lily58_rev1_default/./lib/glcdfont.o
 .bss           0x00000000        0x0 .build/obj_lily58_rev1_default/./lib/glcdfont.o
 .text          0x00000000        0x0 .build/obj_lily58_rev1_default/./lib/rgb_state_reader.o
 .data          0x00000000        0x0 .build/obj_lily58_rev1_default/./lib/rgb_state_reader.o
 .bss           0x00000000        0x0 .build/obj_lily58_rev1_default/./lib/rgb_state_reader.o
 .rodata.read_rgb_info.str1.1
                0x00000000       0x1c .build/obj_lily58_rev1_default/./lib/rgb_state_reader.o
 .text.read_rgb_info
                0x00000000       0x66 .build/obj_lily58_rev1_default/./lib/rgb_state_reader.o
 .debug_info    0x00000000      0x7a1 .build/obj_lily58_rev1_default/./lib/rgb_state_reader.o
 .debug_abbrev  0x00000000      0x227 .build/obj_lily58_rev1_default/./lib/rgb_state_reader.o
 .debug_loc     0x00000000       0xf2 .build/obj_lily58_rev1_default/./lib/rgb_state_reader.o
 .debug_aranges
                0x00000000       0x20 .build/obj_lily58_rev1_default/./lib/rgb_state_reader.o
 .debug_ranges  0x00000000       0x10 .build/obj_lily58_rev1_default/./lib/rgb_state_reader.o
 .debug_line    0x00000000      0x223 .build/obj_lily58_rev1_default/./lib/rgb_state_reader.o
 .debug_str     0x00000000      0x57d .build/obj_lily58_rev1_default/./lib/rgb_state_reader.o
 .comment       0x00000000       0x12 .build/obj_lily58_rev1_default/./lib/rgb_state_reader.o
 .debug_frame   0x00000000       0x58 .build/obj_lily58_rev1_default/./lib/rgb_state_reader.o
 COMMON         0x00000000       0x18 .build/obj_lily58_rev1_default/./lib/rgb_state_reader.o
 .text          0x00000000        0x0 .build/obj_lily58_rev1_default/./lib/layer_state_reader.o
 .data          0x00000000        0x0 .build/obj_lily58_rev1_default/./lib/layer_state_reader.o
 .bss           0x00000000        0x0 .build/obj_lily58_rev1_default/./lib/layer_state_reader.o
 .text          0x00000000        0x0 .build/obj_lily58_rev1_default/./lib/logo_reader.o
 .data          0x00000000        0x0 .build/obj_lily58_rev1_default/./lib/logo_reader.o
 .bss           0x00000000        0x0 .build/obj_lily58_rev1_default/./lib/logo_reader.o
 .text          0x00000000        0x0 .build/obj_lily58_rev1_default/./lib/keylogger.o
 .data          0x00000000        0x0 .build/obj_lily58_rev1_default/./lib/keylogger.o
 .bss           0x00000000        0x0 .build/obj_lily58_rev1_default/./lib/keylogger.o
 .text          0x00000000        0x0 .build/obj_lily58_rev1_default/keyboards/lily58/lily58.o
 .data          0x00000000        0x0 .build/obj_lily58_rev1_default/keyboards/lily58/lily58.o
 .bss           0x00000000        0x0 .build/obj_lily58_rev1_default/keyboards/lily58/lily58.o
 .text          0x00000000        0x0 .build/obj_lily58_rev1_default/keyboards/lily58/rev1/rev1.o
 .data          0x00000000        0x0 .build/obj_lily58_rev1_default/keyboards/lily58/rev1/rev1.o
 .bss           0x00000000        0x0 .build/obj_lily58_rev1_default/keyboards/lily58/rev1/rev1.o
 .text          0x00000000        0x0 .build/obj_lily58_rev1_default/keyboards/lily58/keymaps/default/keymap.o
 .data          0x00000000        0x0 .build/obj_lily58_rev1_default/keyboards/lily58/keymaps/default/keymap.o
 .bss           0x00000000        0x0 .build/obj_lily58_rev1_default/keyboards/lily58/keymaps/default/keymap.o
 .text          0x00000000        0x0 .build/obj_lily58_rev1_default/quantum/quantum.o
 .data          0x00000000        0x0 .build/obj_lily58_rev1_default/quantum/quantum.o
 .bss           0x00000000        0x0 .build/obj_lily58_rev1_default/quantum/quantum.o
 .text.do_code16
                0x00000000       0x6e .build/obj_lily58_rev1_default/quantum/quantum.o
 .text.register_code16
                0x00000000       0x2a .build/obj_lily58_rev1_default/quantum/quantum.o
 .text.unregister_code16
                0x00000000       0x2a .build/obj_lily58_rev1_default/quantum/quantum.o
 .text.tap_code16
                0x00000000       0x14 .build/obj_lily58_rev1_default/quantum/quantum.o
 .text.process_record_user
                0x00000000        0x4 .build/obj_lily58_rev1_default/quantum/quantum.o
 .text.process_record_kb
                0x00000000        0x4 .build/obj_lily58_rev1_default/quantum/quantum.o
 .text.send_char
                0x00000000       0x98 .build/obj_lily58_rev1_default/quantum/quantum.o
 .text.send_string_with_delay
                0x00000000       0xd4 .build/obj_lily58_rev1_default/quantum/quantum.o
 .text.send_string
                0x00000000        0x6 .build/obj_lily58_rev1_default/quantum/quantum.o
 .text.send_string_with_delay_P
                0x00000000       0xd8 .build/obj_lily58_rev1_default/quantum/quantum.o
 .text.send_string_P
                0x00000000        0x6 .build/obj_lily58_rev1_default/quantum/quantum.o
 .text.update_tri_layer_state
                0x00000000       0xa8 .build/obj_lily58_rev1_default/quantum/quantum.o
 .text.update_tri_layer
                0x00000000       0x24 .build/obj_lily58_rev1_default/quantum/quantum.o
 .text.tap_random_base64
                0x00000000       0x90 .build/obj_lily58_rev1_default/quantum/quantum.o
 .text.send_nibble
                0x00000000       0x30 .build/obj_lily58_rev1_default/quantum/quantum.o
 .text.send_byte
                0x00000000       0x16 .build/obj_lily58_rev1_default/quantum/quantum.o
 .text.send_word
                0x00000000       0x12 .build/obj_lily58_rev1_default/quantum/quantum.o
 .text.send_dword
                0x00000000       0x1c .build/obj_lily58_rev1_default/quantum/quantum.o
 .text.hex_to_keycode
                0x00000000       0x1c .build/obj_lily58_rev1_default/quantum/quantum.o
 .text.api_send_unicode
                0x00000000        0x2 .build/obj_lily58_rev1_default/quantum/quantum.o
 .text.led_set_user
                0x00000000        0x2 .build/obj_lily58_rev1_default/quantum/quantum.o
 .text.led_set_kb
                0x00000000        0x4 .build/obj_lily58_rev1_default/quantum/quantum.o
 .text.led_init_ports
                0x00000000        0x2 .build/obj_lily58_rev1_default/quantum/quantum.o
 .text.startup_user
                0x00000000        0x2 .build/obj_lily58_rev1_default/quantum/quantum.o
 .progmem.data.ascii_to_keycode_lut
                0x00000000       0x80 .build/obj_lily58_rev1_default/quantum/quantum.o
 .progmem.data.ascii_to_altgr_lut
                0x00000000       0x10 .build/obj_lily58_rev1_default/quantum/quantum.o
 .progmem.data.ascii_to_shift_lut
                0x00000000       0x10 .build/obj_lily58_rev1_default/quantum/quantum.o
 .text          0x00000000        0x0 .build/obj_lily58_rev1_default/quantum/keymap_common.o
 .data          0x00000000        0x0 .build/obj_lily58_rev1_default/quantum/keymap_common.o
 .bss           0x00000000        0x0 .build/obj_lily58_rev1_default/quantum/keymap_common.o
 .text.action_get_macro
                0x00000000        0x6 .build/obj_lily58_rev1_default/quantum/keymap_common.o
 .text.action_function
                0x00000000        0x2 .build/obj_lily58_rev1_default/quantum/keymap_common.o
 .text.keymap_function_id_to_action
                0x00000000       0x10 .build/obj_lily58_rev1_default/quantum/keymap_common.o
 .progmem.data.fn_actions
                0x00000000        0x0 .build/obj_lily58_rev1_default/quantum/keymap_common.o
 .text          0x00000000        0x0 .build/obj_lily58_rev1_default/quantum/keycode_config.o
 .data          0x00000000        0x0 .build/obj_lily58_rev1_default/quantum/keycode_config.o
 .bss           0x00000000        0x0 .build/obj_lily58_rev1_default/quantum/keycode_config.o
 .text          0x00000000        0x0 .build/obj_lily58_rev1_default/quantum/debounce/sym_g.o
 .data          0x00000000        0x0 .build/obj_lily58_rev1_default/quantum/debounce/sym_g.o
 .bss           0x00000000        0x0 .build/obj_lily58_rev1_default/quantum/debounce/sym_g.o
 .text.debounce_init
                0x00000000        0x2 .build/obj_lily58_rev1_default/quantum/debounce/sym_g.o
 .text.debounce
                0x00000000       0x6c .build/obj_lily58_rev1_default/quantum/debounce/sym_g.o
 .text.debounce_active
                0x00000000        0x6 .build/obj_lily58_rev1_default/quantum/debounce/sym_g.o
 .bss.debouncing_time
                0x00000000        0x2 .build/obj_lily58_rev1_default/quantum/debounce/sym_g.o
 .bss.debouncing
                0x00000000        0x1 .build/obj_lily58_rev1_default/quantum/debounce/sym_g.o
 .debug_info    0x00000000      0x6e3 .build/obj_lily58_rev1_default/quantum/debounce/sym_g.o
 .debug_abbrev  0x00000000      0x25f .build/obj_lily58_rev1_default/quantum/debounce/sym_g.o
 .debug_loc     0x00000000      0x156 .build/obj_lily58_rev1_default/quantum/debounce/sym_g.o
 .debug_aranges
                0x00000000       0x30 .build/obj_lily58_rev1_default/quantum/debounce/sym_g.o
 .debug_ranges  0x00000000       0x38 .build/obj_lily58_rev1_default/quantum/debounce/sym_g.o
 .debug_line    0x00000000      0x2d7 .build/obj_lily58_rev1_default/quantum/debounce/sym_g.o
 .debug_str     0x00000000      0x579 .build/obj_lily58_rev1_default/quantum/debounce/sym_g.o
 .comment       0x00000000       0x12 .build/obj_lily58_rev1_default/quantum/debounce/sym_g.o
 .debug_frame   0x00000000       0x64 .build/obj_lily58_rev1_default/quantum/debounce/sym_g.o
 .text          0x00000000        0x0 .build/obj_lily58_rev1_default/quantum/color.o
 .data          0x00000000        0x0 .build/obj_lily58_rev1_default/quantum/color.o
 .bss           0x00000000        0x0 .build/obj_lily58_rev1_default/quantum/color.o
 .text          0x00000000        0x0 .build/obj_lily58_rev1_default/quantum/rgblight.o
 .data          0x00000000        0x0 .build/obj_lily58_rev1_default/quantum/rgblight.o
 .bss           0x00000000        0x0 .build/obj_lily58_rev1_default/quantum/rgblight.o
 .text.rgblight_set_clipping_range
                0x00000000        0xa .build/obj_lily58_rev1_default/quantum/rgblight.o
 .text.rgblight_set_effect_range
                0x00000000       0x22 .build/obj_lily58_rev1_default/quantum/rgblight.o
 .text.setrgb   0x00000000        0xa .build/obj_lily58_rev1_default/quantum/rgblight.o
 .text.eeconfig_update_rgblight_current
                0x00000000       0x14 .build/obj_lily58_rev1_default/quantum/rgblight.o
 .text.eeconfig_debug_rgblight
                0x00000000        0x2 .build/obj_lily58_rev1_default/quantum/rgblight.o
 .text.rgblight_read_dword
                0x00000000       0x12 .build/obj_lily58_rev1_default/quantum/rgblight.o
 .text.rgblight_get_speed
                0x00000000        0x6 .build/obj_lily58_rev1_default/quantum/rgblight.o
 .text.rgblight_set_speed_eeprom_helper
                0x00000000       0x1e .build/obj_lily58_rev1_default/quantum/rgblight.o
 .text.rgblight_set_speed
                0x00000000        0x6 .build/obj_lily58_rev1_default/quantum/rgblight.o
 .text.rgblight_set_speed_noeeprom
                0x00000000        0x6 .build/obj_lily58_rev1_default/quantum/rgblight.o
 .text.rgblight_get_hue
                0x00000000        0x6 .build/obj_lily58_rev1_default/quantum/rgblight.o
 .text.rgblight_get_sat
                0x00000000        0x6 .build/obj_lily58_rev1_default/quantum/rgblight.o
 .text.rgblight_get_val
                0x00000000        0x6 .build/obj_lily58_rev1_default/quantum/rgblight.o
 .text.rgblight_increase_hue_noeeprom
                0x00000000        0x6 .build/obj_lily58_rev1_default/quantum/rgblight.o
 .text.rgblight_decrease_hue_noeeprom
                0x00000000        0x6 .build/obj_lily58_rev1_default/quantum/rgblight.o
 .text.rgblight_increase_sat_noeeprom
                0x00000000        0x6 .build/obj_lily58_rev1_default/quantum/rgblight.o
 .text.rgblight_decrease_sat_noeeprom
                0x00000000        0x6 .build/obj_lily58_rev1_default/quantum/rgblight.o
 .text.rgblight_increase_val_noeeprom
                0x00000000        0x6 .build/obj_lily58_rev1_default/quantum/rgblight.o
 .text.rgblight_decrease_val_noeeprom
                0x00000000        0x6 .build/obj_lily58_rev1_default/quantum/rgblight.o
 .text.rgblight_sethsv
                0x00000000        0x6 .build/obj_lily58_rev1_default/quantum/rgblight.o
 .text.rgblight_setrgb_at
                0x00000000       0x28 .build/obj_lily58_rev1_default/quantum/rgblight.o
 .text.rgblight_sethsv_at
                0x00000000       0x3c .build/obj_lily58_rev1_default/quantum/rgblight.o
 .text.rgblight_setrgb_range
                0x00000000       0x40 .build/obj_lily58_rev1_default/quantum/rgblight.o
 .text.rgblight_sethsv_range
                0x00000000       0x40 .build/obj_lily58_rev1_default/quantum/rgblight.o
 .text.rgblight_sethsv_master
                0x00000000        0xe .build/obj_lily58_rev1_default/quantum/rgblight.o
 .text.rgblight_sethsv_slave
                0x00000000        0xe .build/obj_lily58_rev1_default/quantum/rgblight.o
 .text.rgblight_setrgb_master
                0x00000000        0xe .build/obj_lily58_rev1_default/quantum/rgblight.o
 .text.rgblight_setrgb_slave
                0x00000000        0xe .build/obj_lily58_rev1_default/quantum/rgblight.o
 .text.rgblight_disable_noeeprom
                0x00000000       0x24 .build/obj_lily58_rev1_default/quantum/rgblight.o
 .text.rgblight_timer_init
                0x00000000        0x6 .build/obj_lily58_rev1_default/quantum/rgblight.o
 .text.rgblight_step_noeeprom
                0x00000000        0x6 .build/obj_lily58_rev1_default/quantum/rgblight.o
 .text.rgblight_step_reverse_noeeprom
                0x00000000        0x6 .build/obj_lily58_rev1_default/quantum/rgblight.o
 .text.rgblight_increase
                0x00000000       0x14 .build/obj_lily58_rev1_default/quantum/rgblight.o
 .text.rgblight_decrease
                0x00000000       0x14 .build/obj_lily58_rev1_default/quantum/rgblight.o
 .text.rgblight_enable_noeeprom
                0x00000000       0x10 .build/obj_lily58_rev1_default/quantum/rgblight.o
 .text.rgblight_toggle_noeeprom
                0x00000000        0xe .build/obj_lily58_rev1_default/quantum/rgblight.o
 .text.rgblight_update_dword
                0x00000000       0x24 .build/obj_lily58_rev1_default/quantum/rgblight.o
 .text.rgblight_timer_disable
                0x00000000        0x6 .build/obj_lily58_rev1_default/quantum/rgblight.o
 .text.rgblight_timer_toggle
                0x00000000       0x12 .build/obj_lily58_rev1_default/quantum/rgblight.o
 .text.rgblight_show_solid_color
                0x00000000       0x26 .build/obj_lily58_rev1_default/quantum/rgblight.o
 .text          0x00000000        0x0 .build/obj_lily58_rev1_default/quantum/process_keycode/process_rgb.o
 .data          0x00000000        0x0 .build/obj_lily58_rev1_default/quantum/process_keycode/process_rgb.o
 .bss           0x00000000        0x0 .build/obj_lily58_rev1_default/quantum/process_keycode/process_rgb.o
 .text.rgblight_step
                0x00000000        0x2 .build/obj_lily58_rev1_default/quantum/process_keycode/process_rgb.o
 .text.rgblight_step_reverse
                0x00000000        0x2 .build/obj_lily58_rev1_default/quantum/process_keycode/process_rgb.o
 .text.rgblight_increase_hue
                0x00000000        0x2 .build/obj_lily58_rev1_default/quantum/process_keycode/process_rgb.o
 .text.rgblight_decrease_hue
                0x00000000        0x2 .build/obj_lily58_rev1_default/quantum/process_keycode/process_rgb.o
 .text.rgblight_increase_sat
                0x00000000        0x2 .build/obj_lily58_rev1_default/quantum/process_keycode/process_rgb.o
 .text.rgblight_decrease_sat
                0x00000000        0x2 .build/obj_lily58_rev1_default/quantum/process_keycode/process_rgb.o
 .text.rgblight_increase_val
                0x00000000        0x2 .build/obj_lily58_rev1_default/quantum/process_keycode/process_rgb.o
 .text.rgblight_decrease_val
                0x00000000        0x2 .build/obj_lily58_rev1_default/quantum/process_keycode/process_rgb.o
 .text.rgblight_increase_speed
                0x00000000        0x2 .build/obj_lily58_rev1_default/quantum/process_keycode/process_rgb.o
 .text.rgblight_decrease_speed
                0x00000000        0x2 .build/obj_lily58_rev1_default/quantum/process_keycode/process_rgb.o
 .text.rgblight_toggle
                0x00000000        0x2 .build/obj_lily58_rev1_default/quantum/process_keycode/process_rgb.o
 .text          0x00000000        0x0 .build/obj_lily58_rev1_default/ws2812.o
 .data          0x00000000        0x0 .build/obj_lily58_rev1_default/ws2812.o
 .bss           0x00000000        0x0 .build/obj_lily58_rev1_default/ws2812.o
 .text          0x00000000        0x0 .build/obj_lily58_rev1_default/quantum/led_tables.o
 .data          0x00000000        0x0 .build/obj_lily58_rev1_default/quantum/led_tables.o
 .bss           0x00000000        0x0 .build/obj_lily58_rev1_default/quantum/led_tables.o
 .text          0x00000000        0x0 .build/obj_lily58_rev1_default/quantum/encoder.o
 .data          0x00000000        0x0 .build/obj_lily58_rev1_default/quantum/encoder.o
 .bss           0x00000000        0x0 .build/obj_lily58_rev1_default/quantum/encoder.o
 .text.encoder_update_user
                0x00000000        0x2 .build/obj_lily58_rev1_default/quantum/encoder.o
 .text          0x00000000        0x0 .build/obj_lily58_rev1_default/quantum/process_keycode/process_space_cadet.o
 .data          0x00000000        0x0 .build/obj_lily58_rev1_default/quantum/process_keycode/process_space_cadet.o
 .bss           0x00000000        0x0 .build/obj_lily58_rev1_default/quantum/process_keycode/process_space_cadet.o
 .text          0x00000000        0x0 .build/obj_lily58_rev1_default/quantum/process_keycode/process_magic.o
 .data          0x00000000        0x0 .build/obj_lily58_rev1_default/quantum/process_keycode/process_magic.o
 .bss           0x00000000        0x0 .build/obj_lily58_rev1_default/quantum/process_keycode/process_magic.o
 .text          0x00000000        0x0 .build/obj_lily58_rev1_default/quantum/process_keycode/process_grave_esc.o
 .data          0x00000000        0x0 .build/obj_lily58_rev1_default/quantum/process_keycode/process_grave_esc.o
 .bss           0x00000000        0x0 .build/obj_lily58_rev1_default/quantum/process_keycode/process_grave_esc.o
 .text          0x00000000        0x0 .build/obj_lily58_rev1_default/common/host.o
 .data          0x00000000        0x0 .build/obj_lily58_rev1_default/common/host.o
 .bss           0x00000000        0x0 .build/obj_lily58_rev1_default/common/host.o
 .text.host_get_driver
                0x00000000        0xa .build/obj_lily58_rev1_default/common/host.o
 .text.host_keyboard_led_state
                0x00000000       0x1a .build/obj_lily58_rev1_default/common/host.o
 .text.host_mouse_send
                0x00000000       0x16 .build/obj_lily58_rev1_default/common/host.o
 .text.host_last_system_report
                0x00000000        0xa .build/obj_lily58_rev1_default/common/host.o
 .text.host_last_consumer_report
                0x00000000        0xa .build/obj_lily58_rev1_default/common/host.o
 .text          0x00000000        0x0 .build/obj_lily58_rev1_default/common/keyboard.o
 .data          0x00000000        0x0 .build/obj_lily58_rev1_default/common/keyboard.o
 .bss           0x00000000        0x0 .build/obj_lily58_rev1_default/common/keyboard.o
 .text.keyboard_set_leds
                0x00000000        0x4 .build/obj_lily58_rev1_default/common/keyboard.o
 .text          0x00000000        0x0 .build/obj_lily58_rev1_default/common/action.o
 .data          0x00000000        0x0 .build/obj_lily58_rev1_default/common/action.o
 .bss           0x00000000        0x0 .build/obj_lily58_rev1_default/common/action.o
 .text.process_record_quantum
                0x00000000        0x4 .build/obj_lily58_rev1_default/common/action.o
 .text.post_process_record_quantum
                0x00000000        0x2 .build/obj_lily58_rev1_default/common/action.o
 .text.process_record_nocache
                0x00000000       0x10 .build/obj_lily58_rev1_default/common/action.o
 .text.register_weak_mods
                0x00000000        0xe .build/obj_lily58_rev1_default/common/action.o
 .text.unregister_weak_mods
                0x00000000        0xe .build/obj_lily58_rev1_default/common/action.o
 .text.debug_action
                0x00000000        0x2 .build/obj_lily58_rev1_default/common/action.o
 COMMON         0x00000000        0x2 .build/obj_lily58_rev1_default/common/action.o
 .text          0x00000000        0x0 .build/obj_lily58_rev1_default/common/action_tapping.o
 .data          0x00000000        0x0 .build/obj_lily58_rev1_default/common/action_tapping.o
 .bss           0x00000000        0x0 .build/obj_lily58_rev1_default/common/action_tapping.o
 .text.get_tapping_term
                0x00000000        0x6 .build/obj_lily58_rev1_default/common/action_tapping.o
 .text          0x00000000        0x0 .build/obj_lily58_rev1_default/common/action_macro.o
 .data          0x00000000        0x0 .build/obj_lily58_rev1_default/common/action_macro.o
 .bss           0x00000000        0x0 .build/obj_lily58_rev1_default/common/action_macro.o
 .debug_info    0x00000000      0x1a2 .build/obj_lily58_rev1_default/common/action_macro.o
 .debug_abbrev  0x00000000       0xbf .build/obj_lily58_rev1_default/common/action_macro.o
 .debug_aranges
                0x00000000       0x18 .build/obj_lily58_rev1_default/common/action_macro.o
 .debug_line    0x00000000       0xab .build/obj_lily58_rev1_default/common/action_macro.o
 .debug_str     0x00000000      0x215 .build/obj_lily58_rev1_default/common/action_macro.o
 .comment       0x00000000       0x12 .build/obj_lily58_rev1_default/common/action_macro.o
 .text          0x00000000        0x0 .build/obj_lily58_rev1_default/common/action_layer.o
 .data          0x00000000        0x0 .build/obj_lily58_rev1_default/common/action_layer.o
 .bss           0x00000000        0x0 .build/obj_lily58_rev1_default/common/action_layer.o
 .text.layer_state_cmp
                0x00000000       0x2a .build/obj_lily58_rev1_default/common/action_layer.o
 .text.layer_state_is
                0x00000000       0x16 .build/obj_lily58_rev1_default/common/action_layer.o
 .text          0x00000000        0x0 .build/obj_lily58_rev1_default/common/action_util.o
 .data          0x00000000        0x0 .build/obj_lily58_rev1_default/common/action_util.o
 .bss           0x00000000        0x0 .build/obj_lily58_rev1_default/common/action_util.o
 .text.get_oneshot_locked_mods
                0x00000000        0x6 .build/obj_lily58_rev1_default/common/action_util.o
 .text.has_oneshot_mods_timed_out
                0x00000000        0x4 .build/obj_lily58_rev1_default/common/action_util.o
 .text.set_mods
                0x00000000        0x6 .build/obj_lily58_rev1_default/common/action_util.o
 .text.get_weak_mods
                0x00000000        0x6 .build/obj_lily58_rev1_default/common/action_util.o
 .text.set_weak_mods
                0x00000000        0x6 .build/obj_lily58_rev1_default/common/action_util.o
 .text.get_macro_mods
                0x00000000        0x6 .build/obj_lily58_rev1_default/common/action_util.o
 .text.add_macro_mods
                0x00000000        0xc .build/obj_lily58_rev1_default/common/action_util.o
 .text.del_macro_mods
                0x00000000        0xe .build/obj_lily58_rev1_default/common/action_util.o
 .text.set_macro_mods
                0x00000000        0x6 .build/obj_lily58_rev1_default/common/action_util.o
 .text.oneshot_locked_mods_changed_user
                0x00000000        0x2 .build/obj_lily58_rev1_default/common/action_util.o
 .text.oneshot_locked_mods_changed_kb
                0x00000000        0x4 .build/obj_lily58_rev1_default/common/action_util.o
 .text.set_oneshot_locked_mods
                0x00000000       0x12 .build/obj_lily58_rev1_default/common/action_util.o
 .text.clear_oneshot_locked_mods
                0x00000000       0x14 .build/obj_lily58_rev1_default/common/action_util.o
 .text.has_anymod
                0x00000000        0x8 .build/obj_lily58_rev1_default/common/action_util.o
 .bss.oneshot_locked_mods
                0x00000000        0x1 .build/obj_lily58_rev1_default/common/action_util.o
 .text          0x00000000        0x0 .build/obj_lily58_rev1_default/common/print.o
 .data          0x00000000        0x0 .build/obj_lily58_rev1_default/common/print.o
 .bss           0x00000000        0x0 .build/obj_lily58_rev1_default/common/print.o
 .debug_info    0x00000000       0x56 .build/obj_lily58_rev1_default/common/print.o
 .debug_abbrev  0x00000000       0x26 .build/obj_lily58_rev1_default/common/print.o
 .debug_aranges
                0x00000000       0x18 .build/obj_lily58_rev1_default/common/print.o
 .debug_line    0x00000000       0x1d .build/obj_lily58_rev1_default/common/print.o
 .debug_str     0x00000000      0x17d .build/obj_lily58_rev1_default/common/print.o
 .comment       0x00000000       0x12 .build/obj_lily58_rev1_default/common/print.o
 .text          0x00000000        0x0 .build/obj_lily58_rev1_default/common/debug.o
 .data          0x00000000        0x0 .build/obj_lily58_rev1_default/common/debug.o
 .bss           0x00000000        0x0 .build/obj_lily58_rev1_default/common/debug.o
 .text          0x00000000        0x0 .build/obj_lily58_rev1_default/common/util.o
 .data          0x00000000        0x0 .build/obj_lily58_rev1_default/common/util.o
 .bss           0x00000000        0x0 .build/obj_lily58_rev1_default/common/util.o
 .text.bitpop   0x00000000       0x14 .build/obj_lily58_rev1_default/common/util.o
 .text.bitpop16
                0x00000000       0x18 .build/obj_lily58_rev1_default/common/util.o
 .text.bitpop32
                0x00000000       0x3a .build/obj_lily58_rev1_default/common/util.o
 .text.biton    0x00000000       0x22 .build/obj_lily58_rev1_default/common/util.o
 .text.biton16  0x00000000       0x48 .build/obj_lily58_rev1_default/common/util.o
 .text.biton32  0x00000000       0x9a .build/obj_lily58_rev1_default/common/util.o
 .text.bitrev   0x00000000       0x30 .build/obj_lily58_rev1_default/common/util.o
 .text.bitrev16
                0x00000000       0x1a .build/obj_lily58_rev1_default/common/util.o
 .text.bitrev32
                0x00000000       0x4c .build/obj_lily58_rev1_default/common/util.o
 .debug_info    0x00000000      0x2f9 .build/obj_lily58_rev1_default/common/util.o
 .debug_abbrev  0x00000000       0xdd .build/obj_lily58_rev1_default/common/util.o
 .debug_loc     0x00000000      0x58d .build/obj_lily58_rev1_default/common/util.o
 .debug_aranges
                0x00000000       0x60 .build/obj_lily58_rev1_default/common/util.o
 .debug_ranges  0x00000000       0x50 .build/obj_lily58_rev1_default/common/util.o
 .debug_line    0x00000000      0x65e .build/obj_lily58_rev1_default/common/util.o
 .debug_str     0x00000000      0x1e3 .build/obj_lily58_rev1_default/common/util.o
 .comment       0x00000000       0x12 .build/obj_lily58_rev1_default/common/util.o
 .debug_frame   0x00000000      0x110 .build/obj_lily58_rev1_default/common/util.o
 .text          0x00000000        0x0 .build/obj_lily58_rev1_default/common/eeconfig.o
 .data          0x00000000        0x0 .build/obj_lily58_rev1_default/common/eeconfig.o
 .bss           0x00000000        0x0 .build/obj_lily58_rev1_default/common/eeconfig.o
 .text.eeconfig_enable
                0x00000000        0xc .build/obj_lily58_rev1_default/common/eeconfig.o
 .text.eeconfig_disable
                0x00000000        0xc .build/obj_lily58_rev1_default/common/eeconfig.o
 .text.eeconfig_is_disabled
                0x00000000       0x14 .build/obj_lily58_rev1_default/common/eeconfig.o
 .text.eeconfig_update_debug
                0x00000000        0xa .build/obj_lily58_rev1_default/common/eeconfig.o
 .text.eeconfig_read_backlight
                0x00000000        0x8 .build/obj_lily58_rev1_default/common/eeconfig.o
 .text.eeconfig_update_backlight
                0x00000000        0xa .build/obj_lily58_rev1_default/common/eeconfig.o
 .text.eeconfig_read_audio
                0x00000000        0x8 .build/obj_lily58_rev1_default/common/eeconfig.o
 .text.eeconfig_update_audio
                0x00000000        0xa .build/obj_lily58_rev1_default/common/eeconfig.o
 .text.eeconfig_read_kb
                0x00000000        0x8 .build/obj_lily58_rev1_default/common/eeconfig.o
 .text.eeconfig_read_user
                0x00000000        0x8 .build/obj_lily58_rev1_default/common/eeconfig.o
 .text.eeconfig_read_haptic
                0x00000000        0x8 .build/obj_lily58_rev1_default/common/eeconfig.o
 .text.eeconfig_update_haptic
                0x00000000        0xc .build/obj_lily58_rev1_default/common/eeconfig.o
 .text.eeconfig_read_handedness
                0x00000000       0x14 .build/obj_lily58_rev1_default/common/eeconfig.o
 .text          0x00000000        0x0 .build/obj_lily58_rev1_default/common/report.o
 .data          0x00000000        0x0 .build/obj_lily58_rev1_default/common/report.o
 .bss           0x00000000        0x0 .build/obj_lily58_rev1_default/common/report.o
 .text.get_first_key
                0x00000000        0x6 .build/obj_lily58_rev1_default/common/report.o
 .text          0x00000000        0x0 .build/obj_lily58_rev1_default/common/avr/suspend.o
 .data          0x00000000        0x0 .build/obj_lily58_rev1_default/common/avr/suspend.o
 .bss           0x00000000        0x0 .build/obj_lily58_rev1_default/common/avr/suspend.o
 .text.suspend_idle
                0x00000000       0x1a .build/obj_lily58_rev1_default/common/avr/suspend.o
 .text          0x00000000        0x0 .build/obj_lily58_rev1_default/common/avr/timer.o
 .data          0x00000000        0x0 .build/obj_lily58_rev1_default/common/avr/timer.o
 .bss           0x00000000        0x0 .build/obj_lily58_rev1_default/common/avr/timer.o
 .text.timer_clear
                0x00000000       0x18 .build/obj_lily58_rev1_default/common/avr/timer.o
 .text.timer_read32
                0x00000000       0x18 .build/obj_lily58_rev1_default/common/avr/timer.o
 .text.timer_elapsed32
                0x00000000       0x38 .build/obj_lily58_rev1_default/common/avr/timer.o
 .text          0x00000000        0x0 .build/obj_lily58_rev1_default/common/avr/bootloader.o
 .data          0x00000000        0x0 .build/obj_lily58_rev1_default/common/avr/bootloader.o
 .bss           0x00000000        0x0 .build/obj_lily58_rev1_default/common/avr/bootloader.o
 .text          0x00000000      0x15c .build/obj_lily58_rev1_default/common/avr/xprintf.o
 .data          0x00000000        0x0 .build/obj_lily58_rev1_default/common/avr/xprintf.o
 .bss           0x00000000        0x2 .build/obj_lily58_rev1_default/common/avr/xprintf.o
 .stab          0x00000000      0x8b8 .build/obj_lily58_rev1_default/common/avr/xprintf.o
 .text          0x00000000        0x0 .build/obj_lily58_rev1_default/common/magic.o
 .data          0x00000000        0x0 .build/obj_lily58_rev1_default/common/magic.o
 .bss           0x00000000        0x0 .build/obj_lily58_rev1_default/common/magic.o
 .text          0x00000000        0x0 .build/obj_lily58_rev1_default/lufa.o
 .data          0x00000000        0x0 .build/obj_lily58_rev1_default/lufa.o
 .bss           0x00000000        0x0 .build/obj_lily58_rev1_default/lufa.o
 .text.sendchar
                0x00000000        0x4 .build/obj_lily58_rev1_default/lufa.o
 .text          0x00000000        0x0 .build/obj_lily58_rev1_default/usb_descriptor.o
 .data          0x00000000        0x0 .build/obj_lily58_rev1_default/usb_descriptor.o
 .bss           0x00000000        0x0 .build/obj_lily58_rev1_default/usb_descriptor.o
 .text          0x00000000        0x0 .build/obj_lily58_rev1_default/outputselect.o
 .data          0x00000000        0x0 .build/obj_lily58_rev1_default/outputselect.o
 .bss           0x00000000        0x0 .build/obj_lily58_rev1_default/outputselect.o
 .text.set_output_user
                0x00000000        0x2 .build/obj_lily58_rev1_default/outputselect.o
 .text.set_output
                0x00000000       0x10 .build/obj_lily58_rev1_default/outputselect.o
 .text          0x00000000        0x0 .build/obj_lily58_rev1_default/lib/lufa/LUFA/Drivers/USB/Class/Common/HIDParser.o
 .data          0x00000000        0x0 .build/obj_lily58_rev1_default/lib/lufa/LUFA/Drivers/USB/Class/Common/HIDParser.o
 .bss           0x00000000        0x0 .build/obj_lily58_rev1_default/lib/lufa/LUFA/Drivers/USB/Class/Common/HIDParser.o
 .text.USB_ProcessHIDReport
                0x00000000      0x6c0 .build/obj_lily58_rev1_default/lib/lufa/LUFA/Drivers/USB/Class/Common/HIDParser.o
 .text.USB_GetHIDReportItemInfo
                0x00000000       0xc0 .build/obj_lily58_rev1_default/lib/lufa/LUFA/Drivers/USB/Class/Common/HIDParser.o
 .text.USB_SetHIDReportItemInfo
                0x00000000       0xb6 .build/obj_lily58_rev1_default/lib/lufa/LUFA/Drivers/USB/Class/Common/HIDParser.o
 .text.USB_GetHIDReportSize
                0x00000000       0x52 .build/obj_lily58_rev1_default/lib/lufa/LUFA/Drivers/USB/Class/Common/HIDParser.o
 .debug_info    0x00000000      0x804 .build/obj_lily58_rev1_default/lib/lufa/LUFA/Drivers/USB/Class/Common/HIDParser.o
 .debug_abbrev  0x00000000      0x253 .build/obj_lily58_rev1_default/lib/lufa/LUFA/Drivers/USB/Class/Common/HIDParser.o
 .debug_loc     0x00000000      0xcd9 .build/obj_lily58_rev1_default/lib/lufa/LUFA/Drivers/USB/Class/Common/HIDParser.o
 .debug_aranges
                0x00000000       0x38 .build/obj_lily58_rev1_default/lib/lufa/LUFA/Drivers/USB/Class/Common/HIDParser.o
 .debug_ranges  0x00000000      0x100 .build/obj_lily58_rev1_default/lib/lufa/LUFA/Drivers/USB/Class/Common/HIDParser.o
 .debug_line    0x00000000      0xdd7 .build/obj_lily58_rev1_default/lib/lufa/LUFA/Drivers/USB/Class/Common/HIDParser.o
 .debug_str     0x00000000      0x6b1 .build/obj_lily58_rev1_default/lib/lufa/LUFA/Drivers/USB/Class/Common/HIDParser.o
 .comment       0x00000000       0x12 .build/obj_lily58_rev1_default/lib/lufa/LUFA/Drivers/USB/Class/Common/HIDParser.o
 .debug_frame   0x00000000      0x134 .build/obj_lily58_rev1_default/lib/lufa/LUFA/Drivers/USB/Class/Common/HIDParser.o
 .text          0x00000000        0x0 .build/obj_lily58_rev1_default/lib/lufa/LUFA/Drivers/USB/Core/AVR8/Device_AVR8.o
 .data          0x00000000        0x0 .build/obj_lily58_rev1_default/lib/lufa/LUFA/Drivers/USB/Core/AVR8/Device_AVR8.o
 .bss           0x00000000        0x0 .build/obj_lily58_rev1_default/lib/lufa/LUFA/Drivers/USB/Core/AVR8/Device_AVR8.o
 .text          0x00000000        0x0 .build/obj_lily58_rev1_default/lib/lufa/LUFA/Drivers/USB/Core/AVR8/EndpointStream_AVR8.o
 .data          0x00000000        0x0 .build/obj_lily58_rev1_default/lib/lufa/LUFA/Drivers/USB/Core/AVR8/EndpointStream_AVR8.o
 .bss           0x00000000        0x0 .build/obj_lily58_rev1_default/lib/lufa/LUFA/Drivers/USB/Core/AVR8/EndpointStream_AVR8.o
 .text.Endpoint_Discard_Stream
                0x00000000       0x78 .build/obj_lily58_rev1_default/lib/lufa/LUFA/Drivers/USB/Core/AVR8/EndpointStream_AVR8.o
 .text.Endpoint_Null_Stream
                0x00000000       0x78 .build/obj_lily58_rev1_default/lib/lufa/LUFA/Drivers/USB/Core/AVR8/EndpointStream_AVR8.o
 .text.Endpoint_Write_Stream_BE
                0x00000000       0xa8 .build/obj_lily58_rev1_default/lib/lufa/LUFA/Drivers/USB/Core/AVR8/EndpointStream_AVR8.o
 .text.Endpoint_Read_Stream_LE
                0x00000000       0x9e .build/obj_lily58_rev1_default/lib/lufa/LUFA/Drivers/USB/Core/AVR8/EndpointStream_AVR8.o
 .text.Endpoint_Read_Stream_BE
                0x00000000       0xa8 .build/obj_lily58_rev1_default/lib/lufa/LUFA/Drivers/USB/Core/AVR8/EndpointStream_AVR8.o
 .text.Endpoint_Write_PStream_LE
                0x00000000       0xa0 .build/obj_lily58_rev1_default/lib/lufa/LUFA/Drivers/USB/Core/AVR8/EndpointStream_AVR8.o
 .text.Endpoint_Write_PStream_BE
                0x00000000       0xaa .build/obj_lily58_rev1_default/lib/lufa/LUFA/Drivers/USB/Core/AVR8/EndpointStream_AVR8.o
 .text.Endpoint_Write_EStream_LE
                0x00000000       0xa2 .build/obj_lily58_rev1_default/lib/lufa/LUFA/Drivers/USB/Core/AVR8/EndpointStream_AVR8.o
 .text.Endpoint_Write_EStream_BE
                0x00000000       0xac .build/obj_lily58_rev1_default/lib/lufa/LUFA/Drivers/USB/Core/AVR8/EndpointStream_AVR8.o
 .text.Endpoint_Read_EStream_LE
                0x00000000       0xa2 .build/obj_lily58_rev1_default/lib/lufa/LUFA/Drivers/USB/Core/AVR8/EndpointStream_AVR8.o
 .text.Endpoint_Read_EStream_BE
                0x00000000       0xac .build/obj_lily58_rev1_default/lib/lufa/LUFA/Drivers/USB/Core/AVR8/EndpointStream_AVR8.o
 .text.Endpoint_Write_Control_Stream_BE
                0x00000000       0xc6 .build/obj_lily58_rev1_default/lib/lufa/LUFA/Drivers/USB/Core/AVR8/EndpointStream_AVR8.o
 .text.Endpoint_Read_Control_Stream_LE
                0x00000000       0x74 .build/obj_lily58_rev1_default/lib/lufa/LUFA/Drivers/USB/Core/AVR8/EndpointStream_AVR8.o
 .text.Endpoint_Read_Control_Stream_BE
                0x00000000       0x7e .build/obj_lily58_rev1_default/lib/lufa/LUFA/Drivers/USB/Core/AVR8/EndpointStream_AVR8.o
 .text.Endpoint_Write_Control_PStream_BE
                0x00000000       0xc2 .build/obj_lily58_rev1_default/lib/lufa/LUFA/Drivers/USB/Core/AVR8/EndpointStream_AVR8.o
 .text.Endpoint_Write_Control_EStream_LE
                0x00000000       0xd8 .build/obj_lily58_rev1_default/lib/lufa/LUFA/Drivers/USB/Core/AVR8/EndpointStream_AVR8.o
 .text.Endpoint_Write_Control_EStream_BE
                0x00000000       0xe2 .build/obj_lily58_rev1_default/lib/lufa/LUFA/Drivers/USB/Core/AVR8/EndpointStream_AVR8.o
 .text.Endpoint_Read_Control_EStream_LE
                0x00000000       0x86 .build/obj_lily58_rev1_default/lib/lufa/LUFA/Drivers/USB/Core/AVR8/EndpointStream_AVR8.o
 .text.Endpoint_Read_Control_EStream_BE
                0x00000000       0x8e .build/obj_lily58_rev1_default/lib/lufa/LUFA/Drivers/USB/Core/AVR8/EndpointStream_AVR8.o
 .text          0x00000000        0x0 .build/obj_lily58_rev1_default/lib/lufa/LUFA/Drivers/USB/Core/AVR8/Endpoint_AVR8.o
 .data          0x00000000        0x0 .build/obj_lily58_rev1_default/lib/lufa/LUFA/Drivers/USB/Core/AVR8/Endpoint_AVR8.o
 .bss           0x00000000        0x0 .build/obj_lily58_rev1_default/lib/lufa/LUFA/Drivers/USB/Core/AVR8/Endpoint_AVR8.o
 .text.Endpoint_ConfigureEndpointTable
                0x00000000       0x7a .build/obj_lily58_rev1_default/lib/lufa/LUFA/Drivers/USB/Core/AVR8/Endpoint_AVR8.o
 .text.Endpoint_ClearEndpoints
                0x00000000       0x28 .build/obj_lily58_rev1_default/lib/lufa/LUFA/Drivers/USB/Core/AVR8/Endpoint_AVR8.o
 .text          0x00000000        0x0 .build/obj_lily58_rev1_default/lib/lufa/LUFA/Drivers/USB/Core/AVR8/Host_AVR8.o
 .data          0x00000000        0x0 .build/obj_lily58_rev1_default/lib/lufa/LUFA/Drivers/USB/Core/AVR8/Host_AVR8.o
 .bss           0x00000000        0x0 .build/obj_lily58_rev1_default/lib/lufa/LUFA/Drivers/USB/Core/AVR8/Host_AVR8.o
 .debug_info    0x00000000       0x56 .build/obj_lily58_rev1_default/lib/lufa/LUFA/Drivers/USB/Core/AVR8/Host_AVR8.o
 .debug_abbrev  0x00000000       0x26 .build/obj_lily58_rev1_default/lib/lufa/LUFA/Drivers/USB/Core/AVR8/Host_AVR8.o
 .debug_aranges
                0x00000000       0x18 .build/obj_lily58_rev1_default/lib/lufa/LUFA/Drivers/USB/Core/AVR8/Host_AVR8.o
 .debug_line    0x00000000       0x1d .build/obj_lily58_rev1_default/lib/lufa/LUFA/Drivers/USB/Core/AVR8/Host_AVR8.o
 .debug_str     0x00000000      0x195 .build/obj_lily58_rev1_default/lib/lufa/LUFA/Drivers/USB/Core/AVR8/Host_AVR8.o
 .comment       0x00000000       0x12 .build/obj_lily58_rev1_default/lib/lufa/LUFA/Drivers/USB/Core/AVR8/Host_AVR8.o
 .text          0x00000000        0x0 .build/obj_lily58_rev1_default/lib/lufa/LUFA/Drivers/USB/Core/AVR8/PipeStream_AVR8.o
 .data          0x00000000        0x0 .build/obj_lily58_rev1_default/lib/lufa/LUFA/Drivers/USB/Core/AVR8/PipeStream_AVR8.o
 .bss           0x00000000        0x0 .build/obj_lily58_rev1_default/lib/lufa/LUFA/Drivers/USB/Core/AVR8/PipeStream_AVR8.o
 .debug_info    0x00000000       0x56 .build/obj_lily58_rev1_default/lib/lufa/LUFA/Drivers/USB/Core/AVR8/PipeStream_AVR8.o
 .debug_abbrev  0x00000000       0x26 .build/obj_lily58_rev1_default/lib/lufa/LUFA/Drivers/USB/Core/AVR8/PipeStream_AVR8.o
 .debug_aranges
                0x00000000       0x18 .build/obj_lily58_rev1_default/lib/lufa/LUFA/Drivers/USB/Core/AVR8/PipeStream_AVR8.o
 .debug_line    0x00000000       0x1d .build/obj_lily58_rev1_default/lib/lufa/LUFA/Drivers/USB/Core/AVR8/PipeStream_AVR8.o
 .debug_str     0x00000000      0x19b .build/obj_lily58_rev1_default/lib/lufa/LUFA/Drivers/USB/Core/AVR8/PipeStream_AVR8.o
 .comment       0x00000000       0x12 .build/obj_lily58_rev1_default/lib/lufa/LUFA/Drivers/USB/Core/AVR8/PipeStream_AVR8.o
 .text          0x00000000        0x0 .build/obj_lily58_rev1_default/lib/lufa/LUFA/Drivers/USB/Core/AVR8/Pipe_AVR8.o
 .data          0x00000000        0x0 .build/obj_lily58_rev1_default/lib/lufa/LUFA/Drivers/USB/Core/AVR8/Pipe_AVR8.o
 .bss           0x00000000        0x0 .build/obj_lily58_rev1_default/lib/lufa/LUFA/Drivers/USB/Core/AVR8/Pipe_AVR8.o
 .debug_info    0x00000000       0x56 .build/obj_lily58_rev1_default/lib/lufa/LUFA/Drivers/USB/Core/AVR8/Pipe_AVR8.o
 .debug_abbrev  0x00000000       0x26 .build/obj_lily58_rev1_default/lib/lufa/LUFA/Drivers/USB/Core/AVR8/Pipe_AVR8.o
 .debug_aranges
                0x00000000       0x18 .build/obj_lily58_rev1_default/lib/lufa/LUFA/Drivers/USB/Core/AVR8/Pipe_AVR8.o
 .debug_line    0x00000000       0x1d .build/obj_lily58_rev1_default/lib/lufa/LUFA/Drivers/USB/Core/AVR8/Pipe_AVR8.o
 .debug_str     0x00000000      0x195 .build/obj_lily58_rev1_default/lib/lufa/LUFA/Drivers/USB/Core/AVR8/Pipe_AVR8.o
 .comment       0x00000000       0x12 .build/obj_lily58_rev1_default/lib/lufa/LUFA/Drivers/USB/Core/AVR8/Pipe_AVR8.o
 .text          0x00000000        0x0 .build/obj_lily58_rev1_default/lib/lufa/LUFA/Drivers/USB/Core/AVR8/USBController_AVR8.o
 .data          0x00000000        0x0 .build/obj_lily58_rev1_default/lib/lufa/LUFA/Drivers/USB/Core/AVR8/USBController_AVR8.o
 .bss           0x00000000        0x0 .build/obj_lily58_rev1_default/lib/lufa/LUFA/Drivers/USB/Core/AVR8/USBController_AVR8.o
 .text          0x00000000        0x0 .build/obj_lily58_rev1_default/lib/lufa/LUFA/Drivers/USB/Core/AVR8/USBInterrupt_AVR8.o
 .data          0x00000000        0x0 .build/obj_lily58_rev1_default/lib/lufa/LUFA/Drivers/USB/Core/AVR8/USBInterrupt_AVR8.o
 .bss           0x00000000        0x0 .build/obj_lily58_rev1_default/lib/lufa/LUFA/Drivers/USB/Core/AVR8/USBInterrupt_AVR8.o
 .text          0x00000000        0x0 .build/obj_lily58_rev1_default/lib/lufa/LUFA/Drivers/USB/Core/ConfigDescriptors.o
 .data          0x00000000        0x0 .build/obj_lily58_rev1_default/lib/lufa/LUFA/Drivers/USB/Core/ConfigDescriptors.o
 .bss           0x00000000        0x0 .build/obj_lily58_rev1_default/lib/lufa/LUFA/Drivers/USB/Core/ConfigDescriptors.o
 .text.USB_GetNextDescriptor
                0x00000000       0x3c .build/obj_lily58_rev1_default/lib/lufa/LUFA/Drivers/USB/Core/ConfigDescriptors.o
 .text.USB_GetNextDescriptorOfType
                0x00000000       0x38 .build/obj_lily58_rev1_default/lib/lufa/LUFA/Drivers/USB/Core/ConfigDescriptors.o
 .text.USB_GetNextDescriptorOfTypeBefore
                0x00000000       0x46 .build/obj_lily58_rev1_default/lib/lufa/LUFA/Drivers/USB/Core/ConfigDescriptors.o
 .text.USB_GetNextDescriptorOfTypeAfter
                0x00000000       0x3e .build/obj_lily58_rev1_default/lib/lufa/LUFA/Drivers/USB/Core/ConfigDescriptors.o
 .text.USB_GetNextDescriptorComp
                0x00000000       0x66 .build/obj_lily58_rev1_default/lib/lufa/LUFA/Drivers/USB/Core/ConfigDescriptors.o
 .debug_info    0x00000000      0x50f .build/obj_lily58_rev1_default/lib/lufa/LUFA/Drivers/USB/Core/ConfigDescriptors.o
 .debug_abbrev  0x00000000      0x1e5 .build/obj_lily58_rev1_default/lib/lufa/LUFA/Drivers/USB/Core/ConfigDescriptors.o
 .debug_loc     0x00000000      0x611 .build/obj_lily58_rev1_default/lib/lufa/LUFA/Drivers/USB/Core/ConfigDescriptors.o
 .debug_aranges
                0x00000000       0x40 .build/obj_lily58_rev1_default/lib/lufa/LUFA/Drivers/USB/Core/ConfigDescriptors.o
 .debug_ranges  0x00000000       0x30 .build/obj_lily58_rev1_default/lib/lufa/LUFA/Drivers/USB/Core/ConfigDescriptors.o
 .debug_line    0x00000000      0x402 .build/obj_lily58_rev1_default/lib/lufa/LUFA/Drivers/USB/Core/ConfigDescriptors.o
 .debug_str     0x00000000      0x4cd .build/obj_lily58_rev1_default/lib/lufa/LUFA/Drivers/USB/Core/ConfigDescriptors.o
 .comment       0x00000000       0x12 .build/obj_lily58_rev1_default/lib/lufa/LUFA/Drivers/USB/Core/ConfigDescriptors.o
 .debug_frame   0x00000000      0x110 .build/obj_lily58_rev1_default/lib/lufa/LUFA/Drivers/USB/Core/ConfigDescriptors.o
 .text          0x00000000        0x0 .build/obj_lily58_rev1_default/lib/lufa/LUFA/Drivers/USB/Core/DeviceStandardReq.o
 .data          0x00000000        0x0 .build/obj_lily58_rev1_default/lib/lufa/LUFA/Drivers/USB/Core/DeviceStandardReq.o
 .bss           0x00000000        0x0 .build/obj_lily58_rev1_default/lib/lufa/LUFA/Drivers/USB/Core/DeviceStandardReq.o
 .text          0x00000000        0x0 .build/obj_lily58_rev1_default/lib/lufa/LUFA/Drivers/USB/Core/Events.o
 .data          0x00000000        0x0 .build/obj_lily58_rev1_default/lib/lufa/LUFA/Drivers/USB/Core/Events.o
 .bss           0x00000000        0x0 .build/obj_lily58_rev1_default/lib/lufa/LUFA/Drivers/USB/Core/Events.o
 .text.USB_Event_Stub_2
                0x00000000        0x2 .build/obj_lily58_rev1_default/lib/lufa/LUFA/Drivers/USB/Core/Events.o
 .text.USB_Event_Stub_3
                0x00000000        0x2 .build/obj_lily58_rev1_default/lib/lufa/LUFA/Drivers/USB/Core/Events.o
 .text          0x00000000        0x0 .build/obj_lily58_rev1_default/lib/lufa/LUFA/Drivers/USB/Core/HostStandardReq.o
 .data          0x00000000        0x0 .build/obj_lily58_rev1_default/lib/lufa/LUFA/Drivers/USB/Core/HostStandardReq.o
 .bss           0x00000000        0x0 .build/obj_lily58_rev1_default/lib/lufa/LUFA/Drivers/USB/Core/HostStandardReq.o
 .debug_info    0x00000000       0x56 .build/obj_lily58_rev1_default/lib/lufa/LUFA/Drivers/USB/Core/HostStandardReq.o
 .debug_abbrev  0x00000000       0x26 .build/obj_lily58_rev1_default/lib/lufa/LUFA/Drivers/USB/Core/HostStandardReq.o
 .debug_aranges
                0x00000000       0x18 .build/obj_lily58_rev1_default/lib/lufa/LUFA/Drivers/USB/Core/HostStandardReq.o
 .debug_line    0x00000000       0x1d .build/obj_lily58_rev1_default/lib/lufa/LUFA/Drivers/USB/Core/HostStandardReq.o
 .debug_str     0x00000000      0x196 .build/obj_lily58_rev1_default/lib/lufa/LUFA/Drivers/USB/Core/HostStandardReq.o
 .comment       0x00000000       0x12 .build/obj_lily58_rev1_default/lib/lufa/LUFA/Drivers/USB/Core/HostStandardReq.o
 .text          0x00000000        0x0 .build/obj_lily58_rev1_default/lib/lufa/LUFA/Drivers/USB/Core/USBTask.o
 .data          0x00000000        0x0 .build/obj_lily58_rev1_default/lib/lufa/LUFA/Drivers/USB/Core/USBTask.o
 .bss           0x00000000        0x0 .build/obj_lily58_rev1_default/lib/lufa/LUFA/Drivers/USB/Core/USBTask.o
 .text          0x00000000        0x0 c:/msys64/home/kyleo/qmk_utils/avr8-gnu-toolchain/bin/../lib/gcc/avr/8.3.0/avr5\libgcc.a(_divmodqi4.o)
 .data          0x00000000        0x0 c:/msys64/home/kyleo/qmk_utils/avr8-gnu-toolchain/bin/../lib/gcc/avr/8.3.0/avr5\libgcc.a(_divmodqi4.o)
 .bss           0x00000000        0x0 c:/msys64/home/kyleo/qmk_utils/avr8-gnu-toolchain/bin/../lib/gcc/avr/8.3.0/avr5\libgcc.a(_divmodqi4.o)
 .text.libgcc.mul
                0x00000000        0x0 c:/msys64/home/kyleo/qmk_utils/avr8-gnu-toolchain/bin/../lib/gcc/avr/8.3.0/avr5\libgcc.a(_divmodqi4.o)
 .text.libgcc   0x00000000        0x0 c:/msys64/home/kyleo/qmk_utils/avr8-gnu-toolchain/bin/../lib/gcc/avr/8.3.0/avr5\libgcc.a(_divmodqi4.o)
 .text.libgcc.prologue
                0x00000000        0x0 c:/msys64/home/kyleo/qmk_utils/avr8-gnu-toolchain/bin/../lib/gcc/avr/8.3.0/avr5\libgcc.a(_divmodqi4.o)
 .text.libgcc.builtins
                0x00000000        0x0 c:/msys64/home/kyleo/qmk_utils/avr8-gnu-toolchain/bin/../lib/gcc/avr/8.3.0/avr5\libgcc.a(_divmodqi4.o)
 .text.libgcc.fmul
                0x00000000        0x0 c:/msys64/home/kyleo/qmk_utils/avr8-gnu-toolchain/bin/../lib/gcc/avr/8.3.0/avr5\libgcc.a(_divmodqi4.o)
 .text.libgcc.fixed
                0x00000000        0x0 c:/msys64/home/kyleo/qmk_utils/avr8-gnu-toolchain/bin/../lib/gcc/avr/8.3.0/avr5\libgcc.a(_divmodqi4.o)
 .text          0x00000000        0x0 c:/msys64/home/kyleo/qmk_utils/avr8-gnu-toolchain/bin/../lib/gcc/avr/8.3.0/avr5\libgcc.a(_udivmodhi4.o)
 .data          0x00000000        0x0 c:/msys64/home/kyleo/qmk_utils/avr8-gnu-toolchain/bin/../lib/gcc/avr/8.3.0/avr5\libgcc.a(_udivmodhi4.o)
 .bss           0x00000000        0x0 c:/msys64/home/kyleo/qmk_utils/avr8-gnu-toolchain/bin/../lib/gcc/avr/8.3.0/avr5\libgcc.a(_udivmodhi4.o)
 .text.libgcc.mul
                0x00000000        0x0 c:/msys64/home/kyleo/qmk_utils/avr8-gnu-toolchain/bin/../lib/gcc/avr/8.3.0/avr5\libgcc.a(_udivmodhi4.o)
 .text.libgcc   0x00000000        0x0 c:/msys64/home/kyleo/qmk_utils/avr8-gnu-toolchain/bin/../lib/gcc/avr/8.3.0/avr5\libgcc.a(_udivmodhi4.o)
 .text.libgcc.prologue
                0x00000000        0x0 c:/msys64/home/kyleo/qmk_utils/avr8-gnu-toolchain/bin/../lib/gcc/avr/8.3.0/avr5\libgcc.a(_udivmodhi4.o)
 .text.libgcc.builtins
                0x00000000        0x0 c:/msys64/home/kyleo/qmk_utils/avr8-gnu-toolchain/bin/../lib/gcc/avr/8.3.0/avr5\libgcc.a(_udivmodhi4.o)
 .text.libgcc.fmul
                0x00000000        0x0 c:/msys64/home/kyleo/qmk_utils/avr8-gnu-toolchain/bin/../lib/gcc/avr/8.3.0/avr5\libgcc.a(_udivmodhi4.o)
 .text.libgcc.fixed
                0x00000000        0x0 c:/msys64/home/kyleo/qmk_utils/avr8-gnu-toolchain/bin/../lib/gcc/avr/8.3.0/avr5\libgcc.a(_udivmodhi4.o)
 .text          0x00000000        0x0 c:/msys64/home/kyleo/qmk_utils/avr8-gnu-toolchain/bin/../lib/gcc/avr/8.3.0/avr5\libgcc.a(_divmodhi4.o)
 .data          0x00000000        0x0 c:/msys64/home/kyleo/qmk_utils/avr8-gnu-toolchain/bin/../lib/gcc/avr/8.3.0/avr5\libgcc.a(_divmodhi4.o)
 .bss           0x00000000        0x0 c:/msys64/home/kyleo/qmk_utils/avr8-gnu-toolchain/bin/../lib/gcc/avr/8.3.0/avr5\libgcc.a(_divmodhi4.o)
 .text.libgcc.mul
                0x00000000        0x0 c:/msys64/home/kyleo/qmk_utils/avr8-gnu-toolchain/bin/../lib/gcc/avr/8.3.0/avr5\libgcc.a(_divmodhi4.o)
 .text.libgcc   0x00000000        0x0 c:/msys64/home/kyleo/qmk_utils/avr8-gnu-toolchain/bin/../lib/gcc/avr/8.3.0/avr5\libgcc.a(_divmodhi4.o)
 .text.libgcc.prologue
                0x00000000        0x0 c:/msys64/home/kyleo/qmk_utils/avr8-gnu-toolchain/bin/../lib/gcc/avr/8.3.0/avr5\libgcc.a(_divmodhi4.o)
 .text.libgcc.builtins
                0x00000000        0x0 c:/msys64/home/kyleo/qmk_utils/avr8-gnu-toolchain/bin/../lib/gcc/avr/8.3.0/avr5\libgcc.a(_divmodhi4.o)
 .text.libgcc.fmul
                0x00000000        0x0 c:/msys64/home/kyleo/qmk_utils/avr8-gnu-toolchain/bin/../lib/gcc/avr/8.3.0/avr5\libgcc.a(_divmodhi4.o)
 .text.libgcc.fixed
                0x00000000        0x0 c:/msys64/home/kyleo/qmk_utils/avr8-gnu-toolchain/bin/../lib/gcc/avr/8.3.0/avr5\libgcc.a(_divmodhi4.o)
 .text          0x00000000        0x0 c:/msys64/home/kyleo/qmk_utils/avr8-gnu-toolchain/bin/../lib/gcc/avr/8.3.0/avr5\libgcc.a(_exit.o)
 .data          0x00000000        0x0 c:/msys64/home/kyleo/qmk_utils/avr8-gnu-toolchain/bin/../lib/gcc/avr/8.3.0/avr5\libgcc.a(_exit.o)
 .bss           0x00000000        0x0 c:/msys64/home/kyleo/qmk_utils/avr8-gnu-toolchain/bin/../lib/gcc/avr/8.3.0/avr5\libgcc.a(_exit.o)
 .text.libgcc.mul
                0x00000000        0x0 c:/msys64/home/kyleo/qmk_utils/avr8-gnu-toolchain/bin/../lib/gcc/avr/8.3.0/avr5\libgcc.a(_exit.o)
 .text.libgcc.div
                0x00000000        0x0 c:/msys64/home/kyleo/qmk_utils/avr8-gnu-toolchain/bin/../lib/gcc/avr/8.3.0/avr5\libgcc.a(_exit.o)
 .text.libgcc   0x00000000        0x0 c:/msys64/home/kyleo/qmk_utils/avr8-gnu-toolchain/bin/../lib/gcc/avr/8.3.0/avr5\libgcc.a(_exit.o)
 .text.libgcc.prologue
                0x00000000        0x0 c:/msys64/home/kyleo/qmk_utils/avr8-gnu-toolchain/bin/../lib/gcc/avr/8.3.0/avr5\libgcc.a(_exit.o)
 .text.libgcc.builtins
                0x00000000        0x0 c:/msys64/home/kyleo/qmk_utils/avr8-gnu-toolchain/bin/../lib/gcc/avr/8.3.0/avr5\libgcc.a(_exit.o)
 .text.libgcc.fmul
                0x00000000        0x0 c:/msys64/home/kyleo/qmk_utils/avr8-gnu-toolchain/bin/../lib/gcc/avr/8.3.0/avr5\libgcc.a(_exit.o)
 .text.libgcc.fixed
                0x00000000        0x0 c:/msys64/home/kyleo/qmk_utils/avr8-gnu-toolchain/bin/../lib/gcc/avr/8.3.0/avr5\libgcc.a(_exit.o)
 .text          0x00000000        0x0 c:/msys64/home/kyleo/qmk_utils/avr8-gnu-toolchain/bin/../lib/gcc/avr/8.3.0/avr5\libgcc.a(_tablejump2.o)
 .data          0x00000000        0x0 c:/msys64/home/kyleo/qmk_utils/avr8-gnu-toolchain/bin/../lib/gcc/avr/8.3.0/avr5\libgcc.a(_tablejump2.o)
 .bss           0x00000000        0x0 c:/msys64/home/kyleo/qmk_utils/avr8-gnu-toolchain/bin/../lib/gcc/avr/8.3.0/avr5\libgcc.a(_tablejump2.o)
 .text.libgcc.mul
                0x00000000        0x0 c:/msys64/home/kyleo/qmk_utils/avr8-gnu-toolchain/bin/../lib/gcc/avr/8.3.0/avr5\libgcc.a(_tablejump2.o)
 .text.libgcc.div
                0x00000000        0x0 c:/msys64/home/kyleo/qmk_utils/avr8-gnu-toolchain/bin/../lib/gcc/avr/8.3.0/avr5\libgcc.a(_tablejump2.o)
 .text.libgcc.prologue
                0x00000000        0x0 c:/msys64/home/kyleo/qmk_utils/avr8-gnu-toolchain/bin/../lib/gcc/avr/8.3.0/avr5\libgcc.a(_tablejump2.o)
 .text.libgcc.builtins
                0x00000000        0x0 c:/msys64/home/kyleo/qmk_utils/avr8-gnu-toolchain/bin/../lib/gcc/avr/8.3.0/avr5\libgcc.a(_tablejump2.o)
 .text.libgcc.fmul
                0x00000000        0x0 c:/msys64/home/kyleo/qmk_utils/avr8-gnu-toolchain/bin/../lib/gcc/avr/8.3.0/avr5\libgcc.a(_tablejump2.o)
 .text.libgcc.fixed
                0x00000000        0x0 c:/msys64/home/kyleo/qmk_utils/avr8-gnu-toolchain/bin/../lib/gcc/avr/8.3.0/avr5\libgcc.a(_tablejump2.o)
 .text          0x00000000        0x0 c:/msys64/home/kyleo/qmk_utils/avr8-gnu-toolchain/bin/../lib/gcc/avr/8.3.0/avr5\libgcc.a(_copy_data.o)
 .data          0x00000000        0x0 c:/msys64/home/kyleo/qmk_utils/avr8-gnu-toolchain/bin/../lib/gcc/avr/8.3.0/avr5\libgcc.a(_copy_data.o)
 .bss           0x00000000        0x0 c:/msys64/home/kyleo/qmk_utils/avr8-gnu-toolchain/bin/../lib/gcc/avr/8.3.0/avr5\libgcc.a(_copy_data.o)
 .text.libgcc.mul
                0x00000000        0x0 c:/msys64/home/kyleo/qmk_utils/avr8-gnu-toolchain/bin/../lib/gcc/avr/8.3.0/avr5\libgcc.a(_copy_data.o)
 .text.libgcc.div
                0x00000000        0x0 c:/msys64/home/kyleo/qmk_utils/avr8-gnu-toolchain/bin/../lib/gcc/avr/8.3.0/avr5\libgcc.a(_copy_data.o)
 .text.libgcc   0x00000000        0x0 c:/msys64/home/kyleo/qmk_utils/avr8-gnu-toolchain/bin/../lib/gcc/avr/8.3.0/avr5\libgcc.a(_copy_data.o)
 .text.libgcc.prologue
                0x00000000        0x0 c:/msys64/home/kyleo/qmk_utils/avr8-gnu-toolchain/bin/../lib/gcc/avr/8.3.0/avr5\libgcc.a(_copy_data.o)
 .text.libgcc.builtins
                0x00000000        0x0 c:/msys64/home/kyleo/qmk_utils/avr8-gnu-toolchain/bin/../lib/gcc/avr/8.3.0/avr5\libgcc.a(_copy_data.o)
 .text.libgcc.fmul
                0x00000000        0x0 c:/msys64/home/kyleo/qmk_utils/avr8-gnu-toolchain/bin/../lib/gcc/avr/8.3.0/avr5\libgcc.a(_copy_data.o)
 .text.libgcc.fixed
                0x00000000        0x0 c:/msys64/home/kyleo/qmk_utils/avr8-gnu-toolchain/bin/../lib/gcc/avr/8.3.0/avr5\libgcc.a(_copy_data.o)
 .text          0x00000000        0x0 c:/msys64/home/kyleo/qmk_utils/avr8-gnu-toolchain/bin/../lib/gcc/avr/8.3.0/avr5\libgcc.a(_clear_bss.o)
 .data          0x00000000        0x0 c:/msys64/home/kyleo/qmk_utils/avr8-gnu-toolchain/bin/../lib/gcc/avr/8.3.0/avr5\libgcc.a(_clear_bss.o)
 .bss           0x00000000        0x0 c:/msys64/home/kyleo/qmk_utils/avr8-gnu-toolchain/bin/../lib/gcc/avr/8.3.0/avr5\libgcc.a(_clear_bss.o)
 .text.libgcc.mul
                0x00000000        0x0 c:/msys64/home/kyleo/qmk_utils/avr8-gnu-toolchain/bin/../lib/gcc/avr/8.3.0/avr5\libgcc.a(_clear_bss.o)
 .text.libgcc.div
                0x00000000        0x0 c:/msys64/home/kyleo/qmk_utils/avr8-gnu-toolchain/bin/../lib/gcc/avr/8.3.0/avr5\libgcc.a(_clear_bss.o)
 .text.libgcc   0x00000000        0x0 c:/msys64/home/kyleo/qmk_utils/avr8-gnu-toolchain/bin/../lib/gcc/avr/8.3.0/avr5\libgcc.a(_clear_bss.o)
 .text.libgcc.prologue
                0x00000000        0x0 c:/msys64/home/kyleo/qmk_utils/avr8-gnu-toolchain/bin/../lib/gcc/avr/8.3.0/avr5\libgcc.a(_clear_bss.o)
 .text.libgcc.builtins
                0x00000000        0x0 c:/msys64/home/kyleo/qmk_utils/avr8-gnu-toolchain/bin/../lib/gcc/avr/8.3.0/avr5\libgcc.a(_clear_bss.o)
 .text.libgcc.fmul
                0x00000000        0x0 c:/msys64/home/kyleo/qmk_utils/avr8-gnu-toolchain/bin/../lib/gcc/avr/8.3.0/avr5\libgcc.a(_clear_bss.o)
 .text.libgcc.fixed
                0x00000000        0x0 c:/msys64/home/kyleo/qmk_utils/avr8-gnu-toolchain/bin/../lib/gcc/avr/8.3.0/avr5\libgcc.a(_clear_bss.o)
 .text          0x00000000        0x0 c:/msys64/home/kyleo/qmk_utils/avr8-gnu-toolchain/bin/../lib/gcc/avr/8.3.0/avr5\libgcc.a(_udivmodqi4.o)
 .data          0x00000000        0x0 c:/msys64/home/kyleo/qmk_utils/avr8-gnu-toolchain/bin/../lib/gcc/avr/8.3.0/avr5\libgcc.a(_udivmodqi4.o)
 .bss           0x00000000        0x0 c:/msys64/home/kyleo/qmk_utils/avr8-gnu-toolchain/bin/../lib/gcc/avr/8.3.0/avr5\libgcc.a(_udivmodqi4.o)
 .text.libgcc.mul
                0x00000000        0x0 c:/msys64/home/kyleo/qmk_utils/avr8-gnu-toolchain/bin/../lib/gcc/avr/8.3.0/avr5\libgcc.a(_udivmodqi4.o)
 .text.libgcc   0x00000000        0x0 c:/msys64/home/kyleo/qmk_utils/avr8-gnu-toolchain/bin/../lib/gcc/avr/8.3.0/avr5\libgcc.a(_udivmodqi4.o)
 .text.libgcc.prologue
                0x00000000        0x0 c:/msys64/home/kyleo/qmk_utils/avr8-gnu-toolchain/bin/../lib/gcc/avr/8.3.0/avr5\libgcc.a(_udivmodqi4.o)
 .text.libgcc.builtins
                0x00000000        0x0 c:/msys64/home/kyleo/qmk_utils/avr8-gnu-toolchain/bin/../lib/gcc/avr/8.3.0/avr5\libgcc.a(_udivmodqi4.o)
 .text.libgcc.fmul
                0x00000000        0x0 c:/msys64/home/kyleo/qmk_utils/avr8-gnu-toolchain/bin/../lib/gcc/avr/8.3.0/avr5\libgcc.a(_udivmodqi4.o)
 .text.libgcc.fixed
                0x00000000        0x0 c:/msys64/home/kyleo/qmk_utils/avr8-gnu-toolchain/bin/../lib/gcc/avr/8.3.0/avr5\libgcc.a(_udivmodqi4.o)
 .text          0x00000000        0x0 c:/msys64/home/kyleo/qmk_utils/avr8-gnu-toolchain/bin/../lib/gcc/avr/8.3.0/../../../../avr/lib/avr5\libc.a(memchr.o)
 .data          0x00000000        0x0 c:/msys64/home/kyleo/qmk_utils/avr8-gnu-toolchain/bin/../lib/gcc/avr/8.3.0/../../../../avr/lib/avr5\libc.a(memchr.o)
 .bss           0x00000000        0x0 c:/msys64/home/kyleo/qmk_utils/avr8-gnu-toolchain/bin/../lib/gcc/avr/8.3.0/../../../../avr/lib/avr5\libc.a(memchr.o)
 .text          0x00000000        0x0 c:/msys64/home/kyleo/qmk_utils/avr8-gnu-toolchain/bin/../lib/gcc/avr/8.3.0/../../../../avr/lib/avr5\libc.a(memcmp.o)
 .data          0x00000000        0x0 c:/msys64/home/kyleo/qmk_utils/avr8-gnu-toolchain/bin/../lib/gcc/avr/8.3.0/../../../../avr/lib/avr5\libc.a(memcmp.o)
 .bss           0x00000000        0x0 c:/msys64/home/kyleo/qmk_utils/avr8-gnu-toolchain/bin/../lib/gcc/avr/8.3.0/../../../../avr/lib/avr5\libc.a(memcmp.o)
 .text          0x00000000        0x0 c:/msys64/home/kyleo/qmk_utils/avr8-gnu-toolchain/bin/../lib/gcc/avr/8.3.0/../../../../avr/lib/avr5\libc.a(memmove.o)
 .data          0x00000000        0x0 c:/msys64/home/kyleo/qmk_utils/avr8-gnu-toolchain/bin/../lib/gcc/avr/8.3.0/../../../../avr/lib/avr5\libc.a(memmove.o)
 .bss           0x00000000        0x0 c:/msys64/home/kyleo/qmk_utils/avr8-gnu-toolchain/bin/../lib/gcc/avr/8.3.0/../../../../avr/lib/avr5\libc.a(memmove.o)
 .text          0x00000000        0x0 c:/msys64/home/kyleo/qmk_utils/avr8-gnu-toolchain/bin/../lib/gcc/avr/8.3.0/../../../../avr/lib/avr5\libc.a(memset.o)
 .data          0x00000000        0x0 c:/msys64/home/kyleo/qmk_utils/avr8-gnu-toolchain/bin/../lib/gcc/avr/8.3.0/../../../../avr/lib/avr5\libc.a(memset.o)
 .bss           0x00000000        0x0 c:/msys64/home/kyleo/qmk_utils/avr8-gnu-toolchain/bin/../lib/gcc/avr/8.3.0/../../../../avr/lib/avr5\libc.a(memset.o)
 .text          0x00000000        0x0 c:/msys64/home/kyleo/qmk_utils/avr8-gnu-toolchain/bin/../lib/gcc/avr/8.3.0/../../../../avr/lib/avr5\libc.a(strcpy.o)
 .data          0x00000000        0x0 c:/msys64/home/kyleo/qmk_utils/avr8-gnu-toolchain/bin/../lib/gcc/avr/8.3.0/../../../../avr/lib/avr5\libc.a(strcpy.o)
 .bss           0x00000000        0x0 c:/msys64/home/kyleo/qmk_utils/avr8-gnu-toolchain/bin/../lib/gcc/avr/8.3.0/../../../../avr/lib/avr5\libc.a(strcpy.o)
 .text          0x00000000        0x0 c:/msys64/home/kyleo/qmk_utils/avr8-gnu-toolchain/bin/../lib/gcc/avr/8.3.0/../../../../avr/lib/avr5\libc.a(snprintf.o)
 .data          0x00000000        0x0 c:/msys64/home/kyleo/qmk_utils/avr8-gnu-toolchain/bin/../lib/gcc/avr/8.3.0/../../../../avr/lib/avr5\libc.a(snprintf.o)
 .bss           0x00000000        0x0 c:/msys64/home/kyleo/qmk_utils/avr8-gnu-toolchain/bin/../lib/gcc/avr/8.3.0/../../../../avr/lib/avr5\libc.a(snprintf.o)
 .text          0x00000000        0x0 c:/msys64/home/kyleo/qmk_utils/avr8-gnu-toolchain/bin/../lib/gcc/avr/8.3.0/../../../../avr/lib/avr5\libc.a(vfprintf_std.o)
 .data          0x00000000        0x0 c:/msys64/home/kyleo/qmk_utils/avr8-gnu-toolchain/bin/../lib/gcc/avr/8.3.0/../../../../avr/lib/avr5\libc.a(vfprintf_std.o)
 .bss           0x00000000        0x0 c:/msys64/home/kyleo/qmk_utils/avr8-gnu-toolchain/bin/../lib/gcc/avr/8.3.0/../../../../avr/lib/avr5\libc.a(vfprintf_std.o)
 .text          0x00000000        0x0 c:/msys64/home/kyleo/qmk_utils/avr8-gnu-toolchain/bin/../lib/gcc/avr/8.3.0/../../../../avr/lib/avr5\libc.a(strnlen_P.o)
 .data          0x00000000        0x0 c:/msys64/home/kyleo/qmk_utils/avr8-gnu-toolchain/bin/../lib/gcc/avr/8.3.0/../../../../avr/lib/avr5\libc.a(strnlen_P.o)
 .bss           0x00000000        0x0 c:/msys64/home/kyleo/qmk_utils/avr8-gnu-toolchain/bin/../lib/gcc/avr/8.3.0/../../../../avr/lib/avr5\libc.a(strnlen_P.o)
 .text          0x00000000        0x0 c:/msys64/home/kyleo/qmk_utils/avr8-gnu-toolchain/bin/../lib/gcc/avr/8.3.0/../../../../avr/lib/avr5\libc.a(memcpy.o)
 .data          0x00000000        0x0 c:/msys64/home/kyleo/qmk_utils/avr8-gnu-toolchain/bin/../lib/gcc/avr/8.3.0/../../../../avr/lib/avr5\libc.a(memcpy.o)
 .bss           0x00000000        0x0 c:/msys64/home/kyleo/qmk_utils/avr8-gnu-toolchain/bin/../lib/gcc/avr/8.3.0/../../../../avr/lib/avr5\libc.a(memcpy.o)
 .text          0x00000000        0x0 c:/msys64/home/kyleo/qmk_utils/avr8-gnu-toolchain/bin/../lib/gcc/avr/8.3.0/../../../../avr/lib/avr5\libc.a(strnlen.o)
 .data          0x00000000        0x0 c:/msys64/home/kyleo/qmk_utils/avr8-gnu-toolchain/bin/../lib/gcc/avr/8.3.0/../../../../avr/lib/avr5\libc.a(strnlen.o)
 .bss           0x00000000        0x0 c:/msys64/home/kyleo/qmk_utils/avr8-gnu-toolchain/bin/../lib/gcc/avr/8.3.0/../../../../avr/lib/avr5\libc.a(strnlen.o)
 .text          0x00000000        0x0 c:/msys64/home/kyleo/qmk_utils/avr8-gnu-toolchain/bin/../lib/gcc/avr/8.3.0/../../../../avr/lib/avr5\libc.a(fputc.o)
 .data          0x00000000        0x0 c:/msys64/home/kyleo/qmk_utils/avr8-gnu-toolchain/bin/../lib/gcc/avr/8.3.0/../../../../avr/lib/avr5\libc.a(fputc.o)
 .bss           0x00000000        0x0 c:/msys64/home/kyleo/qmk_utils/avr8-gnu-toolchain/bin/../lib/gcc/avr/8.3.0/../../../../avr/lib/avr5\libc.a(fputc.o)
 .text          0x00000000        0x0 c:/msys64/home/kyleo/qmk_utils/avr8-gnu-toolchain/bin/../lib/gcc/avr/8.3.0/../../../../avr/lib/avr5\libc.a(ultoa_invert.o)
 .data          0x00000000        0x0 c:/msys64/home/kyleo/qmk_utils/avr8-gnu-toolchain/bin/../lib/gcc/avr/8.3.0/../../../../avr/lib/avr5\libc.a(ultoa_invert.o)
 .bss           0x00000000        0x0 c:/msys64/home/kyleo/qmk_utils/avr8-gnu-toolchain/bin/../lib/gcc/avr/8.3.0/../../../../avr/lib/avr5\libc.a(ultoa_invert.o)
 .text          0x00000000        0x0 c:/msys64/home/kyleo/qmk_utils/avr8-gnu-toolchain/bin/../lib/gcc/avr/8.3.0/../../../../avr/lib/avr5\libatmega32u4.a(eerd_byte.o)
 .data          0x00000000        0x0 c:/msys64/home/kyleo/qmk_utils/avr8-gnu-toolchain/bin/../lib/gcc/avr/8.3.0/../../../../avr/lib/avr5\libatmega32u4.a(eerd_byte.o)
 .bss           0x00000000        0x0 c:/msys64/home/kyleo/qmk_utils/avr8-gnu-toolchain/bin/../lib/gcc/avr/8.3.0/../../../../avr/lib/avr5\libatmega32u4.a(eerd_byte.o)
 .text          0x00000000        0x0 c:/msys64/home/kyleo/qmk_utils/avr8-gnu-toolchain/bin/../lib/gcc/avr/8.3.0/../../../../avr/lib/avr5\libatmega32u4.a(eerd_dword.o)
 .data          0x00000000        0x0 c:/msys64/home/kyleo/qmk_utils/avr8-gnu-toolchain/bin/../lib/gcc/avr/8.3.0/../../../../avr/lib/avr5\libatmega32u4.a(eerd_dword.o)
 .bss           0x00000000        0x0 c:/msys64/home/kyleo/qmk_utils/avr8-gnu-toolchain/bin/../lib/gcc/avr/8.3.0/../../../../avr/lib/avr5\libatmega32u4.a(eerd_dword.o)
 .text          0x00000000        0x0 c:/msys64/home/kyleo/qmk_utils/avr8-gnu-toolchain/bin/../lib/gcc/avr/8.3.0/../../../../avr/lib/avr5\libatmega32u4.a(eerd_word.o)
 .data          0x00000000        0x0 c:/msys64/home/kyleo/qmk_utils/avr8-gnu-toolchain/bin/../lib/gcc/avr/8.3.0/../../../../avr/lib/avr5\libatmega32u4.a(eerd_word.o)
 .bss           0x00000000        0x0 c:/msys64/home/kyleo/qmk_utils/avr8-gnu-toolchain/bin/../lib/gcc/avr/8.3.0/../../../../avr/lib/avr5\libatmega32u4.a(eerd_word.o)
 .text          0x00000000        0x0 c:/msys64/home/kyleo/qmk_utils/avr8-gnu-toolchain/bin/../lib/gcc/avr/8.3.0/../../../../avr/lib/avr5\libatmega32u4.a(eeupd_byte.o)
 .data          0x00000000        0x0 c:/msys64/home/kyleo/qmk_utils/avr8-gnu-toolchain/bin/../lib/gcc/avr/8.3.0/../../../../avr/lib/avr5\libatmega32u4.a(eeupd_byte.o)
 .bss           0x00000000        0x0 c:/msys64/home/kyleo/qmk_utils/avr8-gnu-toolchain/bin/../lib/gcc/avr/8.3.0/../../../../avr/lib/avr5\libatmega32u4.a(eeupd_byte.o)
 .text          0x00000000        0x0 c:/msys64/home/kyleo/qmk_utils/avr8-gnu-toolchain/bin/../lib/gcc/avr/8.3.0/../../../../avr/lib/avr5\libatmega32u4.a(eeupd_dword.o)
 .data          0x00000000        0x0 c:/msys64/home/kyleo/qmk_utils/avr8-gnu-toolchain/bin/../lib/gcc/avr/8.3.0/../../../../avr/lib/avr5\libatmega32u4.a(eeupd_dword.o)
 .bss           0x00000000        0x0 c:/msys64/home/kyleo/qmk_utils/avr8-gnu-toolchain/bin/../lib/gcc/avr/8.3.0/../../../../avr/lib/avr5\libatmega32u4.a(eeupd_dword.o)
 .text          0x00000000        0x0 c:/msys64/home/kyleo/qmk_utils/avr8-gnu-toolchain/bin/../lib/gcc/avr/8.3.0/../../../../avr/lib/avr5\libatmega32u4.a(eeupd_word.o)
 .data          0x00000000        0x0 c:/msys64/home/kyleo/qmk_utils/avr8-gnu-toolchain/bin/../lib/gcc/avr/8.3.0/../../../../avr/lib/avr5\libatmega32u4.a(eeupd_word.o)
 .bss           0x00000000        0x0 c:/msys64/home/kyleo/qmk_utils/avr8-gnu-toolchain/bin/../lib/gcc/avr/8.3.0/../../../../avr/lib/avr5\libatmega32u4.a(eeupd_word.o)
 .text          0x00000000        0x0 c:/msys64/home/kyleo/qmk_utils/avr8-gnu-toolchain/bin/../lib/gcc/avr/8.3.0/../../../../avr/lib/avr5\libatmega32u4.a(eerd_block.o)
 .data          0x00000000        0x0 c:/msys64/home/kyleo/qmk_utils/avr8-gnu-toolchain/bin/../lib/gcc/avr/8.3.0/../../../../avr/lib/avr5\libatmega32u4.a(eerd_block.o)
 .bss           0x00000000        0x0 c:/msys64/home/kyleo/qmk_utils/avr8-gnu-toolchain/bin/../lib/gcc/avr/8.3.0/../../../../avr/lib/avr5\libatmega32u4.a(eerd_block.o)
 .text          0x00000000        0x0 c:/msys64/home/kyleo/qmk_utils/avr8-gnu-toolchain/bin/../lib/gcc/avr/8.3.0/avr5\libgcc.a(_prologue.o)
 .data          0x00000000        0x0 c:/msys64/home/kyleo/qmk_utils/avr8-gnu-toolchain/bin/../lib/gcc/avr/8.3.0/avr5\libgcc.a(_prologue.o)
 .bss           0x00000000        0x0 c:/msys64/home/kyleo/qmk_utils/avr8-gnu-toolchain/bin/../lib/gcc/avr/8.3.0/avr5\libgcc.a(_prologue.o)
 .text.libgcc.mul
                0x00000000        0x0 c:/msys64/home/kyleo/qmk_utils/avr8-gnu-toolchain/bin/../lib/gcc/avr/8.3.0/avr5\libgcc.a(_prologue.o)
 .text.libgcc.div
                0x00000000        0x0 c:/msys64/home/kyleo/qmk_utils/avr8-gnu-toolchain/bin/../lib/gcc/avr/8.3.0/avr5\libgcc.a(_prologue.o)
 .text.libgcc   0x00000000        0x0 c:/msys64/home/kyleo/qmk_utils/avr8-gnu-toolchain/bin/../lib/gcc/avr/8.3.0/avr5\libgcc.a(_prologue.o)
 .text.libgcc.builtins
                0x00000000        0x0 c:/msys64/home/kyleo/qmk_utils/avr8-gnu-toolchain/bin/../lib/gcc/avr/8.3.0/avr5\libgcc.a(_prologue.o)
 .text.libgcc.fmul
                0x00000000        0x0 c:/msys64/home/kyleo/qmk_utils/avr8-gnu-toolchain/bin/../lib/gcc/avr/8.3.0/avr5\libgcc.a(_prologue.o)
 .text.libgcc.fixed
                0x00000000        0x0 c:/msys64/home/kyleo/qmk_utils/avr8-gnu-toolchain/bin/../lib/gcc/avr/8.3.0/avr5\libgcc.a(_prologue.o)
 .text          0x00000000        0x0 c:/msys64/home/kyleo/qmk_utils/avr8-gnu-toolchain/bin/../lib/gcc/avr/8.3.0/avr5\libgcc.a(_epilogue.o)
 .data          0x00000000        0x0 c:/msys64/home/kyleo/qmk_utils/avr8-gnu-toolchain/bin/../lib/gcc/avr/8.3.0/avr5\libgcc.a(_epilogue.o)
 .bss           0x00000000        0x0 c:/msys64/home/kyleo/qmk_utils/avr8-gnu-toolchain/bin/../lib/gcc/avr/8.3.0/avr5\libgcc.a(_epilogue.o)
 .text.libgcc.mul
                0x00000000        0x0 c:/msys64/home/kyleo/qmk_utils/avr8-gnu-toolchain/bin/../lib/gcc/avr/8.3.0/avr5\libgcc.a(_epilogue.o)
 .text.libgcc.div
                0x00000000        0x0 c:/msys64/home/kyleo/qmk_utils/avr8-gnu-toolchain/bin/../lib/gcc/avr/8.3.0/avr5\libgcc.a(_epilogue.o)
 .text.libgcc   0x00000000        0x0 c:/msys64/home/kyleo/qmk_utils/avr8-gnu-toolchain/bin/../lib/gcc/avr/8.3.0/avr5\libgcc.a(_epilogue.o)
 .text.libgcc.builtins
                0x00000000        0x0 c:/msys64/home/kyleo/qmk_utils/avr8-gnu-toolchain/bin/../lib/gcc/avr/8.3.0/avr5\libgcc.a(_epilogue.o)
 .text.libgcc.fmul
                0x00000000        0x0 c:/msys64/home/kyleo/qmk_utils/avr8-gnu-toolchain/bin/../lib/gcc/avr/8.3.0/avr5\libgcc.a(_epilogue.o)
 .text.libgcc.fixed
                0x00000000        0x0 c:/msys64/home/kyleo/qmk_utils/avr8-gnu-toolchain/bin/../lib/gcc/avr/8.3.0/avr5\libgcc.a(_epilogue.o)

Memory Configuration

Name             Origin             Length             Attributes
text             0x00000000         0x00020000         xr
data             0x00800060         0x0000ffa0         rw !x
eeprom           0x00810000         0x00010000         rw !x
fuse             0x00820000         0x00000400         rw !x
lock             0x00830000         0x00000400         rw !x
signature        0x00840000         0x00000400         rw !x
user_signatures  0x00850000         0x00000400         rw !x
*default*        0x00000000         0xffffffff

Linker script and memory map

Address of section .data set to 0x800100
LOAD c:/msys64/home/kyleo/qmk_utils/avr8-gnu-toolchain/bin/../lib/gcc/avr/8.3.0/../../../../avr/lib/avr5/crtatmega32u4.o
LOAD .build/obj_lily58_rev1_default/i2c.o
LOAD .build/obj_lily58_rev1_default/serial.o
LOAD .build/obj_lily58_rev1_default/ssd1306.o
LOAD .build/obj_lily58_rev1_default/rev1/matrix.o
LOAD .build/obj_lily58_rev1_default/rev1/split_util.o
LOAD .build/obj_lily58_rev1_default/rev1/split_scomm.o
LOAD .build/obj_lily58_rev1_default/./lib/glcdfont.o
LOAD .build/obj_lily58_rev1_default/./lib/rgb_state_reader.o
LOAD .build/obj_lily58_rev1_default/./lib/layer_state_reader.o
LOAD .build/obj_lily58_rev1_default/./lib/logo_reader.o
LOAD .build/obj_lily58_rev1_default/./lib/keylogger.o
LOAD .build/obj_lily58_rev1_default/keyboards/lily58/lily58.o
LOAD .build/obj_lily58_rev1_default/keyboards/lily58/rev1/rev1.o
LOAD .build/obj_lily58_rev1_default/keyboards/lily58/keymaps/default/keymap.o
LOAD .build/obj_lily58_rev1_default/quantum/quantum.o
LOAD .build/obj_lily58_rev1_default/quantum/keymap_common.o
LOAD .build/obj_lily58_rev1_default/quantum/keycode_config.o
LOAD .build/obj_lily58_rev1_default/quantum/debounce/sym_g.o
LOAD .build/obj_lily58_rev1_default/quantum/color.o
LOAD .build/obj_lily58_rev1_default/quantum/rgblight.o
LOAD .build/obj_lily58_rev1_default/quantum/process_keycode/process_rgb.o
LOAD .build/obj_lily58_rev1_default/ws2812.o
LOAD .build/obj_lily58_rev1_default/quantum/led_tables.o
LOAD .build/obj_lily58_rev1_default/quantum/encoder.o
LOAD .build/obj_lily58_rev1_default/quantum/process_keycode/process_space_cadet.o
LOAD .build/obj_lily58_rev1_default/quantum/process_keycode/process_magic.o
LOAD .build/obj_lily58_rev1_default/quantum/process_keycode/process_grave_esc.o
LOAD .build/obj_lily58_rev1_default/serial.a
LOAD .build/obj_lily58_rev1_default/common/host.o
LOAD .build/obj_lily58_rev1_default/common/keyboard.o
LOAD .build/obj_lily58_rev1_default/common/action.o
LOAD .build/obj_lily58_rev1_default/common/action_tapping.o
LOAD .build/obj_lily58_rev1_default/common/action_macro.o
LOAD .build/obj_lily58_rev1_default/common/action_layer.o
LOAD .build/obj_lily58_rev1_default/common/action_util.o
LOAD .build/obj_lily58_rev1_default/common/print.o
LOAD .build/obj_lily58_rev1_default/common/debug.o
LOAD .build/obj_lily58_rev1_default/common/util.o
LOAD .build/obj_lily58_rev1_default/common/eeconfig.o
LOAD .build/obj_lily58_rev1_default/common/report.o
LOAD .build/obj_lily58_rev1_default/common/avr/suspend.o
LOAD .build/obj_lily58_rev1_default/common/avr/timer.o
LOAD .build/obj_lily58_rev1_default/common/avr/bootloader.o
LOAD .build/obj_lily58_rev1_default/common/avr/xprintf.o
LOAD .build/obj_lily58_rev1_default/common/magic.o
LOAD .build/obj_lily58_rev1_default/lufa.o
LOAD .build/obj_lily58_rev1_default/usb_descriptor.o
LOAD .build/obj_lily58_rev1_default/outputselect.o
LOAD .build/obj_lily58_rev1_default/lib/lufa/LUFA/Drivers/USB/Class/Common/HIDParser.o
LOAD .build/obj_lily58_rev1_default/lib/lufa/LUFA/Drivers/USB/Core/AVR8/Device_AVR8.o
LOAD .build/obj_lily58_rev1_default/lib/lufa/LUFA/Drivers/USB/Core/AVR8/EndpointStream_AVR8.o
LOAD .build/obj_lily58_rev1_default/lib/lufa/LUFA/Drivers/USB/Core/AVR8/Endpoint_AVR8.o
LOAD .build/obj_lily58_rev1_default/lib/lufa/LUFA/Drivers/USB/Core/AVR8/Host_AVR8.o
LOAD .build/obj_lily58_rev1_default/lib/lufa/LUFA/Drivers/USB/Core/AVR8/PipeStream_AVR8.o
LOAD .build/obj_lily58_rev1_default/lib/lufa/LUFA/Drivers/USB/Core/AVR8/Pipe_AVR8.o
LOAD .build/obj_lily58_rev1_default/lib/lufa/LUFA/Drivers/USB/Core/AVR8/USBController_AVR8.o
LOAD .build/obj_lily58_rev1_default/lib/lufa/LUFA/Drivers/USB/Core/AVR8/USBInterrupt_AVR8.o
LOAD .build/obj_lily58_rev1_default/lib/lufa/LUFA/Drivers/USB/Core/ConfigDescriptors.o
LOAD .build/obj_lily58_rev1_default/lib/lufa/LUFA/Drivers/USB/Core/DeviceStandardReq.o
LOAD .build/obj_lily58_rev1_default/lib/lufa/LUFA/Drivers/USB/Core/Events.o
LOAD .build/obj_lily58_rev1_default/lib/lufa/LUFA/Drivers/USB/Core/HostStandardReq.o
LOAD .build/obj_lily58_rev1_default/lib/lufa/LUFA/Drivers/USB/Core/USBTask.o
LOAD c:/msys64/home/kyleo/qmk_utils/avr8-gnu-toolchain/bin/../lib/gcc/avr/8.3.0/../../../../avr/lib/avr5\libm.a
START GROUP
LOAD c:/msys64/home/kyleo/qmk_utils/avr8-gnu-toolchain/bin/../lib/gcc/avr/8.3.0/avr5\libgcc.a
LOAD c:/msys64/home/kyleo/qmk_utils/avr8-gnu-toolchain/bin/../lib/gcc/avr/8.3.0/../../../../avr/lib/avr5\libm.a
LOAD c:/msys64/home/kyleo/qmk_utils/avr8-gnu-toolchain/bin/../lib/gcc/avr/8.3.0/../../../../avr/lib/avr5\libc.a
LOAD c:/msys64/home/kyleo/qmk_utils/avr8-gnu-toolchain/bin/../lib/gcc/avr/8.3.0/../../../../avr/lib/avr5\libatmega32u4.a
END GROUP
                0x00020000                __TEXT_REGION_LENGTH__ = DEFINED (__TEXT_REGION_LENGTH__)?__TEXT_REGION_LENGTH__:0x20000
                0x0000ffa0                __DATA_REGION_LENGTH__ = DEFINED (__DATA_REGION_LENGTH__)?__DATA_REGION_LENGTH__:0xffa0
                0x00010000                __EEPROM_REGION_LENGTH__ = DEFINED (__EEPROM_REGION_LENGTH__)?__EEPROM_REGION_LENGTH__:0x10000
                0x00000400                __FUSE_REGION_LENGTH__ = DEFINED (__FUSE_REGION_LENGTH__)?__FUSE_REGION_LENGTH__:0x400
                0x00000400                __LOCK_REGION_LENGTH__ = DEFINED (__LOCK_REGION_LENGTH__)?__LOCK_REGION_LENGTH__:0x400
                0x00000400                __SIGNATURE_REGION_LENGTH__ = DEFINED (__SIGNATURE_REGION_LENGTH__)?__SIGNATURE_REGION_LENGTH__:0x400
                0x00000400                __USER_SIGNATURE_REGION_LENGTH__ = DEFINED (__USER_SIGNATURE_REGION_LENGTH__)?__USER_SIGNATURE_REGION_LENGTH__:0x400

.hash
 *(.hash)

.dynsym
 *(.dynsym)

.dynstr
 *(.dynstr)

.gnu.version
 *(.gnu.version)

.gnu.version_d
 *(.gnu.version_d)

.gnu.version_r
 *(.gnu.version_r)

.rel.init
 *(.rel.init)

.rela.init
 *(.rela.init)

.rel.text
 *(.rel.text)
 *(.rel.text.*)
 *(.rel.gnu.linkonce.t*)

.rela.text
 *(.rela.text)
 *(.rela.text.*)
 *(.rela.gnu.linkonce.t*)

.rel.fini
 *(.rel.fini)

.rela.fini
 *(.rela.fini)

.rel.rodata
 *(.rel.rodata)
 *(.rel.rodata.*)
 *(.rel.gnu.linkonce.r*)

.rela.rodata
 *(.rela.rodata)
 *(.rela.rodata.*)
 *(.rela.gnu.linkonce.r*)

.rel.data
 *(.rel.data)
 *(.rel.data.*)
 *(.rel.gnu.linkonce.d*)

.rela.data
 *(.rela.data)
 *(.rela.data.*)
 *(.rela.gnu.linkonce.d*)

.rel.ctors
 *(.rel.ctors)

.rela.ctors
 *(.rela.ctors)

.rel.dtors
 *(.rel.dtors)

.rela.dtors
 *(.rela.dtors)

.rel.got
 *(.rel.got)

.rela.got
 *(.rela.got)

.rel.bss
 *(.rel.bss)

.rela.bss
 *(.rela.bss)

.rel.plt
 *(.rel.plt)

.rela.plt
 *(.rela.plt)

.text           0x00000000     0x5fda
 *(.vectors)
 .vectors       0x00000000       0xac c:/msys64/home/kyleo/qmk_utils/avr8-gnu-toolchain/bin/../lib/gcc/avr/8.3.0/../../../../avr/lib/avr5/crtatmega32u4.o
                0x00000000                __vector_default
                0x00000000                __vectors
 *(.vectors)
 *(.progmem.gcc*)
                0x000000ac                . = ALIGN (0x2)
                0x000000ac                __trampolines_start = .
 *(.trampolines)
 .trampolines   0x000000ac        0x0 linker stubs
 *(.trampolines*)
                0x000000ac                __trampolines_end = .
 *libprintf_flt.a:*(.progmem.data)
 *libc.a:*(.progmem.data)
 *(.progmem.*)
 .progmem.data.font
                0x000000ac      0x540 .build/obj_lily58_rev1_default/./lib/glcdfont.o
                0x000000ac                font
 .progmem.data.keymaps
                0x000005ec      0x1e0 .build/obj_lily58_rev1_default/keyboards/lily58/keymaps/default/keymap.o
                0x000005ec                keymaps
 .progmem.data.RGBLED_RGBTEST_INTERVALS
                0x000007cc        0x2 .build/obj_lily58_rev1_default/quantum/rgblight.o
                0x000007cc                RGBLED_RGBTEST_INTERVALS
 .progmem.data.RGBLED_KNIGHT_INTERVALS
                0x000007ce        0x3 .build/obj_lily58_rev1_default/quantum/rgblight.o
                0x000007ce                RGBLED_KNIGHT_INTERVALS
 .progmem.data.RGBLED_SNAKE_INTERVALS
                0x000007d1        0x3 .build/obj_lily58_rev1_default/quantum/rgblight.o
                0x000007d1                RGBLED_SNAKE_INTERVALS
 .progmem.data.RGBLED_RAINBOW_SWIRL_INTERVALS
                0x000007d4        0x3 .build/obj_lily58_rev1_default/quantum/rgblight.o
                0x000007d4                RGBLED_RAINBOW_SWIRL_INTERVALS
 .progmem.data.RGBLED_RAINBOW_MOOD_INTERVALS
                0x000007d7        0x3 .build/obj_lily58_rev1_default/quantum/rgblight.o
                0x000007d7                RGBLED_RAINBOW_MOOD_INTERVALS
 .progmem.data.RGBLED_BREATHING_INTERVALS
                0x000007da        0x4 .build/obj_lily58_rev1_default/quantum/rgblight.o
                0x000007da                RGBLED_BREATHING_INTERVALS
 .progmem.data.rgblight_effect_breathe_table
                0x000007de      0x100 .build/obj_lily58_rev1_default/quantum/rgblight.o
                0x000007de                rgblight_effect_breathe_table
 .progmem.data.RGBLED_GRADIENT_RANGES
                0x000008de        0x5 .build/obj_lily58_rev1_default/quantum/rgblight.o
                0x000008de                RGBLED_GRADIENT_RANGES
 .progmem.data.CIE1931_CURVE
                0x000008e3      0x100 .build/obj_lily58_rev1_default/quantum/led_tables.o
                0x000008e3                CIE1931_CURVE
 .progmem.data.SerialNumberString
                0x000009e3        0x6 .build/obj_lily58_rev1_default/usb_descriptor.o
                0x000009e3                SerialNumberString
 .progmem.data.ProductString
                0x000009e9       0x10 .build/obj_lily58_rev1_default/usb_descriptor.o
                0x000009e9                ProductString
 .progmem.data.ManufacturerString
                0x000009f9       0x14 .build/obj_lily58_rev1_default/usb_descriptor.o
                0x000009f9                ManufacturerString
 .progmem.data.LanguageString
                0x00000a0d        0x4 .build/obj_lily58_rev1_default/usb_descriptor.o
                0x00000a0d                LanguageString
 .progmem.data.ConfigurationDescriptor
                0x00000a11       0x3b .build/obj_lily58_rev1_default/usb_descriptor.o
                0x00000a11                ConfigurationDescriptor
 .progmem.data.DeviceDescriptor
                0x00000a4c       0x12 .build/obj_lily58_rev1_default/usb_descriptor.o
                0x00000a4c                DeviceDescriptor
 .progmem.data.SharedReport
                0x00000a5e       0x32 .build/obj_lily58_rev1_default/usb_descriptor.o
                0x00000a5e                SharedReport
 .progmem.data.KeyboardReport
                0x00000a90       0x40 .build/obj_lily58_rev1_default/usb_descriptor.o
                0x00000a90                KeyboardReport
                0x00000ad0                . = ALIGN (0x2)
 *(.lowtext)
 *(.lowtext*)
                0x00000ad0                __ctors_start = .
 *(.ctors)
                0x00000ad0                __ctors_end = .
                0x00000ad0                __dtors_start = .
 *(.dtors)
                0x00000ad0                __dtors_end = .
 SORT_BY_NAME(*)(.ctors)
 SORT_BY_NAME(*)(.dtors)
 *(.init0)
 .init0         0x00000ad0        0x0 c:/msys64/home/kyleo/qmk_utils/avr8-gnu-toolchain/bin/../lib/gcc/avr/8.3.0/../../../../avr/lib/avr5/crtatmega32u4.o
                0x00000ad0                __init
 *(.init0)
 *(.init1)
 *(.init1)
 *(.init2)
 .init2         0x00000ad0        0xc c:/msys64/home/kyleo/qmk_utils/avr8-gnu-toolchain/bin/../lib/gcc/avr/8.3.0/../../../../avr/lib/avr5/crtatmega32u4.o
 *(.init2)
 *(.init3)
 .init3         0x00000adc       0x54 .build/obj_lily58_rev1_default/common/avr/bootloader.o
                0x00000adc                bootloader_jump_after_watchdog_reset
 *(.init3)
 *(.init4)
 .init4         0x00000b30       0x16 c:/msys64/home/kyleo/qmk_utils/avr8-gnu-toolchain/bin/../lib/gcc/avr/8.3.0/avr5\libgcc.a(_copy_data.o)
                0x00000b30                __do_copy_data
 .init4         0x00000b46       0x10 c:/msys64/home/kyleo/qmk_utils/avr8-gnu-toolchain/bin/../lib/gcc/avr/8.3.0/avr5\libgcc.a(_clear_bss.o)
                0x00000b46                __do_clear_bss
 *(.init4)
 *(.init5)
 *(.init5)
 *(.init6)
 *(.init6)
 *(.init7)
 *(.init7)
 *(.init8)
 *(.init8)
 *(.init9)
 .init9         0x00000b56        0x8 c:/msys64/home/kyleo/qmk_utils/avr8-gnu-toolchain/bin/../lib/gcc/avr/8.3.0/../../../../avr/lib/avr5/crtatmega32u4.o
 *(.init9)
 *(.text)
 .text          0x00000b5e        0x4 c:/msys64/home/kyleo/qmk_utils/avr8-gnu-toolchain/bin/../lib/gcc/avr/8.3.0/../../../../avr/lib/avr5/crtatmega32u4.o
                0x00000b5e                __vector_38
                0x00000b5e                __vector_22
                0x00000b5e                __vector_28
                0x00000b5e                __vector_1
                0x00000b5e                __vector_32
                0x00000b5e                __vector_34
                0x00000b5e                __vector_24
                0x00000b5e                __bad_interrupt
                0x00000b5e                __vector_6
                0x00000b5e                __vector_31
                0x00000b5e                __vector_35
                0x00000b5e                __vector_39
                0x00000b5e                __vector_23
                0x00000b5e                __vector_30
                0x00000b5e                __vector_25
                0x00000b5e                __vector_13
                0x00000b5e                __vector_17
                0x00000b5e                __vector_19
                0x00000b5e                __vector_7
                0x00000b5e                __vector_41
                0x00000b5e                __vector_27
                0x00000b5e                __vector_5
                0x00000b5e                __vector_33
                0x00000b5e                __vector_37
                0x00000b5e                __vector_4
                0x00000b5e                __vector_9
                0x00000b5e                __vector_2
                0x00000b5e                __vector_15
                0x00000b5e                __vector_29
                0x00000b5e                __vector_40
                0x00000b5e                __vector_8
                0x00000b5e                __vector_26
                0x00000b5e                __vector_14
                0x00000b5e                __vector_16
                0x00000b5e                __vector_18
                0x00000b5e                __vector_20
                0x00000b5e                __vector_42
                0x00000b62                . = ALIGN (0x2)
 *(.text.*)
 .text.i2c_delay
                0x00000b62       0x12 .build/obj_lily58_rev1_default/i2c.o
 .text.i2c_master_init
                0x00000b74        0xc .build/obj_lily58_rev1_default/i2c.o
                0x00000b74                i2c_master_init
 .text.i2c_master_start
                0x00000b80       0x4e .build/obj_lily58_rev1_default/i2c.o
                0x00000b80                i2c_master_start
 .text.i2c_master_stop
                0x00000bce       0x18 .build/obj_lily58_rev1_default/i2c.o
                0x00000bce                i2c_master_stop
 .text.i2c_master_write
                0x00000be6       0x1e .build/obj_lily58_rev1_default/i2c.o
                0x00000be6                i2c_master_write
 .text.__vector_36
                0x00000c04       0xbe .build/obj_lily58_rev1_default/i2c.o
                0x00000c04                __vector_36
 .text.sync_recv
                0x00000cc2       0x10 .build/obj_lily58_rev1_default/serial.o
 .text.sync_send
                0x00000cd2        0xc .build/obj_lily58_rev1_default/serial.o
 .text.serial_read_chunk
                0x00000cde       0x5a .build/obj_lily58_rev1_default/serial.o
 .text.serial_recive_packet
                0x00000d38       0x50 .build/obj_lily58_rev1_default/serial.o
 .text.soft_serial_initiator_init
                0x00000d88       0x12 .build/obj_lily58_rev1_default/serial.o
                0x00000d88                soft_serial_initiator_init
 .text.soft_serial_target_init
                0x00000d9a       0x1e .build/obj_lily58_rev1_default/serial.o
                0x00000d9a                soft_serial_target_init
 .text.serial_write_chunk
                0x00000db8       0x42 .build/obj_lily58_rev1_default/serial.o
                0x00000db8                serial_write_chunk
 .text.serial_send_packet
                0x00000dfa       0x34 .build/obj_lily58_rev1_default/serial.o
 .text.__vector_3
                0x00000e2e      0x11e .build/obj_lily58_rev1_default/serial.o
                0x00000e2e                __vector_3
 .text.soft_serial_transaction
                0x00000f4c       0xfc .build/obj_lily58_rev1_default/serial.o
                0x00000f4c                soft_serial_transaction
 .text._send_cmd1
                0x00001048       0x32 .build/obj_lily58_rev1_default/ssd1306.o
 .text._send_cmd2
                0x0000107a       0x1a .build/obj_lily58_rev1_default/ssd1306.o
 .text._send_cmd3.constprop.1
                0x00001094       0x24 .build/obj_lily58_rev1_default/ssd1306.o
 .text.iota_gfx_off
                0x000010b8        0x6 .build/obj_lily58_rev1_default/ssd1306.o
                0x000010b8                iota_gfx_off
 .text.iota_gfx_on
                0x000010be        0x6 .build/obj_lily58_rev1_default/ssd1306.o
                0x000010be                iota_gfx_on
 .text.matrix_write_char_inner
                0x000010c4       0x68 .build/obj_lily58_rev1_default/ssd1306.o
                0x000010c4                matrix_write_char_inner
 .text.matrix_write_char
                0x0000112c       0x4e .build/obj_lily58_rev1_default/ssd1306.o
                0x0000112c                matrix_write_char
 .text.matrix_write
                0x0000117a       0x3c .build/obj_lily58_rev1_default/ssd1306.o
                0x0000117a                matrix_write
 .text.matrix_write_ln
                0x000011b6       0x92 .build/obj_lily58_rev1_default/ssd1306.o
                0x000011b6                matrix_write_ln
 .text.matrix_clear
                0x00001248       0x2a .build/obj_lily58_rev1_default/ssd1306.o
                0x00001248                matrix_clear
 .text.matrix_render
                0x00001272       0xc8 .build/obj_lily58_rev1_default/ssd1306.o
                0x00001272                matrix_render
 .text.iota_gfx_flush
                0x0000133a        0x8 .build/obj_lily58_rev1_default/ssd1306.o
                0x0000133a                iota_gfx_flush
 .text.iota_gfx_init
                0x00001342      0x162 .build/obj_lily58_rev1_default/ssd1306.o
                0x00001342                iota_gfx_init
 .text.iota_gfx_task
                0x000014a4       0x34 .build/obj_lily58_rev1_default/ssd1306.o
                0x000014a4                iota_gfx_task
 .text.process_record_gfx
                0x000014d8        0x8 .build/obj_lily58_rev1_default/ssd1306.o
                0x000014d8                process_record_gfx
 .text.unselect_rows
                0x000014e0       0x42 .build/obj_lily58_rev1_default/rev1/matrix.o
 .text.matrix_init_kb
                0x00001522        0x4 .build/obj_lily58_rev1_default/rev1/matrix.o
                0x00001522                matrix_init_kb
 .text.matrix_scan_kb
                0x00001526        0x4 .build/obj_lily58_rev1_default/rev1/matrix.o
                0x00001526                matrix_scan_kb
 .text.matrix_init
                0x0000152a       0x66 .build/obj_lily58_rev1_default/rev1/matrix.o
                0x0000152a                matrix_init
 .text._matrix_scan
                0x00001590      0x12a .build/obj_lily58_rev1_default/rev1/matrix.o
                0x00001590                _matrix_scan
 .text.serial_transaction
                0x000016ba       0x44 .build/obj_lily58_rev1_default/rev1/matrix.o
                0x000016ba                serial_transaction
 .text.matrix_slave_scan
                0x000016fe       0x42 .build/obj_lily58_rev1_default/rev1/matrix.o
                0x000016fe                matrix_slave_scan
 .text.matrix_scan
                0x00001740       0xb6 .build/obj_lily58_rev1_default/rev1/matrix.o
                0x00001740                matrix_scan
 .text.matrix_get_row
                0x000017f6        0xc .build/obj_lily58_rev1_default/rev1/matrix.o
                0x000017f6                matrix_get_row
 .text.matrix_print
                0x00001802        0x2 .build/obj_lily58_rev1_default/rev1/matrix.o
                0x00001802                matrix_print
 .text.waitForUsb
                0x00001804       0x32 .build/obj_lily58_rev1_default/rev1/split_util.o
                0x00001804                waitForUsb
 .text.has_usb  0x00001836       0x28 .build/obj_lily58_rev1_default/rev1/split_util.o
                0x00001836                has_usb
 .text.is_keyboard_left
                0x0000185e        0x4 .build/obj_lily58_rev1_default/rev1/split_util.o
                0x0000185e                is_keyboard_left
 .text.split_keyboard_setup
                0x00001862       0x1e .build/obj_lily58_rev1_default/rev1/split_util.o
                0x00001862                split_keyboard_setup
 .text.serial_master_init
                0x00001880        0xc .build/obj_lily58_rev1_default/rev1/split_scomm.o
                0x00001880                serial_master_init
 .text.serial_slave_init
                0x0000188c        0xc .build/obj_lily58_rev1_default/rev1/split_scomm.o
                0x0000188c                serial_slave_init
 .text.serial_update_buffers
                0x00001898       0x7a .build/obj_lily58_rev1_default/rev1/split_scomm.o
                0x00001898                serial_update_buffers
 .text.read_layer_state
                0x00001912       0x98 .build/obj_lily58_rev1_default/./lib/layer_state_reader.o
                0x00001912                read_layer_state
 .text.read_logo
                0x000019aa        0x6 .build/obj_lily58_rev1_default/./lib/logo_reader.o
                0x000019aa                read_logo
 .text.set_keylog
                0x000019b0       0x94 .build/obj_lily58_rev1_default/./lib/keylogger.o
                0x000019b0                set_keylog
 .text.read_keylog
                0x00001a44        0x6 .build/obj_lily58_rev1_default/./lib/keylogger.o
                0x00001a44                read_keylog
 .text.read_keylogs
                0x00001a4a        0x6 .build/obj_lily58_rev1_default/./lib/keylogger.o
                0x00001a4a                read_keylogs
 .text.process_record_kb
                0x00001a50       0x2c .build/obj_lily58_rev1_default/keyboards/lily58/lily58.o
                0x00001a50                process_record_kb
 .text.led_set_kb
                0x00001a7c        0x2 .build/obj_lily58_rev1_default/keyboards/lily58/rev1/rev1.o
                0x00001a7c                led_set_kb
 .text.update_tri_layer_RGB
                0x00001a7e       0xa2 .build/obj_lily58_rev1_default/keyboards/lily58/keymaps/default/keymap.o
                0x00001a7e                update_tri_layer_RGB
 .text.matrix_init_user
                0x00001b20       0x1c .build/obj_lily58_rev1_default/keyboards/lily58/keymaps/default/keymap.o
                0x00001b20                matrix_init_user
 .text.encoder_update_user
                0x00001b3c       0x12 .build/obj_lily58_rev1_default/keyboards/lily58/keymaps/default/keymap.o
                0x00001b3c                encoder_update_user
 .text.matrix_scan_user
                0x00001b4e        0x4 .build/obj_lily58_rev1_default/keyboards/lily58/keymaps/default/keymap.o
                0x00001b4e                matrix_scan_user
 .text.matrix_render_user
                0x00001b52       0x46 .build/obj_lily58_rev1_default/keyboards/lily58/keymaps/default/keymap.o
                0x00001b52                matrix_render_user
 .text.matrix_update
                0x00001b98       0x38 .build/obj_lily58_rev1_default/keyboards/lily58/keymaps/default/keymap.o
                0x00001b98                matrix_update
 .text.iota_gfx_task_user
                0x00001bd0       0x48 .build/obj_lily58_rev1_default/keyboards/lily58/keymaps/default/keymap.o
                0x00001bd0                iota_gfx_task_user
 .text.process_record_user
                0x00001c18       0x96 .build/obj_lily58_rev1_default/keyboards/lily58/keymaps/default/keymap.o
                0x00001c18                process_record_user
 .text.process_action_kb
                0x00001cae        0x4 .build/obj_lily58_rev1_default/quantum/quantum.o
                0x00001cae                process_action_kb
 .text.post_process_record_user
                0x00001cb2        0x2 .build/obj_lily58_rev1_default/quantum/quantum.o
                0x00001cb2                post_process_record_user
 .text.post_process_record_kb
                0x00001cb4        0x4 .build/obj_lily58_rev1_default/quantum/quantum.o
                0x00001cb4                post_process_record_kb
 .text.get_event_keycode
                0x00001cb8       0x62 .build/obj_lily58_rev1_default/quantum/quantum.o
                0x00001cb8                get_event_keycode
 .text.get_record_keycode
                0x00001d1a       0x10 .build/obj_lily58_rev1_default/quantum/quantum.o
                0x00001d1a                get_record_keycode
 .text.post_process_record_quantum
                0x00001d2a       0x14 .build/obj_lily58_rev1_default/quantum/quantum.o
                0x00001d2a                post_process_record_quantum
 .text.set_single_persistent_default_layer
                0x00001d3e       0x26 .build/obj_lily58_rev1_default/quantum/quantum.o
                0x00001d3e                set_single_persistent_default_layer
 .text.matrix_init_quantum
                0x00001d64       0x14 .build/obj_lily58_rev1_default/quantum/quantum.o
                0x00001d64                matrix_init_quantum
 .text.matrix_scan_quantum
                0x00001d78        0x8 .build/obj_lily58_rev1_default/quantum/quantum.o
                0x00001d78                matrix_scan_quantum
 .text.led_update_user
                0x00001d80        0x4 .build/obj_lily58_rev1_default/quantum/quantum.o
                0x00001d80                led_update_user
 .text.led_update_kb
                0x00001d84        0x4 .build/obj_lily58_rev1_default/quantum/quantum.o
                0x00001d84                led_update_kb
 .text.led_set  0x00001d88       0x10 .build/obj_lily58_rev1_default/quantum/quantum.o
                0x00001d88                led_set
 .text.shutdown_user
                0x00001d98        0x2 .build/obj_lily58_rev1_default/quantum/quantum.o
                0x00001d98                shutdown_user
 .text.reset_keyboard
                0x00001d9a       0x1e .build/obj_lily58_rev1_default/quantum/quantum.o
                0x00001d9a                reset_keyboard
 .text.process_record_quantum
                0x00001db8       0x82 .build/obj_lily58_rev1_default/quantum/quantum.o
                0x00001db8                process_record_quantum
 .text.keymap_key_to_keycode
                0x00001e3a       0x28 .build/obj_lily58_rev1_default/quantum/keymap_common.o
                0x00001e3a                keymap_key_to_keycode
 .text.action_for_key
                0x00001e62      0x1d8 .build/obj_lily58_rev1_default/quantum/keymap_common.o
                0x00001e62                action_for_key
 .text.keycode_config
                0x0000203a      0x12e .build/obj_lily58_rev1_default/quantum/keycode_config.o
                0x0000203a                keycode_config
 .text.mod_config
                0x00002168       0x86 .build/obj_lily58_rev1_default/quantum/keycode_config.o
                0x00002168                mod_config
 .text.hsv_to_rgb
                0x000021ee      0x124 .build/obj_lily58_rev1_default/quantum/color.o
                0x000021ee                hsv_to_rgb
 .text.rgblight_effect_dummy
                0x00002312        0x2 .build/obj_lily58_rev1_default/quantum/rgblight.o
 .text.sethsv_raw
                0x00002314       0x1c .build/obj_lily58_rev1_default/quantum/rgblight.o
                0x00002314                sethsv_raw
 .text.sethsv   0x00002330        0xa .build/obj_lily58_rev1_default/quantum/rgblight.o
                0x00002330                sethsv
 .text.rgblight_check_config
                0x0000233a       0x2c .build/obj_lily58_rev1_default/quantum/rgblight.o
                0x0000233a                rgblight_check_config
 .text.eeconfig_read_rgblight
                0x00002366        0x8 .build/obj_lily58_rev1_default/quantum/rgblight.o
                0x00002366                eeconfig_read_rgblight
 .text.eeconfig_update_rgblight
                0x0000236e       0x24 .build/obj_lily58_rev1_default/quantum/rgblight.o
                0x0000236e                eeconfig_update_rgblight
 .text.eeconfig_update_rgblight_default
                0x00002392       0x20 .build/obj_lily58_rev1_default/quantum/rgblight.o
                0x00002392                eeconfig_update_rgblight_default
 .text.rgblight_get_mode
                0x000023b2       0x10 .build/obj_lily58_rev1_default/quantum/rgblight.o
                0x000023b2                rgblight_get_mode
 .text.rgblight_increase_speed
                0x000023c2       0x22 .build/obj_lily58_rev1_default/quantum/rgblight.o
                0x000023c2                rgblight_increase_speed
 .text.rgblight_decrease_speed
                0x000023e4       0x22 .build/obj_lily58_rev1_default/quantum/rgblight.o
                0x000023e4                rgblight_decrease_speed
 .text.rgblight_set
                0x00002406       0x46 .build/obj_lily58_rev1_default/quantum/rgblight.o
                0x00002406                rgblight_set
 .text.rgblight_setrgb
                0x0000244c       0x32 .build/obj_lily58_rev1_default/quantum/rgblight.o
                0x0000244c                rgblight_setrgb
 .text.rgblight_sethsv_noeeprom_old
                0x0000247e       0x34 .build/obj_lily58_rev1_default/quantum/rgblight.o
                0x0000247e                rgblight_sethsv_noeeprom_old
 .text.rgblight_effect_breathing
                0x000024b2       0x28 .build/obj_lily58_rev1_default/quantum/rgblight.o
                0x000024b2                rgblight_effect_breathing
 .text.rgblight_effect_rainbow_mood
                0x000024da       0x20 .build/obj_lily58_rev1_default/quantum/rgblight.o
                0x000024da                rgblight_effect_rainbow_mood
 .text.rgblight_effect_rgbtest
                0x000024fa       0x7e .build/obj_lily58_rev1_default/quantum/rgblight.o
                0x000024fa                rgblight_effect_rgbtest
 .text.rgblight_sethsv_eeprom_helper
                0x00002578      0x124 .build/obj_lily58_rev1_default/quantum/rgblight.o
                0x00002578                rgblight_sethsv_eeprom_helper
 .text.rgblight_increase_hue_helper
                0x0000269c       0x14 .build/obj_lily58_rev1_default/quantum/rgblight.o
                0x0000269c                rgblight_increase_hue_helper
 .text.rgblight_increase_hue
                0x000026b0        0x6 .build/obj_lily58_rev1_default/quantum/rgblight.o
                0x000026b0                rgblight_increase_hue
 .text.rgblight_decrease_hue_helper
                0x000026b6       0x14 .build/obj_lily58_rev1_default/quantum/rgblight.o
                0x000026b6                rgblight_decrease_hue_helper
 .text.rgblight_decrease_hue
                0x000026ca        0x6 .build/obj_lily58_rev1_default/quantum/rgblight.o
                0x000026ca                rgblight_decrease_hue
 .text.rgblight_increase_sat_helper
                0x000026d0       0x18 .build/obj_lily58_rev1_default/quantum/rgblight.o
                0x000026d0                rgblight_increase_sat_helper
 .text.rgblight_increase_sat
                0x000026e8        0x6 .build/obj_lily58_rev1_default/quantum/rgblight.o
                0x000026e8                rgblight_increase_sat
 .text.rgblight_decrease_sat_helper
                0x000026ee       0x18 .build/obj_lily58_rev1_default/quantum/rgblight.o
                0x000026ee                rgblight_decrease_sat_helper
 .text.rgblight_decrease_sat
                0x00002706        0x6 .build/obj_lily58_rev1_default/quantum/rgblight.o
                0x00002706                rgblight_decrease_sat
 .text.rgblight_increase_val_helper
                0x0000270c       0x18 .build/obj_lily58_rev1_default/quantum/rgblight.o
                0x0000270c                rgblight_increase_val_helper
 .text.rgblight_increase_val
                0x00002724        0x6 .build/obj_lily58_rev1_default/quantum/rgblight.o
                0x00002724                rgblight_increase_val
 .text.rgblight_decrease_val_helper
                0x0000272a       0x18 .build/obj_lily58_rev1_default/quantum/rgblight.o
                0x0000272a                rgblight_decrease_val_helper
 .text.rgblight_decrease_val
                0x00002742        0x6 .build/obj_lily58_rev1_default/quantum/rgblight.o
                0x00002742                rgblight_decrease_val
 .text.rgblight_sethsv_noeeprom
                0x00002748        0x6 .build/obj_lily58_rev1_default/quantum/rgblight.o
                0x00002748                rgblight_sethsv_noeeprom
 .text.rgblight_effect_rainbow_swirl
                0x0000274e       0x7a .build/obj_lily58_rev1_default/quantum/rgblight.o
                0x0000274e                rgblight_effect_rainbow_swirl
 .text.rgblight_effect_snake
                0x000027c8       0xf4 .build/obj_lily58_rev1_default/quantum/rgblight.o
                0x000027c8                rgblight_effect_snake
 .text.rgblight_effect_knight
                0x000028bc       0xe6 .build/obj_lily58_rev1_default/quantum/rgblight.o
                0x000028bc                rgblight_effect_knight
 .text.rgblight_effect_christmas
                0x000029a2       0x76 .build/obj_lily58_rev1_default/quantum/rgblight.o
                0x000029a2                rgblight_effect_christmas
 .text.rgblight_effect_alternating
                0x00002a18       0x7a .build/obj_lily58_rev1_default/quantum/rgblight.o
                0x00002a18                rgblight_effect_alternating
 .text.rgblight_disable
                0x00002a92       0x30 .build/obj_lily58_rev1_default/quantum/rgblight.o
                0x00002a92                rgblight_disable
 .text.rgblight_timer_enable
                0x00002ac2       0x2c .build/obj_lily58_rev1_default/quantum/rgblight.o
                0x00002ac2                rgblight_timer_enable
 .text.rgblight_mode_eeprom_helper
                0x00002aee       0x74 .build/obj_lily58_rev1_default/quantum/rgblight.o
                0x00002aee                rgblight_mode_eeprom_helper
 .text.rgblight_step_helper
                0x00002b62       0x16 .build/obj_lily58_rev1_default/quantum/rgblight.o
                0x00002b62                rgblight_step_helper
 .text.rgblight_step
                0x00002b78        0x6 .build/obj_lily58_rev1_default/quantum/rgblight.o
                0x00002b78                rgblight_step
 .text.rgblight_step_reverse_helper
                0x00002b7e       0x14 .build/obj_lily58_rev1_default/quantum/rgblight.o
                0x00002b7e                rgblight_step_reverse_helper
 .text.rgblight_step_reverse
                0x00002b92        0x6 .build/obj_lily58_rev1_default/quantum/rgblight.o
                0x00002b92                rgblight_step_reverse
 .text.rgblight_mode
                0x00002b98        0x6 .build/obj_lily58_rev1_default/quantum/rgblight.o
                0x00002b98                rgblight_mode
 .text.rgblight_enable
                0x00002b9e       0x10 .build/obj_lily58_rev1_default/quantum/rgblight.o
                0x00002b9e                rgblight_enable
 .text.rgblight_toggle
                0x00002bae        0xe .build/obj_lily58_rev1_default/quantum/rgblight.o
                0x00002bae                rgblight_toggle
 .text.rgblight_mode_noeeprom
                0x00002bbc        0x6 .build/obj_lily58_rev1_default/quantum/rgblight.o
                0x00002bbc                rgblight_mode_noeeprom
 .text.rgblight_init
                0x00002bc2       0x66 .build/obj_lily58_rev1_default/quantum/rgblight.o
                0x00002bc2                rgblight_init
 .text.rgblight_task
                0x00002c28      0x136 .build/obj_lily58_rev1_default/quantum/rgblight.o
                0x00002c28                rgblight_task
 .text.handleKeycodeRGB
                0x00002d5e        0xa .build/obj_lily58_rev1_default/quantum/process_keycode/process_rgb.o
 .text.handleKeycodeRGBMode
                0x00002d68       0x2a .build/obj_lily58_rev1_default/quantum/process_keycode/process_rgb.o
 .text.process_rgb
                0x00002d92       0xe0 .build/obj_lily58_rev1_default/quantum/process_keycode/process_rgb.o
                0x00002d92                process_rgb
 .text.ws2812_setleds_pin
                0x00002e72       0x78 .build/obj_lily58_rev1_default/ws2812.o
                0x00002e72                ws2812_setleds_pin
 .text.ws2812_setleds
                0x00002eea        0x6 .build/obj_lily58_rev1_default/ws2812.o
                0x00002eea                ws2812_setleds
 .text.encoder_update_kb
                0x00002ef0        0x4 .build/obj_lily58_rev1_default/quantum/encoder.o
                0x00002ef0                encoder_update_kb
 .text.encoder_init
                0x00002ef4       0x20 .build/obj_lily58_rev1_default/quantum/encoder.o
                0x00002ef4                encoder_init
 .text.encoder_read
                0x00002f14       0x86 .build/obj_lily58_rev1_default/quantum/encoder.o
                0x00002f14                encoder_read
 .text.perform_space_cadet
                0x00002f9a       0xda .build/obj_lily58_rev1_default/quantum/process_keycode/process_space_cadet.o
                0x00002f9a                perform_space_cadet
 .text.process_space_cadet
                0x00003074       0x82 .build/obj_lily58_rev1_default/quantum/process_keycode/process_space_cadet.o
                0x00003074                process_space_cadet
 .text.process_magic
                0x000030f6      0x246 .build/obj_lily58_rev1_default/quantum/process_keycode/process_magic.o
                0x000030f6                process_magic
 .text.process_grave_esc
                0x0000333c       0x54 .build/obj_lily58_rev1_default/quantum/process_keycode/process_grave_esc.o
                0x0000333c                process_grave_esc
 .text.host_set_driver
                0x00003390        0xa .build/obj_lily58_rev1_default/common/host.o
                0x00003390                host_set_driver
 .text.host_keyboard_leds
                0x0000339a       0x18 .build/obj_lily58_rev1_default/common/host.o
                0x0000339a                host_keyboard_leds
 .text.host_keyboard_send
                0x000033b2       0x16 .build/obj_lily58_rev1_default/common/host.o
                0x000033b2                host_keyboard_send
 .text.host_system_send
                0x000033c8       0x2c .build/obj_lily58_rev1_default/common/host.o
                0x000033c8                host_system_send
 .text.host_consumer_send
                0x000033f4       0x2c .build/obj_lily58_rev1_default/common/host.o
                0x000033f4                host_consumer_send
 .text.disable_jtag
                0x00003420        0xe .build/obj_lily58_rev1_default/common/keyboard.o
                0x00003420                disable_jtag
 .text.keyboard_pre_init_user
                0x0000342e        0x2 .build/obj_lily58_rev1_default/common/keyboard.o
                0x0000342e                keyboard_pre_init_user
 .text.matrix_setup
                0x00003430        0x2 .build/obj_lily58_rev1_default/common/keyboard.o
                0x00003430                matrix_setup
 .text.keyboard_pre_init_kb
                0x00003432        0x4 .build/obj_lily58_rev1_default/common/keyboard.o
                0x00003432                keyboard_pre_init_kb
 .text.keyboard_post_init_user
                0x00003436        0x2 .build/obj_lily58_rev1_default/common/keyboard.o
                0x00003436                keyboard_post_init_user
 .text.keyboard_post_init_kb
                0x00003438        0x4 .build/obj_lily58_rev1_default/common/keyboard.o
                0x00003438                keyboard_post_init_kb
 .text.keyboard_setup
                0x0000343c        0xc .build/obj_lily58_rev1_default/common/keyboard.o
                0x0000343c                keyboard_setup
 .text.is_keyboard_master
                0x00003448        0x4 .build/obj_lily58_rev1_default/common/keyboard.o
                0x00003448                is_keyboard_master
 .text.keyboard_init
                0x0000344c       0x14 .build/obj_lily58_rev1_default/common/keyboard.o
                0x0000344c                keyboard_init
 .text.keyboard_task
                0x00003460      0x134 .build/obj_lily58_rev1_default/common/keyboard.o
                0x00003460                keyboard_task
 .text.action_exec
                0x00003594       0x54 .build/obj_lily58_rev1_default/common/action.o
                0x00003594                action_exec
 .text.process_record_tap_hint
                0x000035e8        0xa .build/obj_lily58_rev1_default/common/action.o
                0x000035e8                process_record_tap_hint
 .text.register_code
                0x000035f2       0x8c .build/obj_lily58_rev1_default/common/action.o
                0x000035f2                register_code
 .text.unregister_code
                0x0000367e       0x50 .build/obj_lily58_rev1_default/common/action.o
                0x0000367e                unregister_code
 .text.tap_code
                0x000036ce       0x26 .build/obj_lily58_rev1_default/common/action.o
                0x000036ce                tap_code
 .text.register_mods
                0x000036f4        0xe .build/obj_lily58_rev1_default/common/action.o
                0x000036f4                register_mods
 .text.unregister_mods
                0x00003702        0xe .build/obj_lily58_rev1_default/common/action.o
                0x00003702                unregister_mods
 .text.process_action
                0x00003710      0x3fa .build/obj_lily58_rev1_default/common/action.o
                0x00003710                process_action
 .text.process_record_handler
                0x00003b0a       0x2e .build/obj_lily58_rev1_default/common/action.o
                0x00003b0a                process_record_handler
 .text.process_record
                0x00003b38       0x38 .build/obj_lily58_rev1_default/common/action.o
                0x00003b38                process_record
 .text.clear_keyboard_but_mods_and_keys
                0x00003b70       0x1c .build/obj_lily58_rev1_default/common/action.o
                0x00003b70                clear_keyboard_but_mods_and_keys
 .text.clear_keyboard_but_mods
                0x00003b8c        0x8 .build/obj_lily58_rev1_default/common/action.o
                0x00003b8c                clear_keyboard_but_mods
 .text.clear_keyboard
                0x00003b94        0x8 .build/obj_lily58_rev1_default/common/action.o
                0x00003b94                clear_keyboard
 .text.is_tap_action
                0x00003b9c       0x3e .build/obj_lily58_rev1_default/common/action.o
                0x00003b9c                is_tap_action
 .text.is_tap_key
                0x00003bda        0x8 .build/obj_lily58_rev1_default/common/action.o
                0x00003bda                is_tap_key
 .text.debug_event
                0x00003be2       0x1e .build/obj_lily58_rev1_default/common/action.o
                0x00003be2                debug_event
 .text.debug_record
                0x00003c00       0x20 .build/obj_lily58_rev1_default/common/action.o
                0x00003c00                debug_record
 .text.debug_waiting_buffer
                0x00003c20       0x42 .build/obj_lily58_rev1_default/common/action_tapping.o
 .text.debug_tapping_key
                0x00003c62       0x1c .build/obj_lily58_rev1_default/common/action_tapping.o
 .text.waiting_buffer_scan_tap
                0x00003c7e       0xac .build/obj_lily58_rev1_default/common/action_tapping.o
 .text.process_tapping
                0x00003d2a      0x332 .build/obj_lily58_rev1_default/common/action_tapping.o
 .text.action_tapping_process
                0x0000405c      0x134 .build/obj_lily58_rev1_default/common/action_tapping.o
                0x0000405c                action_tapping_process
 .text.default_layer_state_set_user
                0x00004190        0x2 .build/obj_lily58_rev1_default/common/action_layer.o
                0x00004190                default_layer_state_set_user
 .text.default_layer_state_set_kb
                0x00004192        0x4 .build/obj_lily58_rev1_default/common/action_layer.o
                0x00004192                default_layer_state_set_kb
 .text.default_layer_state_set
                0x00004196       0x18 .build/obj_lily58_rev1_default/common/action_layer.o
 .text.default_layer_debug
                0x000041ae        0x2 .build/obj_lily58_rev1_default/common/action_layer.o
                0x000041ae                default_layer_debug
 .text.default_layer_set
                0x000041b0        0x4 .build/obj_lily58_rev1_default/common/action_layer.o
                0x000041b0                default_layer_set
 .text.default_layer_or
                0x000041b4       0x24 .build/obj_lily58_rev1_default/common/action_layer.o
                0x000041b4                default_layer_or
 .text.default_layer_and
                0x000041d8       0x24 .build/obj_lily58_rev1_default/common/action_layer.o
                0x000041d8                default_layer_and
 .text.default_layer_xor
                0x000041fc       0x24 .build/obj_lily58_rev1_default/common/action_layer.o
                0x000041fc                default_layer_xor
 .text.layer_state_set_user
                0x00004220        0x4 .build/obj_lily58_rev1_default/common/action_layer.o
                0x00004220                layer_state_set_user
 .text.layer_state_set_kb
                0x00004224        0x4 .build/obj_lily58_rev1_default/common/action_layer.o
                0x00004224                layer_state_set_kb
 .text.layer_state_set
                0x00004228       0x18 .build/obj_lily58_rev1_default/common/action_layer.o
                0x00004228                layer_state_set
 .text.layer_clear
                0x00004240        0xa .build/obj_lily58_rev1_default/common/action_layer.o
                0x00004240                layer_clear
 .text.layer_move
                0x0000424a       0x2a .build/obj_lily58_rev1_default/common/action_layer.o
                0x0000424a                layer_move
 .text.layer_on
                0x00004274       0x42 .build/obj_lily58_rev1_default/common/action_layer.o
                0x00004274                layer_on
 .text.layer_off
                0x000042b6       0x46 .build/obj_lily58_rev1_default/common/action_layer.o
                0x000042b6                layer_off
 .text.layer_invert
                0x000042fc       0x42 .build/obj_lily58_rev1_default/common/action_layer.o
                0x000042fc                layer_invert
 .text.layer_or
                0x0000433e       0x24 .build/obj_lily58_rev1_default/common/action_layer.o
                0x0000433e                layer_or
 .text.layer_and
                0x00004362       0x24 .build/obj_lily58_rev1_default/common/action_layer.o
                0x00004362                layer_and
 .text.layer_xor
                0x00004386       0x24 .build/obj_lily58_rev1_default/common/action_layer.o
                0x00004386                layer_xor
 .text.layer_debug
                0x000043aa        0x2 .build/obj_lily58_rev1_default/common/action_layer.o
                0x000043aa                layer_debug
 .text.update_source_layers_cache
                0x000043ac       0x5c .build/obj_lily58_rev1_default/common/action_layer.o
                0x000043ac                update_source_layers_cache
 .text.read_source_layers_cache
                0x00004408       0x52 .build/obj_lily58_rev1_default/common/action_layer.o
                0x00004408                read_source_layers_cache
 .text.layer_switch_get_layer
                0x0000445a       0x84 .build/obj_lily58_rev1_default/common/action_layer.o
                0x0000445a                layer_switch_get_layer
 .text.layer_switch_get_action
                0x000044de       0x14 .build/obj_lily58_rev1_default/common/action_layer.o
                0x000044de                layer_switch_get_action
 .text.store_or_get_action
                0x000044f2       0x48 .build/obj_lily58_rev1_default/common/action_layer.o
                0x000044f2                store_or_get_action
 .text.add_key  0x0000453a        0xe .build/obj_lily58_rev1_default/common/action_util.o
                0x0000453a                add_key
 .text.del_key  0x00004548        0xe .build/obj_lily58_rev1_default/common/action_util.o
                0x00004548                del_key
 .text.clear_keys
                0x00004556        0xc .build/obj_lily58_rev1_default/common/action_util.o
                0x00004556                clear_keys
 .text.get_oneshot_layer
                0x00004562        0xc .build/obj_lily58_rev1_default/common/action_util.o
                0x00004562                get_oneshot_layer
 .text.get_oneshot_layer_state
                0x0000456e        0x8 .build/obj_lily58_rev1_default/common/action_util.o
                0x0000456e                get_oneshot_layer_state
 .text.is_oneshot_layer_active
                0x00004576        0xe .build/obj_lily58_rev1_default/common/action_util.o
                0x00004576                is_oneshot_layer_active
 .text.get_mods
                0x00004584        0x6 .build/obj_lily58_rev1_default/common/action_util.o
                0x00004584                get_mods
 .text.add_mods
                0x0000458a        0xc .build/obj_lily58_rev1_default/common/action_util.o
                0x0000458a                add_mods
 .text.del_mods
                0x00004596        0xe .build/obj_lily58_rev1_default/common/action_util.o
                0x00004596                del_mods
 .text.clear_mods
                0x000045a4        0x6 .build/obj_lily58_rev1_default/common/action_util.o
                0x000045a4                clear_mods
 .text.add_weak_mods
                0x000045aa        0xc .build/obj_lily58_rev1_default/common/action_util.o
                0x000045aa                add_weak_mods
 .text.del_weak_mods
                0x000045b6        0xe .build/obj_lily58_rev1_default/common/action_util.o
                0x000045b6                del_weak_mods
 .text.clear_weak_mods
                0x000045c4        0x6 .build/obj_lily58_rev1_default/common/action_util.o
                0x000045c4                clear_weak_mods
 .text.clear_macro_mods
                0x000045ca        0x6 .build/obj_lily58_rev1_default/common/action_util.o
                0x000045ca                clear_macro_mods
 .text.get_oneshot_mods
                0x000045d0        0x6 .build/obj_lily58_rev1_default/common/action_util.o
                0x000045d0                get_oneshot_mods
 .text.oneshot_mods_changed_user
                0x000045d6        0x2 .build/obj_lily58_rev1_default/common/action_util.o
                0x000045d6                oneshot_mods_changed_user
 .text.oneshot_mods_changed_kb
                0x000045d8        0x4 .build/obj_lily58_rev1_default/common/action_util.o
                0x000045d8                oneshot_mods_changed_kb
 .text.set_oneshot_mods
                0x000045dc       0x12 .build/obj_lily58_rev1_default/common/action_util.o
                0x000045dc                set_oneshot_mods
 .text.clear_oneshot_mods
                0x000045ee       0x14 .build/obj_lily58_rev1_default/common/action_util.o
                0x000045ee                clear_oneshot_mods
 .text.send_keyboard_report
                0x00004602       0x66 .build/obj_lily58_rev1_default/common/action_util.o
                0x00004602                send_keyboard_report
 .text.oneshot_layer_changed_user
                0x00004668        0x2 .build/obj_lily58_rev1_default/common/action_util.o
                0x00004668                oneshot_layer_changed_user
 .text.oneshot_layer_changed_kb
                0x0000466a        0x4 .build/obj_lily58_rev1_default/common/action_util.o
                0x0000466a                oneshot_layer_changed_kb
 .text.set_oneshot_layer
                0x0000466e       0x20 .build/obj_lily58_rev1_default/common/action_util.o
                0x0000466e                set_oneshot_layer
 .text.reset_oneshot_layer
                0x0000468e        0xa .build/obj_lily58_rev1_default/common/action_util.o
                0x0000468e                reset_oneshot_layer
 .text.clear_oneshot_layer_state
                0x00004698       0x30 .build/obj_lily58_rev1_default/common/action_util.o
                0x00004698                clear_oneshot_layer_state
 .text.eeconfig_is_enabled
                0x000046c8       0x16 .build/obj_lily58_rev1_default/common/eeconfig.o
                0x000046c8                eeconfig_is_enabled
 .text.eeconfig_read_debug
                0x000046de        0x8 .build/obj_lily58_rev1_default/common/eeconfig.o
                0x000046de                eeconfig_read_debug
 .text.eeconfig_read_default_layer
                0x000046e6        0x8 .build/obj_lily58_rev1_default/common/eeconfig.o
                0x000046e6                eeconfig_read_default_layer
 .text.eeconfig_update_default_layer
                0x000046ee        0xa .build/obj_lily58_rev1_default/common/eeconfig.o
                0x000046ee                eeconfig_update_default_layer
 .text.eeconfig_read_keymap
                0x000046f8       0x1c .build/obj_lily58_rev1_default/common/eeconfig.o
                0x000046f8                eeconfig_read_keymap
 .text.eeconfig_update_keymap
                0x00004714       0x1a .build/obj_lily58_rev1_default/common/eeconfig.o
                0x00004714                eeconfig_update_keymap
 .text.eeconfig_update_kb
                0x0000472e        0xc .build/obj_lily58_rev1_default/common/eeconfig.o
                0x0000472e                eeconfig_update_kb
 .text.eeconfig_update_user
                0x0000473a        0xc .build/obj_lily58_rev1_default/common/eeconfig.o
                0x0000473a                eeconfig_update_user
 .text.eeconfig_init_user
                0x00004746        0xa .build/obj_lily58_rev1_default/common/eeconfig.o
                0x00004746                eeconfig_init_user
 .text.eeconfig_init_kb
                0x00004750        0xe .build/obj_lily58_rev1_default/common/eeconfig.o
                0x00004750                eeconfig_init_kb
 .text.eeconfig_init_quantum
                0x0000475e       0xae .build/obj_lily58_rev1_default/common/eeconfig.o
                0x0000475e                eeconfig_init_quantum
 .text.eeconfig_init
                0x0000480c        0x4 .build/obj_lily58_rev1_default/common/eeconfig.o
                0x0000480c                eeconfig_init
 .text.eeconfig_update_handedness
                0x00004810        0xa .build/obj_lily58_rev1_default/common/eeconfig.o
                0x00004810                eeconfig_update_handedness
 .text.has_anykey
                0x0000481a       0x24 .build/obj_lily58_rev1_default/common/report.o
                0x0000481a                has_anykey
 .text.is_key_pressed
                0x0000483e       0x1e .build/obj_lily58_rev1_default/common/report.o
                0x0000483e                is_key_pressed
 .text.add_key_byte
                0x0000485c       0x34 .build/obj_lily58_rev1_default/common/report.o
                0x0000485c                add_key_byte
 .text.del_key_byte
                0x00004890       0x1a .build/obj_lily58_rev1_default/common/report.o
                0x00004890                del_key_byte
 .text.add_key_to_report
                0x000048aa        0x4 .build/obj_lily58_rev1_default/common/report.o
                0x000048aa                add_key_to_report
 .text.del_key_from_report
                0x000048ae        0x4 .build/obj_lily58_rev1_default/common/report.o
                0x000048ae                del_key_from_report
 .text.clear_keys_from_report
                0x000048b2        0xe .build/obj_lily58_rev1_default/common/report.o
                0x000048b2                clear_keys_from_report
 .text.matrix_power_up
                0x000048c0        0x2 .build/obj_lily58_rev1_default/common/avr/suspend.o
                0x000048c0                matrix_power_up
 .text.suspend_power_down_user
                0x000048c2        0x2 .build/obj_lily58_rev1_default/common/avr/suspend.o
                0x000048c2                suspend_power_down_user
 .text.suspend_power_down_kb
                0x000048c4        0x4 .build/obj_lily58_rev1_default/common/avr/suspend.o
                0x000048c4                suspend_power_down_kb
 .text.suspend_power_down
                0x000048c8       0x60 .build/obj_lily58_rev1_default/common/avr/suspend.o
                0x000048c8                suspend_power_down
 .text.matrix_power_down
                0x00004928        0x2 .build/obj_lily58_rev1_default/common/avr/suspend.o
                0x00004928                matrix_power_down
 .text.suspend_wakeup_condition
                0x0000492a       0x28 .build/obj_lily58_rev1_default/common/avr/suspend.o
                0x0000492a                suspend_wakeup_condition
 .text.suspend_wakeup_init_user
                0x00004952        0x2 .build/obj_lily58_rev1_default/common/avr/suspend.o
                0x00004952                suspend_wakeup_init_user
 .text.suspend_wakeup_init_kb
                0x00004954        0x4 .build/obj_lily58_rev1_default/common/avr/suspend.o
                0x00004954                suspend_wakeup_init_kb
 .text.suspend_wakeup_init
                0x00004958       0x10 .build/obj_lily58_rev1_default/common/avr/suspend.o
                0x00004958                suspend_wakeup_init
 .text.__vector_12
                0x00004968       0x4e .build/obj_lily58_rev1_default/common/avr/suspend.o
                0x00004968                __vector_12
 .text.timer_init
                0x000049b6       0x12 .build/obj_lily58_rev1_default/common/avr/timer.o
                0x000049b6                timer_init
 .text.timer_read
                0x000049c8       0x18 .build/obj_lily58_rev1_default/common/avr/timer.o
                0x000049c8                timer_read
 .text.timer_elapsed
                0x000049e0       0x1e .build/obj_lily58_rev1_default/common/avr/timer.o
                0x000049e0                timer_elapsed
 .text.__vector_21
                0x000049fe       0x48 .build/obj_lily58_rev1_default/common/avr/timer.o
                0x000049fe                __vector_21
 .text.bootloader_jump
                0x00004a46       0x48 .build/obj_lily58_rev1_default/common/avr/bootloader.o
                0x00004a46                bootloader_jump
 .text.magic    0x00004a8e       0x30 .build/obj_lily58_rev1_default/common/magic.o
                0x00004a8e                magic
 .text.keyboard_leds
                0x00004abe        0x6 .build/obj_lily58_rev1_default/lufa.o
 .text.send_mouse
                0x00004ac4        0x2 .build/obj_lily58_rev1_default/lufa.o
 .text.send_extra
                0x00004ac6       0x66 .build/obj_lily58_rev1_default/lufa.o
 .text.send_consumer
                0x00004b2c       0x24 .build/obj_lily58_rev1_default/lufa.o
 .text.send_system
                0x00004b50        0x8 .build/obj_lily58_rev1_default/lufa.o
 .text.send_keyboard
                0x00004b58       0x66 .build/obj_lily58_rev1_default/lufa.o
 .text.EVENT_USB_Device_Connect
                0x00004bbe       0x1c .build/obj_lily58_rev1_default/lufa.o
                0x00004bbe                EVENT_USB_Device_Connect
 .text.EVENT_USB_Device_Disconnect
                0x00004bda        0x6 .build/obj_lily58_rev1_default/lufa.o
                0x00004bda                EVENT_USB_Device_Disconnect
 .text.EVENT_USB_Device_Reset
                0x00004be0        0x2 .build/obj_lily58_rev1_default/lufa.o
                0x00004be0                EVENT_USB_Device_Reset
 .text.EVENT_USB_Device_Suspend
                0x00004be2        0x2 .build/obj_lily58_rev1_default/lufa.o
                0x00004be2                EVENT_USB_Device_Suspend
 .text.EVENT_USB_Device_WakeUp
                0x00004be4        0x4 .build/obj_lily58_rev1_default/lufa.o
                0x00004be4                EVENT_USB_Device_WakeUp
 .text.EVENT_USB_Device_ConfigurationChanged
                0x00004be8       0x14 .build/obj_lily58_rev1_default/lufa.o
                0x00004be8                EVENT_USB_Device_ConfigurationChanged
 .text.EVENT_USB_Device_ControlRequest
                0x00004bfc      0x16e .build/obj_lily58_rev1_default/lufa.o
                0x00004bfc                EVENT_USB_Device_ControlRequest
 .text.startup.main
                0x00004d6a       0x7e .build/obj_lily58_rev1_default/lufa.o
                0x00004d6a                main
 .text.CALLBACK_USB_GetDescriptor
                0x00004de8        0x4 .build/obj_lily58_rev1_default/lufa.o
                0x00004de8                CALLBACK_USB_GetDescriptor
 .text.get_usb_descriptor
                0x00004dec       0xbc .build/obj_lily58_rev1_default/usb_descriptor.o
                0x00004dec                get_usb_descriptor
 .text.auto_detect_output
                0x00004ea8       0x10 .build/obj_lily58_rev1_default/outputselect.o
                0x00004ea8                auto_detect_output
 .text.where_to_send
                0x00004eb8        0xe .build/obj_lily58_rev1_default/outputselect.o
                0x00004eb8                where_to_send
 .text.USB_Device_SendRemoteWakeup
                0x00004ec6       0x2c .build/obj_lily58_rev1_default/lib/lufa/LUFA/Drivers/USB/Core/AVR8/Device_AVR8.o
                0x00004ec6                USB_Device_SendRemoteWakeup
 .text.Endpoint_Write_Stream_LE
                0x00004ef2       0x9e .build/obj_lily58_rev1_default/lib/lufa/LUFA/Drivers/USB/Core/AVR8/EndpointStream_AVR8.o
                0x00004ef2                Endpoint_Write_Stream_LE
 .text.Endpoint_Write_Control_Stream_LE
                0x00004f90       0xbc .build/obj_lily58_rev1_default/lib/lufa/LUFA/Drivers/USB/Core/AVR8/EndpointStream_AVR8.o
                0x00004f90                Endpoint_Write_Control_Stream_LE
 .text.Endpoint_Write_Control_PStream_LE
                0x0000504c       0xbe .build/obj_lily58_rev1_default/lib/lufa/LUFA/Drivers/USB/Core/AVR8/EndpointStream_AVR8.o
                0x0000504c                Endpoint_Write_Control_PStream_LE
 .text.Endpoint_ConfigureEndpoint_Prv
                0x0000510a       0x68 .build/obj_lily58_rev1_default/lib/lufa/LUFA/Drivers/USB/Core/AVR8/Endpoint_AVR8.o
                0x0000510a                Endpoint_ConfigureEndpoint_Prv
 .text.Endpoint_ClearStatusStage
                0x00005172       0x3e .build/obj_lily58_rev1_default/lib/lufa/LUFA/Drivers/USB/Core/AVR8/Endpoint_AVR8.o
                0x00005172                Endpoint_ClearStatusStage
 .text.Endpoint_WaitUntilReady
                0x000051b0       0x62 .build/obj_lily58_rev1_default/lib/lufa/LUFA/Drivers/USB/Core/AVR8/Endpoint_AVR8.o
                0x000051b0                Endpoint_WaitUntilReady
 .text.USB_Disable
                0x00005212       0x34 .build/obj_lily58_rev1_default/lib/lufa/LUFA/Drivers/USB/Core/AVR8/USBController_AVR8.o
                0x00005212                USB_Disable
 .text.USB_ResetInterface
                0x00005246       0x86 .build/obj_lily58_rev1_default/lib/lufa/LUFA/Drivers/USB/Core/AVR8/USBController_AVR8.o
                0x00005246                USB_ResetInterface
 .text.USB_Init
                0x000052cc       0x22 .build/obj_lily58_rev1_default/lib/lufa/LUFA/Drivers/USB/Core/AVR8/USBController_AVR8.o
                0x000052cc                USB_Init
 .text.USB_INT_DisableAllInterrupts
                0x000052ee       0x10 .build/obj_lily58_rev1_default/lib/lufa/LUFA/Drivers/USB/Core/AVR8/USBInterrupt_AVR8.o
                0x000052ee                USB_INT_DisableAllInterrupts
 .text.USB_INT_ClearAllInterrupts
                0x000052fe        0xa .build/obj_lily58_rev1_default/lib/lufa/LUFA/Drivers/USB/Core/AVR8/USBInterrupt_AVR8.o
                0x000052fe                USB_INT_ClearAllInterrupts
 .text.__vector_10
                0x00005308      0x1a8 .build/obj_lily58_rev1_default/lib/lufa/LUFA/Drivers/USB/Core/AVR8/USBInterrupt_AVR8.o
                0x00005308                __vector_10
 .text.__vector_11
                0x000054b0       0x88 .build/obj_lily58_rev1_default/lib/lufa/LUFA/Drivers/USB/Core/AVR8/USBInterrupt_AVR8.o
                0x000054b0                __vector_11
 .text.USB_Device_ProcessControlRequest
                0x00005538      0x2a4 .build/obj_lily58_rev1_default/lib/lufa/LUFA/Drivers/USB/Core/DeviceStandardReq.o
                0x00005538                USB_Device_ProcessControlRequest
 .text.USB_Event_Stub
                0x000057dc        0x2 .build/obj_lily58_rev1_default/lib/lufa/LUFA/Drivers/USB/Core/Events.o
                0x000057dc                EVENT_USB_Device_StartOfFrame
                0x000057dc                USB_Event_Stub
 .text.USB_USBTask
                0x000057de       0x36 .build/obj_lily58_rev1_default/lib/lufa/LUFA/Drivers/USB/Core/USBTask.o
                0x000057de                USB_USBTask
 .text.libgcc.div
                0x00005814       0x1c c:/msys64/home/kyleo/qmk_utils/avr8-gnu-toolchain/bin/../lib/gcc/avr/8.3.0/avr5\libgcc.a(_divmodqi4.o)
                0x00005814                __divmodqi4
 .text.libgcc.div
                0x00005830       0x28 c:/msys64/home/kyleo/qmk_utils/avr8-gnu-toolchain/bin/../lib/gcc/avr/8.3.0/avr5\libgcc.a(_udivmodhi4.o)
                0x00005830                __udivmodhi4
 .text.libgcc.div
                0x00005858       0x28 c:/msys64/home/kyleo/qmk_utils/avr8-gnu-toolchain/bin/../lib/gcc/avr/8.3.0/avr5\libgcc.a(_divmodhi4.o)
                0x00005858                _div
                0x00005858                __divmodhi4
 .text.libgcc   0x00005880        0xc c:/msys64/home/kyleo/qmk_utils/avr8-gnu-toolchain/bin/../lib/gcc/avr/8.3.0/avr5\libgcc.a(_tablejump2.o)
                0x00005880                __tablejump2__
 .text.libgcc.div
                0x0000588c       0x18 c:/msys64/home/kyleo/qmk_utils/avr8-gnu-toolchain/bin/../lib/gcc/avr/8.3.0/avr5\libgcc.a(_udivmodqi4.o)
                0x0000588c                __udivmodqi4
 .text.avr-libc
                0x000058a4       0x1a c:/msys64/home/kyleo/qmk_utils/avr8-gnu-toolchain/bin/../lib/gcc/avr/8.3.0/../../../../avr/lib/avr5\libc.a(memchr.o)
                0x000058a4                memchr
 .text.avr-libc
                0x000058be       0x1a c:/msys64/home/kyleo/qmk_utils/avr8-gnu-toolchain/bin/../lib/gcc/avr/8.3.0/../../../../avr/lib/avr5\libc.a(memcmp.o)
                0x000058be                memcmp
 .text.avr-libc
                0x000058d8       0x24 c:/msys64/home/kyleo/qmk_utils/avr8-gnu-toolchain/bin/../lib/gcc/avr/8.3.0/../../../../avr/lib/avr5\libc.a(memmove.o)
                0x000058d8                memmove
 .text.avr-libc
                0x000058fc        0xe c:/msys64/home/kyleo/qmk_utils/avr8-gnu-toolchain/bin/../lib/gcc/avr/8.3.0/../../../../avr/lib/avr5\libc.a(memset.o)
                0x000058fc                memset
 .text.avr-libc
                0x0000590a        0xe c:/msys64/home/kyleo/qmk_utils/avr8-gnu-toolchain/bin/../lib/gcc/avr/8.3.0/../../../../avr/lib/avr5\libc.a(strcpy.o)
                0x0000590a                strcpy
 .text.avr-libc
                0x00005918       0x60 c:/msys64/home/kyleo/qmk_utils/avr8-gnu-toolchain/bin/../lib/gcc/avr/8.3.0/../../../../avr/lib/avr5\libc.a(snprintf.o)
                0x00005918                snprintf
 .text.avr-libc
                0x00005978      0x396 c:/msys64/home/kyleo/qmk_utils/avr8-gnu-toolchain/bin/../lib/gcc/avr/8.3.0/../../../../avr/lib/avr5\libc.a(vfprintf_std.o)
                0x00005978                vfprintf
 .text.avr-libc
                0x00005d0e       0x16 c:/msys64/home/kyleo/qmk_utils/avr8-gnu-toolchain/bin/../lib/gcc/avr/8.3.0/../../../../avr/lib/avr5\libc.a(strnlen_P.o)
                0x00005d0e                strnlen_P
 .text.avr-libc
                0x00005d24       0x12 c:/msys64/home/kyleo/qmk_utils/avr8-gnu-toolchain/bin/../lib/gcc/avr/8.3.0/../../../../avr/lib/avr5\libc.a(memcpy.o)
                0x00005d24                memcpy
 .text.avr-libc
                0x00005d36       0x16 c:/msys64/home/kyleo/qmk_utils/avr8-gnu-toolchain/bin/../lib/gcc/avr/8.3.0/../../../../avr/lib/avr5\libc.a(strnlen.o)
                0x00005d36                strnlen
 .text.avr-libc
                0x00005d4c       0x60 c:/msys64/home/kyleo/qmk_utils/avr8-gnu-toolchain/bin/../lib/gcc/avr/8.3.0/../../../../avr/lib/avr5\libc.a(fputc.o)
                0x00005d4c                fputc
 .text.avr-libc
                0x00005dac       0xbc c:/msys64/home/kyleo/qmk_utils/avr8-gnu-toolchain/bin/../lib/gcc/avr/8.3.0/../../../../avr/lib/avr5\libc.a(ultoa_invert.o)
                0x00005dac                __ultoa_invert
 .text.avr-libc
                0x00005e68       0x10 c:/msys64/home/kyleo/qmk_utils/avr8-gnu-toolchain/bin/../lib/gcc/avr/8.3.0/../../../../avr/lib/avr5\libatmega32u4.a(eerd_byte.o)
                0x00005e68                eeprom_read_byte
 .text.avr-libc
                0x00005e78        0xc c:/msys64/home/kyleo/qmk_utils/avr8-gnu-toolchain/bin/../lib/gcc/avr/8.3.0/../../../../avr/lib/avr5\libatmega32u4.a(eerd_dword.o)
                0x00005e78                eeprom_read_float
                0x00005e78                eeprom_read_dword
 .text.avr-libc
                0x00005e84        0xc c:/msys64/home/kyleo/qmk_utils/avr8-gnu-toolchain/bin/../lib/gcc/avr/8.3.0/../../../../avr/lib/avr5\libatmega32u4.a(eerd_word.o)
                0x00005e84                eeprom_read_word
 .text.avr-libc
                0x00005e90       0x24 c:/msys64/home/kyleo/qmk_utils/avr8-gnu-toolchain/bin/../lib/gcc/avr/8.3.0/../../../../avr/lib/avr5\libatmega32u4.a(eeupd_byte.o)
                0x00005e90                eeprom_update_byte
                0x00005e92                eeprom_update_r18
 .text.avr-libc
                0x00005eb4       0x18 c:/msys64/home/kyleo/qmk_utils/avr8-gnu-toolchain/bin/../lib/gcc/avr/8.3.0/../../../../avr/lib/avr5\libatmega32u4.a(eeupd_dword.o)
                0x00005eb4                eeprom_update_float
                0x00005eb4                eeprom_update_dword
 .text.avr-libc
                0x00005ecc        0xc c:/msys64/home/kyleo/qmk_utils/avr8-gnu-toolchain/bin/../lib/gcc/avr/8.3.0/../../../../avr/lib/avr5\libatmega32u4.a(eeupd_word.o)
                0x00005ecc                eeprom_update_word
 .text.avr-libc
                0x00005ed8       0x20 c:/msys64/home/kyleo/qmk_utils/avr8-gnu-toolchain/bin/../lib/gcc/avr/8.3.0/../../../../avr/lib/avr5\libatmega32u4.a(eerd_block.o)
                0x00005ed8                eeprom_read_block
                0x00005edc                eeprom_read_blraw
 .text.libgcc.prologue
                0x00005ef8       0x38 c:/msys64/home/kyleo/qmk_utils/avr8-gnu-toolchain/bin/../lib/gcc/avr/8.3.0/avr5\libgcc.a(_prologue.o)
                0x00005ef8                __prologue_saves__
 .text.libgcc.prologue
                0x00005f30       0x36 c:/msys64/home/kyleo/qmk_utils/avr8-gnu-toolchain/bin/../lib/gcc/avr/8.3.0/avr5\libgcc.a(_epilogue.o)
                0x00005f30                __epilogue_restores__
                0x00005f66                . = ALIGN (0x2)
 *(.fini9)
 .fini9         0x00005f66        0x0 c:/msys64/home/kyleo/qmk_utils/avr8-gnu-toolchain/bin/../lib/gcc/avr/8.3.0/avr5\libgcc.a(_exit.o)
                0x00005f66                _exit
                0x00005f66                exit
 *(.fini9)
 *(.fini8)
 *(.fini8)
 *(.fini7)
 *(.fini7)
 *(.fini6)
 *(.fini6)
 *(.fini5)
 *(.fini5)
 *(.fini4)
 *(.fini4)
 *(.fini3)
 *(.fini3)
 *(.fini2)
 *(.fini2)
 *(.fini1)
 *(.fini1)
 *(.fini0)
 .fini0         0x00005f66        0x4 c:/msys64/home/kyleo/qmk_utils/avr8-gnu-toolchain/bin/../lib/gcc/avr/8.3.0/avr5\libgcc.a(_exit.o)
 *(.fini0)
 *(.hightext)
 *(.hightext*)
 *(.progmemx.*)
                0x00005f6a                . = ALIGN (0x2)
 *(.jumptables)
 *(.jumptables*)
 .jumptables.gcc.process_rgb
                0x00005f6a       0x28 .build/obj_lily58_rev1_default/quantum/process_keycode/process_rgb.o
 .jumptables.gcc.process_action
                0x00005f92       0x18 .build/obj_lily58_rev1_default/common/action.o
 .jumptables.gcc.is_tap_action
                0x00005faa       0x1c .build/obj_lily58_rev1_default/common/action.o
 .jumptables.gcc.USB_Device_ProcessControlRequest
                0x00005fc6       0x14 .build/obj_lily58_rev1_default/lib/lufa/LUFA/Drivers/USB/Core/DeviceStandardReq.o
                0x00005fda                _etext = .

.data           0x00800100      0x1ba load address 0x00005fda
                0x00800100                PROVIDE (__data_start = .)
 *(.data)
 *(.data*)
 .data.force_dirty
                0x00800100        0x1 .build/obj_lily58_rev1_default/ssd1306.o
 .data.debouncing
                0x00800101        0x1 .build/obj_lily58_rev1_default/rev1/matrix.o
 .data.isLeftHand
                0x00800102        0x1 .build/obj_lily58_rev1_default/rev1/split_util.o
                0x00800102                isLeftHand
 .data.transactions
                0x00800103       0x18 .build/obj_lily58_rev1_default/rev1/split_scomm.o
                0x00800103                transactions
 .data.s_change_new
                0x0080011b        0x1 .build/obj_lily58_rev1_default/rev1/split_scomm.o
                0x0080011b                s_change_new
 .data.s_change_old
                0x0080011c        0x1 .build/obj_lily58_rev1_default/rev1/split_scomm.o
                0x0080011c                s_change_old
 .data.logo.3712
                0x0080011d       0x40 .build/obj_lily58_rev1_default/./lib/logo_reader.o
 .data.increment.3221
                0x0080015d        0x1 .build/obj_lily58_rev1_default/quantum/rgblight.o
 .data.high_bound.3220
                0x0080015e        0x1 .build/obj_lily58_rev1_default/quantum/rgblight.o
 .data.effect_num_leds
                0x0080015f        0x1 .build/obj_lily58_rev1_default/quantum/rgblight.o
 .data.effect_end_pos
                0x00800160        0x1 .build/obj_lily58_rev1_default/quantum/rgblight.o
 .data.clipping_num_leds
                0x00800161        0x1 .build/obj_lily58_rev1_default/quantum/rgblight.o
 .data.static_effect_table
                0x00800162        0xb .build/obj_lily58_rev1_default/quantum/rgblight.o
 .data.keyboard_report
                0x0080016d        0x2 .build/obj_lily58_rev1_default/common/action_util.o
                0x0080016d                keyboard_report
 .data.lufa_driver
                0x0080016f        0xa .build/obj_lily58_rev1_default/lufa.o
                0x0080016f                lufa_driver
 .data.keyboard_protocol
                0x00800179        0x1 .build/obj_lily58_rev1_default/lufa.o
                0x00800179                keyboard_protocol
 *(.gnu.linkonce.d*)
 *(.rodata)
 *(.rodata*)
 .rodata.matrix_write_ln.str1.1
                0x0080017a        0x4 .build/obj_lily58_rev1_default/ssd1306.o
 .rodata.col_pins
                0x0080017e        0x6 .build/obj_lily58_rev1_default/rev1/matrix.o
 .rodata.row_pins
                0x00800184        0xa .build/obj_lily58_rev1_default/rev1/matrix.o
 .rodata.read_layer_state.str1.1
                0x0080018e       0x48 .build/obj_lily58_rev1_default/./lib/layer_state_reader.o
 .rodata.set_keylog.str1.1
                0x008001d6       0x11 .build/obj_lily58_rev1_default/./lib/keylogger.o
 .rodata.code_to_name
                0x008001e7       0x3c .build/obj_lily58_rev1_default/./lib/keylogger.o
                0x008001e7                code_to_name
 .rodata.CSWTCH.1
                0x00800223       0x2e .build/obj_lily58_rev1_default/quantum/keymap_common.o
 .rodata.CSWTCH.0
                0x00800251        0x3 .build/obj_lily58_rev1_default/quantum/keymap_common.o
 .rodata.mode_base_table
                0x00800254       0x25 .build/obj_lily58_rev1_default/quantum/rgblight.o
 .rodata.encoder_LUT
                0x00800279       0x10 .build/obj_lily58_rev1_default/quantum/encoder.o
 .rodata.CSWTCH.11
                0x00800289       0x2e .build/obj_lily58_rev1_default/common/action.o
 .rodata.CSWTCH.10
                0x008002b7        0x3 .build/obj_lily58_rev1_default/common/action.o
 *(.gnu.linkonce.r*)
                0x008002ba                . = ALIGN (0x2)
                0x008002ba                _edata = .
                0x008002ba                PROVIDE (__data_end = .)

.bss            0x008002ba      0x1ef
                0x008002ba                PROVIDE (__bss_start = .)
 *(.bss)
 *(.bss*)
 .bss.slave_has_register_set
                0x008002ba        0x1 .build/obj_lily58_rev1_default/i2c.o
 .bss.slave_buffer_pos
                0x008002bb        0x1 .build/obj_lily58_rev1_default/i2c.o
 .bss.Transaction_table_size
                0x008002bc        0x1 .build/obj_lily58_rev1_default/serial.o
 .bss.Transaction_table
                0x008002bd        0x2 .build/obj_lily58_rev1_default/serial.o
 .bss.last_flush
                0x008002bf        0x2 .build/obj_lily58_rev1_default/ssd1306.o
 .bss.matrix_debouncing
                0x008002c1        0xa .build/obj_lily58_rev1_default/rev1/matrix.o
 .bss.matrix    0x008002cb        0xa .build/obj_lily58_rev1_default/rev1/matrix.o
 .bss.is_master
                0x008002d5        0x1 .build/obj_lily58_rev1_default/rev1/matrix.o
                0x008002d5                is_master
 .bss.error_count
                0x008002d6        0x1 .build/obj_lily58_rev1_default/rev1/matrix.o
 .bss.usbstate.1898
                0x008002d7        0x1 .build/obj_lily58_rev1_default/rev1/split_util.o
 .bss.need_retry.1591
                0x008002d8        0x2 .build/obj_lily58_rev1_default/rev1/split_scomm.o
 .bss.slave_buffer_change_count
                0x008002da        0x1 .build/obj_lily58_rev1_default/rev1/split_scomm.o
                0x008002da                slave_buffer_change_count
 .bss.status1   0x008002db        0x1 .build/obj_lily58_rev1_default/rev1/split_scomm.o
                0x008002db                status1
 .bss.status_com
                0x008002dc        0x1 .build/obj_lily58_rev1_default/rev1/split_scomm.o
                0x008002dc                status_com
 .bss.serial_master_buffer
                0x008002dd        0x5 .build/obj_lily58_rev1_default/rev1/split_scomm.o
                0x008002dd                serial_master_buffer
 .bss.serial_slave_buffer
                0x008002e2        0x5 .build/obj_lily58_rev1_default/rev1/split_scomm.o
                0x008002e2                serial_slave_buffer
 .bss.keylogs_str_idx
                0x008002e7        0x2 .build/obj_lily58_rev1_default/./lib/keylogger.o
                0x008002e7                keylogs_str_idx
 .bss.keylogs_str
                0x008002e9       0x15 .build/obj_lily58_rev1_default/./lib/keylogger.o
                0x008002e9                keylogs_str
 .bss.keylog_str
                0x008002fe       0x18 .build/obj_lily58_rev1_default/./lib/keylogger.o
                0x008002fe                keylog_str
 .bss.maxval.3242
                0x00800316        0x1 .build/obj_lily58_rev1_default/quantum/rgblight.o
 .bss.low_bound.3219
                0x00800317        0x1 .build/obj_lily58_rev1_default/quantum/rgblight.o
 .bss.pos.3203  0x00800318        0x1 .build/obj_lily58_rev1_default/quantum/rgblight.o
 .bss.effect_start_pos
                0x00800319        0x1 .build/obj_lily58_rev1_default/quantum/rgblight.o
 .bss.clipping_start_pos
                0x0080031a        0x1 .build/obj_lily58_rev1_default/quantum/rgblight.o
 .bss.animation_status
                0x0080031b        0x6 .build/obj_lily58_rev1_default/quantum/rgblight.o
                0x0080031b                animation_status
 .bss.is_rgblight_initialized
                0x00800321        0x1 .build/obj_lily58_rev1_default/quantum/rgblight.o
                0x00800321                is_rgblight_initialized
 .bss.rgblight_status
                0x00800322        0x2 .build/obj_lily58_rev1_default/quantum/rgblight.o
                0x00800322                rgblight_status
 .bss.encoder_value
                0x00800324        0x1 .build/obj_lily58_rev1_default/quantum/encoder.o
 .bss.encoder_pulses
                0x00800325        0x1 .build/obj_lily58_rev1_default/quantum/encoder.o
 .bss.encoder_state
                0x00800326        0x1 .build/obj_lily58_rev1_default/quantum/encoder.o
 .bss.sc_timer  0x00800327        0x2 .build/obj_lily58_rev1_default/quantum/process_keycode/process_space_cadet.o
 .bss.sc_last   0x00800329        0x1 .build/obj_lily58_rev1_default/quantum/process_keycode/process_space_cadet.o
 .bss.grave_esc_was_shifted
                0x0080032a        0x1 .build/obj_lily58_rev1_default/quantum/process_keycode/process_grave_esc.o
 .bss.last_consumer_report
                0x0080032b        0x2 .build/obj_lily58_rev1_default/common/host.o
 .bss.last_system_report
                0x0080032d        0x2 .build/obj_lily58_rev1_default/common/host.o
 .bss.driver    0x0080032f        0x2 .build/obj_lily58_rev1_default/common/host.o
 .bss.led_status.3243
                0x00800331        0x1 .build/obj_lily58_rev1_default/common/keyboard.o
 .bss.matrix_prev.3242
                0x00800332        0xa .build/obj_lily58_rev1_default/common/keyboard.o
 .bss.disable_action_cache
                0x0080033c        0x1 .build/obj_lily58_rev1_default/common/action.o
                0x0080033c                disable_action_cache
 .bss.waiting_buffer_tail
                0x0080033d        0x1 .build/obj_lily58_rev1_default/common/action_tapping.o
 .bss.waiting_buffer_head
                0x0080033e        0x1 .build/obj_lily58_rev1_default/common/action_tapping.o
 .bss.waiting_buffer
                0x0080033f       0x30 .build/obj_lily58_rev1_default/common/action_tapping.o
 .bss.tapping_key
                0x0080036f        0x6 .build/obj_lily58_rev1_default/common/action_tapping.o
 .bss.source_layers_cache
                0x00800375       0x28 .build/obj_lily58_rev1_default/common/action_layer.o
                0x00800375                source_layers_cache
 .bss.layer_state
                0x0080039d        0x4 .build/obj_lily58_rev1_default/common/action_layer.o
                0x0080039d                layer_state
 .bss.default_layer_state
                0x008003a1        0x4 .build/obj_lily58_rev1_default/common/action_layer.o
                0x008003a1                default_layer_state
 .bss.oneshot_layer_data
                0x008003a5        0x1 .build/obj_lily58_rev1_default/common/action_util.o
 .bss.oneshot_mods
                0x008003a6        0x1 .build/obj_lily58_rev1_default/common/action_util.o
 .bss.__compound_literal.0
                0x008003a7        0x8 .build/obj_lily58_rev1_default/common/action_util.o
 .bss.macro_mods
                0x008003af        0x1 .build/obj_lily58_rev1_default/common/action_util.o
 .bss.weak_mods
                0x008003b0        0x1 .build/obj_lily58_rev1_default/common/action_util.o
 .bss.real_mods
                0x008003b1        0x1 .build/obj_lily58_rev1_default/common/action_util.o
 .bss.debug_config
                0x008003b2        0x1 .build/obj_lily58_rev1_default/common/debug.o
                0x008003b2                debug_config
 .bss.wdt_timeout
                0x008003b3        0x1 .build/obj_lily58_rev1_default/common/avr/suspend.o
 .bss.keyboard_report_sent
                0x008003b4        0x8 .build/obj_lily58_rev1_default/lufa.o
 .bss.keyboard_led_stats
                0x008003bc        0x1 .build/obj_lily58_rev1_default/lufa.o
 .bss.keyboard_idle
                0x008003bd        0x1 .build/obj_lily58_rev1_default/lufa.o
                0x008003bd                keyboard_idle
 .bss.desired_output
                0x008003be        0x1 .build/obj_lily58_rev1_default/outputselect.o
                0x008003be                desired_output
 *(COMMON)
 COMMON         0x008003bf       0x10 .build/obj_lily58_rev1_default/i2c.o
                0x008003bf                i2c_slave_buffer
 COMMON         0x008003cf       0x57 .build/obj_lily58_rev1_default/ssd1306.o
                0x008003cf                display
 COMMON         0x00800426       0x18 .build/obj_lily58_rev1_default/./lib/layer_state_reader.o
                0x00800426                layer_state_str
 COMMON         0x0080043e        0x2 .build/obj_lily58_rev1_default/keyboards/lily58/keymaps/default/keymap.o
                0x0080043e                RGB_current_mode
 COMMON         0x00800440       0x56 .build/obj_lily58_rev1_default/quantum/rgblight.o
                0x00800440                rgblight_config
                0x00800445                led
 COMMON         0x00800496        0x4 .build/obj_lily58_rev1_default/common/avr/timer.o
                0x00800496                timer_count
 COMMON         0x0080049a        0x2 .build/obj_lily58_rev1_default/common/magic.o
                0x0080049a                keymap_config
 COMMON         0x0080049c        0x3 .build/obj_lily58_rev1_default/lib/lufa/LUFA/Drivers/USB/Core/DeviceStandardReq.o
                0x0080049c                USB_Device_ConfigurationNumber
                0x0080049d                USB_Device_CurrentlySelfPowered
                0x0080049e                USB_Device_RemoteWakeupEnabled
 COMMON         0x0080049f        0xa .build/obj_lily58_rev1_default/lib/lufa/LUFA/Drivers/USB/Core/USBTask.o
                0x0080049f                USB_IsInitialized
                0x008004a0                USB_DeviceState
                0x008004a1                USB_ControlRequest
                0x008004a9                PROVIDE (__bss_end = .)
                0x00005fda                __data_load_start = LOADADDR (.data)
                0x00006194                __data_load_end = (__data_load_start + SIZEOF (.data))

.noinit         0x008004a9        0x4
                [!provide]                PROVIDE (__noinit_start = .)
 *(.noinit*)
 .noinit        0x008004a9        0x4 .build/obj_lily58_rev1_default/common/avr/bootloader.o
                0x008004a9                reset_key
                [!provide]                PROVIDE (__noinit_end = .)
                0x008004ad                _end = .
                [!provide]                PROVIDE (__heap_start = .)

.eeprom         0x00810000        0x0
 *(.eeprom*)
                0x00810000                __eeprom_end = .

.fuse
 *(.fuse)
 *(.lfuse)
 *(.hfuse)
 *(.efuse)

.lock
 *(.lock*)

.signature
 *(.signature*)

.stab
 *(.stab)

.stabstr        0x00000000       0x8a
 *(.stabstr)
 .stabstr       0x00000000       0x8a .build/obj_lily58_rev1_default/common/avr/xprintf.o

.stab.excl
 *(.stab.excl)

.stab.exclstr
 *(.stab.exclstr)

.stab.index
 *(.stab.index)

.stab.indexstr
 *(.stab.indexstr)

.comment        0x00000000       0x11
 *(.comment)
 .comment       0x00000000       0x11 .build/obj_lily58_rev1_default/i2c.o
                                 0x12 (size before relaxing)
 .comment       0x00000011       0x12 .build/obj_lily58_rev1_default/serial.o
 .comment       0x00000011       0x12 .build/obj_lily58_rev1_default/ssd1306.o
 .comment       0x00000011       0x12 .build/obj_lily58_rev1_default/rev1/matrix.o
 .comment       0x00000011       0x12 .build/obj_lily58_rev1_default/rev1/split_util.o
 .comment       0x00000011       0x12 .build/obj_lily58_rev1_default/rev1/split_scomm.o
 .comment       0x00000011       0x12 .build/obj_lily58_rev1_default/./lib/glcdfont.o
 .comment       0x00000011       0x12 .build/obj_lily58_rev1_default/./lib/layer_state_reader.o
 .comment       0x00000011       0x12 .build/obj_lily58_rev1_default/./lib/logo_reader.o
 .comment       0x00000011       0x12 .build/obj_lily58_rev1_default/./lib/keylogger.o
 .comment       0x00000011       0x12 .build/obj_lily58_rev1_default/keyboards/lily58/lily58.o
 .comment       0x00000011       0x12 .build/obj_lily58_rev1_default/keyboards/lily58/rev1/rev1.o
 .comment       0x00000011       0x12 .build/obj_lily58_rev1_default/keyboards/lily58/keymaps/default/keymap.o
 .comment       0x00000011       0x12 .build/obj_lily58_rev1_default/quantum/quantum.o
 .comment       0x00000011       0x12 .build/obj_lily58_rev1_default/quantum/keymap_common.o
 .comment       0x00000011       0x12 .build/obj_lily58_rev1_default/quantum/keycode_config.o
 .comment       0x00000011       0x12 .build/obj_lily58_rev1_default/quantum/color.o
 .comment       0x00000011       0x12 .build/obj_lily58_rev1_default/quantum/rgblight.o
 .comment       0x00000011       0x12 .build/obj_lily58_rev1_default/quantum/process_keycode/process_rgb.o
 .comment       0x00000011       0x12 .build/obj_lily58_rev1_default/ws2812.o
 .comment       0x00000011       0x12 .build/obj_lily58_rev1_default/quantum/led_tables.o
 .comment       0x00000011       0x12 .build/obj_lily58_rev1_default/quantum/encoder.o
 .comment       0x00000011       0x12 .build/obj_lily58_rev1_default/quantum/process_keycode/process_space_cadet.o
 .comment       0x00000011       0x12 .build/obj_lily58_rev1_default/quantum/process_keycode/process_magic.o
 .comment       0x00000011       0x12 .build/obj_lily58_rev1_default/quantum/process_keycode/process_grave_esc.o
 .comment       0x00000011       0x12 .build/obj_lily58_rev1_default/common/host.o
 .comment       0x00000011       0x12 .build/obj_lily58_rev1_default/common/keyboard.o
 .comment       0x00000011       0x12 .build/obj_lily58_rev1_default/common/action.o
 .comment       0x00000011       0x12 .build/obj_lily58_rev1_default/common/action_tapping.o
 .comment       0x00000011       0x12 .build/obj_lily58_rev1_default/common/action_layer.o
 .comment       0x00000011       0x12 .build/obj_lily58_rev1_default/common/action_util.o
 .comment       0x00000011       0x12 .build/obj_lily58_rev1_default/common/debug.o
 .comment       0x00000011       0x12 .build/obj_lily58_rev1_default/common/eeconfig.o
 .comment       0x00000011       0x12 .build/obj_lily58_rev1_default/common/report.o
 .comment       0x00000011       0x12 .build/obj_lily58_rev1_default/common/avr/suspend.o
 .comment       0x00000011       0x12 .build/obj_lily58_rev1_default/common/avr/timer.o
 .comment       0x00000011       0x12 .build/obj_lily58_rev1_default/common/avr/bootloader.o
 .comment       0x00000011       0x12 .build/obj_lily58_rev1_default/common/magic.o
 .comment       0x00000011       0x12 .build/obj_lily58_rev1_default/lufa.o
 .comment       0x00000011       0x12 .build/obj_lily58_rev1_default/usb_descriptor.o
 .comment       0x00000011       0x12 .build/obj_lily58_rev1_default/outputselect.o
 .comment       0x00000011       0x12 .build/obj_lily58_rev1_default/lib/lufa/LUFA/Drivers/USB/Core/AVR8/Device_AVR8.o
 .comment       0x00000011       0x12 .build/obj_lily58_rev1_default/lib/lufa/LUFA/Drivers/USB/Core/AVR8/EndpointStream_AVR8.o
 .comment       0x00000011       0x12 .build/obj_lily58_rev1_default/lib/lufa/LUFA/Drivers/USB/Core/AVR8/Endpoint_AVR8.o
 .comment       0x00000011       0x12 .build/obj_lily58_rev1_default/lib/lufa/LUFA/Drivers/USB/Core/AVR8/USBController_AVR8.o
 .comment       0x00000011       0x12 .build/obj_lily58_rev1_default/lib/lufa/LUFA/Drivers/USB/Core/AVR8/USBInterrupt_AVR8.o
 .comment       0x00000011       0x12 .build/obj_lily58_rev1_default/lib/lufa/LUFA/Drivers/USB/Core/DeviceStandardReq.o
 .comment       0x00000011       0x12 .build/obj_lily58_rev1_default/lib/lufa/LUFA/Drivers/USB/Core/Events.o
 .comment       0x00000011       0x12 .build/obj_lily58_rev1_default/lib/lufa/LUFA/Drivers/USB/Core/USBTask.o
 .comment       0x00000011       0x12 c:/msys64/home/kyleo/qmk_utils/avr8-gnu-toolchain/bin/../lib/gcc/avr/8.3.0/../../../../avr/lib/avr5\libc.a(snprintf.o)
 .comment       0x00000011       0x12 c:/msys64/home/kyleo/qmk_utils/avr8-gnu-toolchain/bin/../lib/gcc/avr/8.3.0/../../../../avr/lib/avr5\libc.a(vfprintf_std.o)
 .comment       0x00000011       0x12 c:/msys64/home/kyleo/qmk_utils/avr8-gnu-toolchain/bin/../lib/gcc/avr/8.3.0/../../../../avr/lib/avr5\libc.a(fputc.o)

.note.gnu.avr.deviceinfo
                0x00000000       0x40
 .note.gnu.avr.deviceinfo
                0x00000000       0x40 c:/msys64/home/kyleo/qmk_utils/avr8-gnu-toolchain/bin/../lib/gcc/avr/8.3.0/../../../../avr/lib/avr5/crtatmega32u4.o

.note.gnu.build-id
 *(.note.gnu.build-id)

.debug
 *(.debug)

.line
 *(.line)

.debug_srcinfo
 *(.debug_srcinfo)

.debug_sfnames
 *(.debug_sfnames)

.debug_aranges  0x00000000     0x13d0
 *(.debug_aranges)
 .debug_aranges
                0x00000000       0x60 .build/obj_lily58_rev1_default/i2c.o
 .debug_aranges
                0x00000060       0x70 .build/obj_lily58_rev1_default/serial.o
 .debug_aranges
                0x000000d0       0xc0 .build/obj_lily58_rev1_default/ssd1306.o
 .debug_aranges
                0x00000190       0x98 .build/obj_lily58_rev1_default/rev1/matrix.o
 .debug_aranges
                0x00000228       0x38 .build/obj_lily58_rev1_default/rev1/split_util.o
 .debug_aranges
                0x00000260       0x30 .build/obj_lily58_rev1_default/rev1/split_scomm.o
 .debug_aranges
                0x00000290       0x18 .build/obj_lily58_rev1_default/./lib/glcdfont.o
 .debug_aranges
                0x000002a8       0x20 .build/obj_lily58_rev1_default/./lib/layer_state_reader.o
 .debug_aranges
                0x000002c8       0x20 .build/obj_lily58_rev1_default/./lib/logo_reader.o
 .debug_aranges
                0x000002e8       0x30 .build/obj_lily58_rev1_default/./lib/keylogger.o
 .debug_aranges
                0x00000318       0x20 .build/obj_lily58_rev1_default/keyboards/lily58/lily58.o
 .debug_aranges
                0x00000338       0x20 .build/obj_lily58_rev1_default/keyboards/lily58/rev1/rev1.o
 .debug_aranges
                0x00000358       0x58 .build/obj_lily58_rev1_default/keyboards/lily58/keymaps/default/keymap.o
 .debug_aranges
                0x000003b0      0x140 .build/obj_lily58_rev1_default/quantum/quantum.o
 .debug_aranges
                0x000004f0       0x40 .build/obj_lily58_rev1_default/quantum/keymap_common.o
 .debug_aranges
                0x00000530       0x28 .build/obj_lily58_rev1_default/quantum/keycode_config.o
 .debug_aranges
                0x00000558       0x20 .build/obj_lily58_rev1_default/quantum/color.o
 .debug_aranges
                0x00000578      0x2d0 .build/obj_lily58_rev1_default/quantum/rgblight.o
 .debug_aranges
                0x00000848       0x38 .build/obj_lily58_rev1_default/quantum/process_keycode/process_rgb.o
 .debug_aranges
                0x00000880       0x28 .build/obj_lily58_rev1_default/ws2812.o
 .debug_aranges
                0x000008a8       0x18 .build/obj_lily58_rev1_default/quantum/led_tables.o
 .debug_aranges
                0x000008c0       0x38 .build/obj_lily58_rev1_default/quantum/encoder.o
 .debug_aranges
                0x000008f8       0x28 .build/obj_lily58_rev1_default/quantum/process_keycode/process_space_cadet.o
 .debug_aranges
                0x00000920       0x20 .build/obj_lily58_rev1_default/quantum/process_keycode/process_magic.o
 .debug_aranges
                0x00000940       0x20 .build/obj_lily58_rev1_default/quantum/process_keycode/process_grave_esc.o
 .debug_aranges
                0x00000960       0x68 .build/obj_lily58_rev1_default/common/host.o
 .debug_aranges
                0x000009c8       0x60 .build/obj_lily58_rev1_default/common/keyboard.o
 .debug_aranges
                0x00000a28       0xd0 .build/obj_lily58_rev1_default/common/action.o
 .debug_aranges
                0x00000af8       0x48 .build/obj_lily58_rev1_default/common/action_tapping.o
 .debug_aranges
                0x00000b40       0xe0 .build/obj_lily58_rev1_default/common/action_layer.o
 .debug_aranges
                0x00000c20      0x140 .build/obj_lily58_rev1_default/common/action_util.o
 .debug_aranges
                0x00000d60       0x18 .build/obj_lily58_rev1_default/common/debug.o
 .debug_aranges
                0x00000d78       0xe8 .build/obj_lily58_rev1_default/common/eeconfig.o
 .debug_aranges
                0x00000e60       0x58 .build/obj_lily58_rev1_default/common/report.o
 .debug_aranges
                0x00000eb8       0x58 .build/obj_lily58_rev1_default/common/avr/suspend.o
 .debug_aranges
                0x00000f10       0x50 .build/obj_lily58_rev1_default/common/avr/timer.o
 .debug_aranges
                0x00000f60       0x28 .build/obj_lily58_rev1_default/common/avr/bootloader.o
 .debug_aranges
                0x00000f88       0x20 .build/obj_lily58_rev1_default/common/magic.o
 .debug_aranges
                0x00000fa8       0x90 .build/obj_lily58_rev1_default/lufa.o
 .debug_aranges
                0x00001038       0x20 .build/obj_lily58_rev1_default/usb_descriptor.o
 .debug_aranges
                0x00001058       0x38 .build/obj_lily58_rev1_default/outputselect.o
 .debug_aranges
                0x00001090       0x20 .build/obj_lily58_rev1_default/lib/lufa/LUFA/Drivers/USB/Core/AVR8/Device_AVR8.o
 .debug_aranges
                0x000010b0       0xc8 .build/obj_lily58_rev1_default/lib/lufa/LUFA/Drivers/USB/Core/AVR8/EndpointStream_AVR8.o
 .debug_aranges
                0x00001178       0x40 .build/obj_lily58_rev1_default/lib/lufa/LUFA/Drivers/USB/Core/AVR8/Endpoint_AVR8.o
 .debug_aranges
                0x000011b8       0x30 .build/obj_lily58_rev1_default/lib/lufa/LUFA/Drivers/USB/Core/AVR8/USBController_AVR8.o
 .debug_aranges
                0x000011e8       0x38 .build/obj_lily58_rev1_default/lib/lufa/LUFA/Drivers/USB/Core/AVR8/USBInterrupt_AVR8.o
 .debug_aranges
                0x00001220       0x20 .build/obj_lily58_rev1_default/lib/lufa/LUFA/Drivers/USB/Core/DeviceStandardReq.o
 .debug_aranges
                0x00001240       0x30 .build/obj_lily58_rev1_default/lib/lufa/LUFA/Drivers/USB/Core/Events.o
 .debug_aranges
                0x00001270       0x20 .build/obj_lily58_rev1_default/lib/lufa/LUFA/Drivers/USB/Core/USBTask.o
 .debug_aranges
                0x00001290       0x20 c:/msys64/home/kyleo/qmk_utils/avr8-gnu-toolchain/bin/../lib/gcc/avr/8.3.0/avr5\libgcc.a(_divmodqi4.o)
 .debug_aranges
                0x000012b0       0x20 c:/msys64/home/kyleo/qmk_utils/avr8-gnu-toolchain/bin/../lib/gcc/avr/8.3.0/avr5\libgcc.a(_udivmodhi4.o)
 .debug_aranges
                0x000012d0       0x20 c:/msys64/home/kyleo/qmk_utils/avr8-gnu-toolchain/bin/../lib/gcc/avr/8.3.0/avr5\libgcc.a(_divmodhi4.o)
 .debug_aranges
                0x000012f0       0x20 c:/msys64/home/kyleo/qmk_utils/avr8-gnu-toolchain/bin/../lib/gcc/avr/8.3.0/avr5\libgcc.a(_exit.o)
 .debug_aranges
                0x00001310       0x20 c:/msys64/home/kyleo/qmk_utils/avr8-gnu-toolchain/bin/../lib/gcc/avr/8.3.0/avr5\libgcc.a(_tablejump2.o)
 .debug_aranges
                0x00001330       0x20 c:/msys64/home/kyleo/qmk_utils/avr8-gnu-toolchain/bin/../lib/gcc/avr/8.3.0/avr5\libgcc.a(_copy_data.o)
 .debug_aranges
                0x00001350       0x20 c:/msys64/home/kyleo/qmk_utils/avr8-gnu-toolchain/bin/../lib/gcc/avr/8.3.0/avr5\libgcc.a(_clear_bss.o)
 .debug_aranges
                0x00001370       0x20 c:/msys64/home/kyleo/qmk_utils/avr8-gnu-toolchain/bin/../lib/gcc/avr/8.3.0/avr5\libgcc.a(_udivmodqi4.o)
 .debug_aranges
                0x00001390       0x20 c:/msys64/home/kyleo/qmk_utils/avr8-gnu-toolchain/bin/../lib/gcc/avr/8.3.0/avr5\libgcc.a(_prologue.o)
 .debug_aranges
                0x000013b0       0x20 c:/msys64/home/kyleo/qmk_utils/avr8-gnu-toolchain/bin/../lib/gcc/avr/8.3.0/avr5\libgcc.a(_epilogue.o)

.debug_pubnames
 *(.debug_pubnames)

.debug_info     0x00000000    0x24c95
 *(.debug_info .gnu.linkonce.wi.*)
 .debug_info    0x00000000      0x9f4 c:/msys64/home/kyleo/qmk_utils/avr8-gnu-toolchain/bin/../lib/gcc/avr/8.3.0/../../../../avr/lib/avr5/crtatmega32u4.o
 .debug_info    0x000009f4      0x2cf .build/obj_lily58_rev1_default/i2c.o
 .debug_info    0x00000cc3      0xf0d .build/obj_lily58_rev1_default/serial.o
 .debug_info    0x00001bd0     0x145a .build/obj_lily58_rev1_default/ssd1306.o
 .debug_info    0x0000302a      0xe66 .build/obj_lily58_rev1_default/rev1/matrix.o
 .debug_info    0x00003e90      0x2da .build/obj_lily58_rev1_default/rev1/split_util.o
 .debug_info    0x0000416a      0x2eb .build/obj_lily58_rev1_default/rev1/split_scomm.o
 .debug_info    0x00004455       0x84 .build/obj_lily58_rev1_default/./lib/glcdfont.o
 .debug_info    0x000044d9      0x6d9 .build/obj_lily58_rev1_default/./lib/layer_state_reader.o
 .debug_info    0x00004bb2      0x5fb .build/obj_lily58_rev1_default/./lib/logo_reader.o
 .debug_info    0x000051ad      0x903 .build/obj_lily58_rev1_default/./lib/keylogger.o
 .debug_info    0x00005ab0      0x8c4 .build/obj_lily58_rev1_default/keyboards/lily58/lily58.o
 .debug_info    0x00006374      0x5d8 .build/obj_lily58_rev1_default/keyboards/lily58/rev1/rev1.o
 .debug_info    0x0000694c     0x1ebe .build/obj_lily58_rev1_default/keyboards/lily58/keymaps/default/keymap.o
 .debug_info    0x0000880a     0x2a48 .build/obj_lily58_rev1_default/quantum/quantum.o
 .debug_info    0x0000b252     0x1ed8 .build/obj_lily58_rev1_default/quantum/keymap_common.o
 .debug_info    0x0000d12a      0x63c .build/obj_lily58_rev1_default/quantum/keycode_config.o
 .debug_info    0x0000d766      0x253 .build/obj_lily58_rev1_default/quantum/color.o
 .debug_info    0x0000d9b9     0x2a64 .build/obj_lily58_rev1_default/quantum/rgblight.o
 .debug_info    0x0001041d     0x177f .build/obj_lily58_rev1_default/quantum/process_keycode/process_rgb.o
 .debug_info    0x00011b9c      0x32f .build/obj_lily58_rev1_default/ws2812.o
 .debug_info    0x00011ecb       0x92 .build/obj_lily58_rev1_default/quantum/led_tables.o
 .debug_info    0x00011f5d      0x7f1 .build/obj_lily58_rev1_default/quantum/encoder.o
 .debug_info    0x0001274e     0x160c .build/obj_lily58_rev1_default/quantum/process_keycode/process_space_cadet.o
 .debug_info    0x00013d5a     0x110b .build/obj_lily58_rev1_default/quantum/process_keycode/process_magic.o
 .debug_info    0x00014e65     0x156b .build/obj_lily58_rev1_default/quantum/process_keycode/process_grave_esc.o
 .debug_info    0x000163d0      0x56c .build/obj_lily58_rev1_default/common/host.o
 .debug_info    0x0001693c      0x8e8 .build/obj_lily58_rev1_default/common/keyboard.o
 .debug_info    0x00017224     0x1d77 .build/obj_lily58_rev1_default/common/action.o
 .debug_info    0x00018f9b      0xf86 .build/obj_lily58_rev1_default/common/action_tapping.o
 .debug_info    0x00019f21      0xc9a .build/obj_lily58_rev1_default/common/action_layer.o
 .debug_info    0x0001abbb      0xb7a .build/obj_lily58_rev1_default/common/action_util.o
 .debug_info    0x0001b735      0x110 .build/obj_lily58_rev1_default/common/debug.o
 .debug_info    0x0001b845      0x8e9 .build/obj_lily58_rev1_default/common/eeconfig.o
 .debug_info    0x0001c12e      0x98f .build/obj_lily58_rev1_default/common/report.o
 .debug_info    0x0001cabd      0x71a .build/obj_lily58_rev1_default/common/avr/suspend.o
 .debug_info    0x0001d1d7      0x443 .build/obj_lily58_rev1_default/common/avr/timer.o
 .debug_info    0x0001d61a      0x3c7 .build/obj_lily58_rev1_default/common/avr/bootloader.o
 .debug_info    0x0001d9e1      0x381 .build/obj_lily58_rev1_default/common/magic.o
 .debug_info    0x0001dd62     0x176d .build/obj_lily58_rev1_default/lufa.o
 .debug_info    0x0001f4cf      0x9e8 .build/obj_lily58_rev1_default/usb_descriptor.o
 .debug_info    0x0001feb7      0x51b .build/obj_lily58_rev1_default/outputselect.o
 .debug_info    0x000203d2      0x1c0 .build/obj_lily58_rev1_default/lib/lufa/LUFA/Drivers/USB/Core/AVR8/Device_AVR8.o
 .debug_info    0x00020592     0x1da4 .build/obj_lily58_rev1_default/lib/lufa/LUFA/Drivers/USB/Core/AVR8/EndpointStream_AVR8.o
 .debug_info    0x00022336      0x75d .build/obj_lily58_rev1_default/lib/lufa/LUFA/Drivers/USB/Core/AVR8/Endpoint_AVR8.o
 .debug_info    0x00022a93      0x606 .build/obj_lily58_rev1_default/lib/lufa/LUFA/Drivers/USB/Core/AVR8/USBController_AVR8.o
 .debug_info    0x00023099      0xa43 .build/obj_lily58_rev1_default/lib/lufa/LUFA/Drivers/USB/Core/AVR8/USBInterrupt_AVR8.o
 .debug_info    0x00023adc      0xc59 .build/obj_lily58_rev1_default/lib/lufa/LUFA/Drivers/USB/Core/DeviceStandardReq.o
 .debug_info    0x00024735       0xe9 .build/obj_lily58_rev1_default/lib/lufa/LUFA/Drivers/USB/Core/Events.o
 .debug_info    0x0002481e      0x2fb .build/obj_lily58_rev1_default/lib/lufa/LUFA/Drivers/USB/Core/USBTask.o
 .debug_info    0x00024b19       0x26 c:/msys64/home/kyleo/qmk_utils/avr8-gnu-toolchain/bin/../lib/gcc/avr/8.3.0/avr5\libgcc.a(_divmodqi4.o)
 .debug_info    0x00024b3f       0x26 c:/msys64/home/kyleo/qmk_utils/avr8-gnu-toolchain/bin/../lib/gcc/avr/8.3.0/avr5\libgcc.a(_udivmodhi4.o)
 .debug_info    0x00024b65       0x26 c:/msys64/home/kyleo/qmk_utils/avr8-gnu-toolchain/bin/../lib/gcc/avr/8.3.0/avr5\libgcc.a(_divmodhi4.o)
 .debug_info    0x00024b8b       0x26 c:/msys64/home/kyleo/qmk_utils/avr8-gnu-toolchain/bin/../lib/gcc/avr/8.3.0/avr5\libgcc.a(_exit.o)
 .debug_info    0x00024bb1       0x26 c:/msys64/home/kyleo/qmk_utils/avr8-gnu-toolchain/bin/../lib/gcc/avr/8.3.0/avr5\libgcc.a(_tablejump2.o)
 .debug_info    0x00024bd7       0x26 c:/msys64/home/kyleo/qmk_utils/avr8-gnu-toolchain/bin/../lib/gcc/avr/8.3.0/avr5\libgcc.a(_copy_data.o)
 .debug_info    0x00024bfd       0x26 c:/msys64/home/kyleo/qmk_utils/avr8-gnu-toolchain/bin/../lib/gcc/avr/8.3.0/avr5\libgcc.a(_clear_bss.o)
 .debug_info    0x00024c23       0x26 c:/msys64/home/kyleo/qmk_utils/avr8-gnu-toolchain/bin/../lib/gcc/avr/8.3.0/avr5\libgcc.a(_udivmodqi4.o)
 .debug_info    0x00024c49       0x26 c:/msys64/home/kyleo/qmk_utils/avr8-gnu-toolchain/bin/../lib/gcc/avr/8.3.0/avr5\libgcc.a(_prologue.o)
 .debug_info    0x00024c6f       0x26 c:/msys64/home/kyleo/qmk_utils/avr8-gnu-toolchain/bin/../lib/gcc/avr/8.3.0/avr5\libgcc.a(_epilogue.o)

.debug_abbrev   0x00000000     0x8240
 *(.debug_abbrev)
 .debug_abbrev  0x00000000      0x96a c:/msys64/home/kyleo/qmk_utils/avr8-gnu-toolchain/bin/../lib/gcc/avr/8.3.0/../../../../avr/lib/avr5/crtatmega32u4.o
 .debug_abbrev  0x0000096a      0x190 .build/obj_lily58_rev1_default/i2c.o
 .debug_abbrev  0x00000afa      0x371 .build/obj_lily58_rev1_default/serial.o
 .debug_abbrev  0x00000e6b      0x534 .build/obj_lily58_rev1_default/ssd1306.o
 .debug_abbrev  0x0000139f      0x530 .build/obj_lily58_rev1_default/rev1/matrix.o
 .debug_abbrev  0x000018cf      0x1d0 .build/obj_lily58_rev1_default/rev1/split_util.o
 .debug_abbrev  0x00001a9f      0x17a .build/obj_lily58_rev1_default/rev1/split_scomm.o
 .debug_abbrev  0x00001c19       0x52 .build/obj_lily58_rev1_default/./lib/glcdfont.o
 .debug_abbrev  0x00001c6b      0x1ef .build/obj_lily58_rev1_default/./lib/layer_state_reader.o
 .debug_abbrev  0x00001e5a      0x1bb .build/obj_lily58_rev1_default/./lib/logo_reader.o
 .debug_abbrev  0x00002015      0x271 .build/obj_lily58_rev1_default/./lib/keylogger.o
 .debug_abbrev  0x00002286      0x251 .build/obj_lily58_rev1_default/keyboards/lily58/lily58.o
 .debug_abbrev  0x000024d7      0x1b0 .build/obj_lily58_rev1_default/keyboards/lily58/rev1/rev1.o
 .debug_abbrev  0x00002687      0x331 .build/obj_lily58_rev1_default/keyboards/lily58/keymaps/default/keymap.o
 .debug_abbrev  0x000029b8      0x4ea .build/obj_lily58_rev1_default/quantum/quantum.o
 .debug_abbrev  0x00002ea2      0x38f .build/obj_lily58_rev1_default/quantum/keymap_common.o
 .debug_abbrev  0x00003231      0x119 .build/obj_lily58_rev1_default/quantum/keycode_config.o
 .debug_abbrev  0x0000334a      0x10d .build/obj_lily58_rev1_default/quantum/color.o
 .debug_abbrev  0x00003457      0x63e .build/obj_lily58_rev1_default/quantum/rgblight.o
 .debug_abbrev  0x00003a95      0x2cb .build/obj_lily58_rev1_default/quantum/process_keycode/process_rgb.o
 .debug_abbrev  0x00003d60      0x1a9 .build/obj_lily58_rev1_default/ws2812.o
 .debug_abbrev  0x00003f09       0x6a .build/obj_lily58_rev1_default/quantum/led_tables.o
 .debug_abbrev  0x00003f73      0x2bb .build/obj_lily58_rev1_default/quantum/encoder.o
 .debug_abbrev  0x0000422e      0x261 .build/obj_lily58_rev1_default/quantum/process_keycode/process_space_cadet.o
 .debug_abbrev  0x0000448f      0x1fd .build/obj_lily58_rev1_default/quantum/process_keycode/process_magic.o
 .debug_abbrev  0x0000468c      0x24b .build/obj_lily58_rev1_default/quantum/process_keycode/process_grave_esc.o
 .debug_abbrev  0x000048d7      0x1da .build/obj_lily58_rev1_default/common/host.o
 .debug_abbrev  0x00004ab1      0x326 .build/obj_lily58_rev1_default/common/keyboard.o
 .debug_abbrev  0x00004dd7      0x456 .build/obj_lily58_rev1_default/common/action.o
 .debug_abbrev  0x0000522d      0x35f .build/obj_lily58_rev1_default/common/action_tapping.o
 .debug_abbrev  0x0000558c      0x30f .build/obj_lily58_rev1_default/common/action_layer.o
 .debug_abbrev  0x0000589b      0x305 .build/obj_lily58_rev1_default/common/action_util.o
 .debug_abbrev  0x00005ba0       0xa2 .build/obj_lily58_rev1_default/common/debug.o
 .debug_abbrev  0x00005c42      0x135 .build/obj_lily58_rev1_default/common/eeconfig.o
 .debug_abbrev  0x00005d77      0x1e9 .build/obj_lily58_rev1_default/common/report.o
 .debug_abbrev  0x00005f60      0x312 .build/obj_lily58_rev1_default/common/avr/suspend.o
 .debug_abbrev  0x00006272      0x1ba .build/obj_lily58_rev1_default/common/avr/timer.o
 .debug_abbrev  0x0000642c      0x26c .build/obj_lily58_rev1_default/common/avr/bootloader.o
 .debug_abbrev  0x00006698      0x123 .build/obj_lily58_rev1_default/common/magic.o
 .debug_abbrev  0x000067bb      0x5d0 .build/obj_lily58_rev1_default/lufa.o
 .debug_abbrev  0x00006d8b      0x207 .build/obj_lily58_rev1_default/usb_descriptor.o
 .debug_abbrev  0x00006f92      0x227 .build/obj_lily58_rev1_default/outputselect.o
 .debug_abbrev  0x000071b9       0xcb .build/obj_lily58_rev1_default/lib/lufa/LUFA/Drivers/USB/Core/AVR8/Device_AVR8.o
 .debug_abbrev  0x00007284      0x23b .build/obj_lily58_rev1_default/lib/lufa/LUFA/Drivers/USB/Core/AVR8/EndpointStream_AVR8.o
 .debug_abbrev  0x000074bf      0x29d .build/obj_lily58_rev1_default/lib/lufa/LUFA/Drivers/USB/Core/AVR8/Endpoint_AVR8.o
 .debug_abbrev  0x0000775c      0x1f5 .build/obj_lily58_rev1_default/lib/lufa/LUFA/Drivers/USB/Core/AVR8/USBController_AVR8.o
 .debug_abbrev  0x00007951      0x2a5 .build/obj_lily58_rev1_default/lib/lufa/LUFA/Drivers/USB/Core/AVR8/USBInterrupt_AVR8.o
 .debug_abbrev  0x00007bf6      0x346 .build/obj_lily58_rev1_default/lib/lufa/LUFA/Drivers/USB/Core/DeviceStandardReq.o
 .debug_abbrev  0x00007f3c       0x89 .build/obj_lily58_rev1_default/lib/lufa/LUFA/Drivers/USB/Core/Events.o
 .debug_abbrev  0x00007fc5      0x1b3 .build/obj_lily58_rev1_default/lib/lufa/LUFA/Drivers/USB/Core/USBTask.o
 .debug_abbrev  0x00008178       0x14 c:/msys64/home/kyleo/qmk_utils/avr8-gnu-toolchain/bin/../lib/gcc/avr/8.3.0/avr5\libgcc.a(_divmodqi4.o)
 .debug_abbrev  0x0000818c       0x14 c:/msys64/home/kyleo/qmk_utils/avr8-gnu-toolchain/bin/../lib/gcc/avr/8.3.0/avr5\libgcc.a(_udivmodhi4.o)
 .debug_abbrev  0x000081a0       0x14 c:/msys64/home/kyleo/qmk_utils/avr8-gnu-toolchain/bin/../lib/gcc/avr/8.3.0/avr5\libgcc.a(_divmodhi4.o)
 .debug_abbrev  0x000081b4       0x14 c:/msys64/home/kyleo/qmk_utils/avr8-gnu-toolchain/bin/../lib/gcc/avr/8.3.0/avr5\libgcc.a(_exit.o)
 .debug_abbrev  0x000081c8       0x14 c:/msys64/home/kyleo/qmk_utils/avr8-gnu-toolchain/bin/../lib/gcc/avr/8.3.0/avr5\libgcc.a(_tablejump2.o)
 .debug_abbrev  0x000081dc       0x14 c:/msys64/home/kyleo/qmk_utils/avr8-gnu-toolchain/bin/../lib/gcc/avr/8.3.0/avr5\libgcc.a(_copy_data.o)
 .debug_abbrev  0x000081f0       0x14 c:/msys64/home/kyleo/qmk_utils/avr8-gnu-toolchain/bin/../lib/gcc/avr/8.3.0/avr5\libgcc.a(_clear_bss.o)
 .debug_abbrev  0x00008204       0x14 c:/msys64/home/kyleo/qmk_utils/avr8-gnu-toolchain/bin/../lib/gcc/avr/8.3.0/avr5\libgcc.a(_udivmodqi4.o)
 .debug_abbrev  0x00008218       0x14 c:/msys64/home/kyleo/qmk_utils/avr8-gnu-toolchain/bin/../lib/gcc/avr/8.3.0/avr5\libgcc.a(_prologue.o)
 .debug_abbrev  0x0000822c       0x14 c:/msys64/home/kyleo/qmk_utils/avr8-gnu-toolchain/bin/../lib/gcc/avr/8.3.0/avr5\libgcc.a(_epilogue.o)

.debug_line     0x00000000    0x1832f
 *(.debug_line .debug_line.* .debug_line_end)
 .debug_line    0x00000000       0x1d c:/msys64/home/kyleo/qmk_utils/avr8-gnu-toolchain/bin/../lib/gcc/avr/8.3.0/../../../../avr/lib/avr5/crtatmega32u4.o
 .debug_line    0x0000001d      0x555 .build/obj_lily58_rev1_default/i2c.o
 .debug_line    0x00000572     0x12e3 .build/obj_lily58_rev1_default/serial.o
 .debug_line    0x00001855      0xd7d .build/obj_lily58_rev1_default/ssd1306.o
 .debug_line    0x000025d2      0xc7d .build/obj_lily58_rev1_default/rev1/matrix.o
 .debug_line    0x0000324f      0x2f6 .build/obj_lily58_rev1_default/rev1/split_util.o
 .debug_line    0x00003545      0x221 .build/obj_lily58_rev1_default/rev1/split_scomm.o
 .debug_line    0x00003766       0x40 .build/obj_lily58_rev1_default/./lib/glcdfont.o
 .debug_line    0x000037a6      0x23a .build/obj_lily58_rev1_default/./lib/layer_state_reader.o
 .debug_line    0x000039e0      0x1db .build/obj_lily58_rev1_default/./lib/logo_reader.o
 .debug_line    0x00003bbb      0x318 .build/obj_lily58_rev1_default/./lib/keylogger.o
 .debug_line    0x00003ed3      0x236 .build/obj_lily58_rev1_default/keyboards/lily58/lily58.o
 .debug_line    0x00004109      0x1c6 .build/obj_lily58_rev1_default/keyboards/lily58/rev1/rev1.o
 .debug_line    0x000042cf      0x656 .build/obj_lily58_rev1_default/keyboards/lily58/keymaps/default/keymap.o
 .debug_line    0x00004925     0x16bf .build/obj_lily58_rev1_default/quantum/quantum.o
 .debug_line    0x00005fe4      0x61c .build/obj_lily58_rev1_default/quantum/keymap_common.o
 .debug_line    0x00006600      0x5a8 .build/obj_lily58_rev1_default/quantum/keycode_config.o
 .debug_line    0x00006ba8      0x2bc .build/obj_lily58_rev1_default/quantum/color.o
 .debug_line    0x00006e64     0x2b14 .build/obj_lily58_rev1_default/quantum/rgblight.o
 .debug_line    0x00009978      0x452 .build/obj_lily58_rev1_default/quantum/process_keycode/process_rgb.o
 .debug_line    0x00009dca      0x23f .build/obj_lily58_rev1_default/ws2812.o
 .debug_line    0x0000a009       0x8f .build/obj_lily58_rev1_default/quantum/led_tables.o
 .debug_line    0x0000a098      0x3a6 .build/obj_lily58_rev1_default/quantum/encoder.o
 .debug_line    0x0000a43e      0x4b2 .build/obj_lily58_rev1_default/quantum/process_keycode/process_space_cadet.o
 .debug_line    0x0000a8f0      0x4a6 .build/obj_lily58_rev1_default/quantum/process_keycode/process_magic.o
 .debug_line    0x0000ad96      0x2dd .build/obj_lily58_rev1_default/quantum/process_keycode/process_grave_esc.o
 .debug_line    0x0000b073      0x35b .build/obj_lily58_rev1_default/common/host.o
 .debug_line    0x0000b3ce      0x4fb .build/obj_lily58_rev1_default/common/keyboard.o
 .debug_line    0x0000b8c9     0x1242 .build/obj_lily58_rev1_default/common/action.o
 .debug_line    0x0000cb0b      0xc86 .build/obj_lily58_rev1_default/common/action_tapping.o
 .debug_line    0x0000d791      0x922 .build/obj_lily58_rev1_default/common/action_layer.o
 .debug_line    0x0000e0b3      0x927 .build/obj_lily58_rev1_default/common/action_util.o
 .debug_line    0x0000e9da       0x8d .build/obj_lily58_rev1_default/common/debug.o
 .debug_line    0x0000ea67      0x53b .build/obj_lily58_rev1_default/common/eeconfig.o
 .debug_line    0x0000efa2      0x397 .build/obj_lily58_rev1_default/common/report.o
 .debug_line    0x0000f339      0x4a0 .build/obj_lily58_rev1_default/common/avr/suspend.o
 .debug_line    0x0000f7d9      0x48d .build/obj_lily58_rev1_default/common/avr/timer.o
 .debug_line    0x0000fc66      0x34a .build/obj_lily58_rev1_default/common/avr/bootloader.o
 .debug_line    0x0000ffb0      0x180 .build/obj_lily58_rev1_default/common/magic.o
 .debug_line    0x00010130     0x108c .build/obj_lily58_rev1_default/lufa.o
 .debug_line    0x000111bc      0x3e4 .build/obj_lily58_rev1_default/usb_descriptor.o
 .debug_line    0x000115a0      0x277 .build/obj_lily58_rev1_default/outputselect.o
 .debug_line    0x00011817      0x252 .build/obj_lily58_rev1_default/lib/lufa/LUFA/Drivers/USB/Core/AVR8/Device_AVR8.o
 .debug_line    0x00011a69     0x338d .build/obj_lily58_rev1_default/lib/lufa/LUFA/Drivers/USB/Core/AVR8/EndpointStream_AVR8.o
 .debug_line    0x00014df6      0x9ac .build/obj_lily58_rev1_default/lib/lufa/LUFA/Drivers/USB/Core/AVR8/Endpoint_AVR8.o
 .debug_line    0x000157a2      0x6a3 .build/obj_lily58_rev1_default/lib/lufa/LUFA/Drivers/USB/Core/AVR8/USBController_AVR8.o
 .debug_line    0x00015e45      0xd3f .build/obj_lily58_rev1_default/lib/lufa/LUFA/Drivers/USB/Core/AVR8/USBInterrupt_AVR8.o
 .debug_line    0x00016b84      0xd6f .build/obj_lily58_rev1_default/lib/lufa/LUFA/Drivers/USB/Core/DeviceStandardReq.o
 .debug_line    0x000178f3      0x102 .build/obj_lily58_rev1_default/lib/lufa/LUFA/Drivers/USB/Core/Events.o
 .debug_line    0x000179f5      0x27c .build/obj_lily58_rev1_default/lib/lufa/LUFA/Drivers/USB/Core/USBTask.o
 .debug_line    0x00017c71       0xa3 c:/msys64/home/kyleo/qmk_utils/avr8-gnu-toolchain/bin/../lib/gcc/avr/8.3.0/avr5\libgcc.a(_divmodqi4.o)
 .debug_line    0x00017d14       0xcd c:/msys64/home/kyleo/qmk_utils/avr8-gnu-toolchain/bin/../lib/gcc/avr/8.3.0/avr5\libgcc.a(_udivmodhi4.o)
 .debug_line    0x00017de1       0xc7 c:/msys64/home/kyleo/qmk_utils/avr8-gnu-toolchain/bin/../lib/gcc/avr/8.3.0/avr5\libgcc.a(_divmodhi4.o)
 .debug_line    0x00017ea8       0x61 c:/msys64/home/kyleo/qmk_utils/avr8-gnu-toolchain/bin/../lib/gcc/avr/8.3.0/avr5\libgcc.a(_exit.o)
 .debug_line    0x00017f09       0x79 c:/msys64/home/kyleo/qmk_utils/avr8-gnu-toolchain/bin/../lib/gcc/avr/8.3.0/avr5\libgcc.a(_tablejump2.o)
 .debug_line    0x00017f82       0x97 c:/msys64/home/kyleo/qmk_utils/avr8-gnu-toolchain/bin/../lib/gcc/avr/8.3.0/avr5\libgcc.a(_copy_data.o)
 .debug_line    0x00018019       0x85 c:/msys64/home/kyleo/qmk_utils/avr8-gnu-toolchain/bin/../lib/gcc/avr/8.3.0/avr5\libgcc.a(_clear_bss.o)
 .debug_line    0x0001809e       0x9d c:/msys64/home/kyleo/qmk_utils/avr8-gnu-toolchain/bin/../lib/gcc/avr/8.3.0/avr5\libgcc.a(_udivmodqi4.o)
 .debug_line    0x0001813b       0xfd c:/msys64/home/kyleo/qmk_utils/avr8-gnu-toolchain/bin/../lib/gcc/avr/8.3.0/avr5\libgcc.a(_prologue.o)
 .debug_line    0x00018238       0xf7 c:/msys64/home/kyleo/qmk_utils/avr8-gnu-toolchain/bin/../lib/gcc/avr/8.3.0/avr5\libgcc.a(_epilogue.o)

.debug_frame    0x00000000     0x2f60
 *(.debug_frame)
 .debug_frame   0x00000000       0xc0 .build/obj_lily58_rev1_default/i2c.o
 .debug_frame   0x000000c0      0x19c .build/obj_lily58_rev1_default/serial.o
 .debug_frame   0x0000025c      0x288 .build/obj_lily58_rev1_default/ssd1306.o
 .debug_frame   0x000004e4      0x1a0 .build/obj_lily58_rev1_default/rev1/matrix.o
 .debug_frame   0x00000684       0x54 .build/obj_lily58_rev1_default/rev1/split_util.o
 .debug_frame   0x000006d8       0x5c .build/obj_lily58_rev1_default/rev1/split_scomm.o
 .debug_frame   0x00000734       0x48 .build/obj_lily58_rev1_default/./lib/layer_state_reader.o
 .debug_frame   0x0000077c       0x24 .build/obj_lily58_rev1_default/./lib/logo_reader.o
 .debug_frame   0x000007a0       0x78 .build/obj_lily58_rev1_default/./lib/keylogger.o
 .debug_frame   0x00000818       0x3c .build/obj_lily58_rev1_default/keyboards/lily58/lily58.o
 .debug_frame   0x00000854       0x24 .build/obj_lily58_rev1_default/keyboards/lily58/rev1/rev1.o
 .debug_frame   0x00000878      0x120 .build/obj_lily58_rev1_default/keyboards/lily58/keymaps/default/keymap.o
 .debug_frame   0x00000998      0x3ec .build/obj_lily58_rev1_default/quantum/quantum.o
 .debug_frame   0x00000d84       0x70 .build/obj_lily58_rev1_default/quantum/keymap_common.o
 .debug_frame   0x00000df4       0x34 .build/obj_lily58_rev1_default/quantum/keycode_config.o
 .debug_frame   0x00000e28       0x5c .build/obj_lily58_rev1_default/quantum/color.o
 .debug_frame   0x00000e84      0x778 .build/obj_lily58_rev1_default/quantum/rgblight.o
 .debug_frame   0x000015fc      0x114 .build/obj_lily58_rev1_default/quantum/process_keycode/process_rgb.o
 .debug_frame   0x00001710       0x34 .build/obj_lily58_rev1_default/ws2812.o
 .debug_frame   0x00001744       0x54 .build/obj_lily58_rev1_default/quantum/encoder.o
 .debug_frame   0x00001798       0x4c .build/obj_lily58_rev1_default/quantum/process_keycode/process_space_cadet.o
 .debug_frame   0x000017e4       0x30 .build/obj_lily58_rev1_default/quantum/process_keycode/process_magic.o
 .debug_frame   0x00001814       0x30 .build/obj_lily58_rev1_default/quantum/process_keycode/process_grave_esc.o
 .debug_frame   0x00001844       0xb4 .build/obj_lily58_rev1_default/common/host.o
 .debug_frame   0x000018f8      0x108 .build/obj_lily58_rev1_default/common/keyboard.o
 .debug_frame   0x00001a00      0x22c .build/obj_lily58_rev1_default/common/action.o
 .debug_frame   0x00001c2c       0xf8 .build/obj_lily58_rev1_default/common/action_tapping.o
 .debug_frame   0x00001d24      0x294 .build/obj_lily58_rev1_default/common/action_layer.o
 .debug_frame   0x00001fb8      0x284 .build/obj_lily58_rev1_default/common/action_util.o
 .debug_frame   0x0000223c      0x1c4 .build/obj_lily58_rev1_default/common/eeconfig.o
 .debug_frame   0x00002400       0x94 .build/obj_lily58_rev1_default/common/report.o
 .debug_frame   0x00002494       0xe0 .build/obj_lily58_rev1_default/common/avr/suspend.o
 .debug_frame   0x00002574       0xb0 .build/obj_lily58_rev1_default/common/avr/timer.o
 .debug_frame   0x00002624       0x34 .build/obj_lily58_rev1_default/common/avr/bootloader.o
 .debug_frame   0x00002658       0x24 .build/obj_lily58_rev1_default/common/magic.o
 .debug_frame   0x0000267c      0x140 .build/obj_lily58_rev1_default/lufa.o
 .debug_frame   0x000027bc       0x24 .build/obj_lily58_rev1_default/usb_descriptor.o
 .debug_frame   0x000027e0       0x5c .build/obj_lily58_rev1_default/outputselect.o
 .debug_frame   0x0000283c       0x24 .build/obj_lily58_rev1_default/lib/lufa/LUFA/Drivers/USB/Core/AVR8/Device_AVR8.o
 .debug_frame   0x00002860      0x474 .build/obj_lily58_rev1_default/lib/lufa/LUFA/Drivers/USB/Core/AVR8/EndpointStream_AVR8.o
 .debug_frame   0x00002cd4       0x7c .build/obj_lily58_rev1_default/lib/lufa/LUFA/Drivers/USB/Core/AVR8/Endpoint_AVR8.o
 .debug_frame   0x00002d50       0x5c .build/obj_lily58_rev1_default/lib/lufa/LUFA/Drivers/USB/Core/AVR8/USBController_AVR8.o
 .debug_frame   0x00002dac      0x108 .build/obj_lily58_rev1_default/lib/lufa/LUFA/Drivers/USB/Core/AVR8/USBInterrupt_AVR8.o
 .debug_frame   0x00002eb4       0x3c .build/obj_lily58_rev1_default/lib/lufa/LUFA/Drivers/USB/Core/DeviceStandardReq.o
 .debug_frame   0x00002ef0       0x44 .build/obj_lily58_rev1_default/lib/lufa/LUFA/Drivers/USB/Core/Events.o
 .debug_frame   0x00002f34       0x2c .build/obj_lily58_rev1_default/lib/lufa/LUFA/Drivers/USB/Core/USBTask.o

.debug_str      0x00000000     0x7523
 *(.debug_str)
 .debug_str     0x00000000      0x371 c:/msys64/home/kyleo/qmk_utils/avr8-gnu-toolchain/bin/../lib/gcc/avr/8.3.0/../../../../avr/lib/avr5/crtatmega32u4.o
 .debug_str     0x00000371      0x25c .build/obj_lily58_rev1_default/i2c.o
                                0x2a2 (size before relaxing)
 .debug_str     0x000005cd      0x3cd .build/obj_lily58_rev1_default/serial.o
                                0x47c (size before relaxing)
 .debug_str     0x0000099a      0x61b .build/obj_lily58_rev1_default/ssd1306.o
                                0x899 (size before relaxing)
 .debug_str     0x00000fb5      0x4d0 .build/obj_lily58_rev1_default/rev1/matrix.o
                                0x7dc (size before relaxing)
 .debug_str     0x00001485       0xad .build/obj_lily58_rev1_default/rev1/split_util.o
                                0x2d6 (size before relaxing)
 .debug_str     0x00001532       0x82 .build/obj_lily58_rev1_default/rev1/split_scomm.o
                                0x338 (size before relaxing)
 .debug_str     0x000015b4       0x20 .build/obj_lily58_rev1_default/./lib/glcdfont.o
                                0x18a (size before relaxing)
 .debug_str     0x000015d4       0x4b .build/obj_lily58_rev1_default/./lib/layer_state_reader.o
                                0x54f (size before relaxing)
 .debug_str     0x0000161f       0x2d .build/obj_lily58_rev1_default/./lib/logo_reader.o
                                0x512 (size before relaxing)
 .debug_str     0x0000164c       0x79 .build/obj_lily58_rev1_default/./lib/keylogger.o
                                0x603 (size before relaxing)
 .debug_str     0x000016c5       0x1a .build/obj_lily58_rev1_default/keyboards/lily58/lily58.o
                                0x5f4 (size before relaxing)
 .debug_str     0x000016df       0x30 .build/obj_lily58_rev1_default/keyboards/lily58/rev1/rev1.o
                                0x510 (size before relaxing)
 .debug_str     0x0000170f     0x17e3 .build/obj_lily58_rev1_default/keyboards/lily58/keymaps/default/keymap.o
                               0x1ffb (size before relaxing)
 .debug_str     0x00002ef2      0x3aa .build/obj_lily58_rev1_default/quantum/quantum.o
                               0x1ebd (size before relaxing)
 .debug_str     0x0000329c      0x49c .build/obj_lily58_rev1_default/quantum/keymap_common.o
                               0x2196 (size before relaxing)
 .debug_str     0x00003738       0x6a .build/obj_lily58_rev1_default/quantum/keycode_config.o
                                0x87c (size before relaxing)
 .debug_str     0x000037a2       0x3a .build/obj_lily58_rev1_default/quantum/color.o
                                0x1c7 (size before relaxing)
 .debug_str     0x000037dc      0xe4e .build/obj_lily58_rev1_default/quantum/rgblight.o
                               0x128a (size before relaxing)
 .debug_str     0x0000462a       0x78 .build/obj_lily58_rev1_default/quantum/process_keycode/process_rgb.o
                               0x1f38 (size before relaxing)
 .debug_str     0x000046a2       0x7d .build/obj_lily58_rev1_default/ws2812.o
                                0x257 (size before relaxing)
 .debug_str     0x0000471f       0x15 .build/obj_lily58_rev1_default/quantum/led_tables.o
                                0x190 (size before relaxing)
 .debug_str     0x00004734       0x8e .build/obj_lily58_rev1_default/quantum/encoder.o
                                0x5b2 (size before relaxing)
 .debug_str     0x000047c2       0x72 .build/obj_lily58_rev1_default/quantum/process_keycode/process_space_cadet.o
                               0x1a1d (size before relaxing)
 .debug_str     0x00004834       0x6f .build/obj_lily58_rev1_default/quantum/process_keycode/process_magic.o
                               0x1437 (size before relaxing)
 .debug_str     0x000048a3       0x67 .build/obj_lily58_rev1_default/quantum/process_keycode/process_grave_esc.o
                               0x19f1 (size before relaxing)
 .debug_str     0x0000490a       0xdb .build/obj_lily58_rev1_default/common/host.o
                                0x3aa (size before relaxing)
 .debug_str     0x000049e5      0x14b .build/obj_lily58_rev1_default/common/keyboard.o
                                0x65c (size before relaxing)
 .debug_str     0x00004b30      0x413 .build/obj_lily58_rev1_default/common/action.o
                               0x15d1 (size before relaxing)
 .debug_str     0x00004f43       0xf7 .build/obj_lily58_rev1_default/common/action_tapping.o
                                0xba1 (size before relaxing)
 .debug_str     0x0000503a       0xd3 .build/obj_lily58_rev1_default/common/action_layer.o
                                0x58f (size before relaxing)
 .debug_str     0x0000510d      0x238 .build/obj_lily58_rev1_default/common/action_util.o
                                0x73f (size before relaxing)
 .debug_str     0x00005345       0x18 .build/obj_lily58_rev1_default/common/debug.o
                                0x1cd (size before relaxing)
 .debug_str     0x0000535d      0x206 .build/obj_lily58_rev1_default/common/eeconfig.o
                                0x47b (size before relaxing)
 .debug_str     0x00005563       0x47 .build/obj_lily58_rev1_default/common/report.o
                                0x928 (size before relaxing)
 .debug_str     0x000055aa      0x1c2 .build/obj_lily58_rev1_default/common/avr/suspend.o
                                0x596 (size before relaxing)
 .debug_str     0x0000576c       0x84 .build/obj_lily58_rev1_default/common/avr/timer.o
                                0x238 (size before relaxing)
 .debug_str     0x000057f0       0x5b .build/obj_lily58_rev1_default/common/avr/bootloader.o
                                0x368 (size before relaxing)
 .debug_str     0x0000584b       0x18 .build/obj_lily58_rev1_default/common/magic.o
                                0x39a (size before relaxing)
 .debug_str     0x00005863      0x67c .build/obj_lily58_rev1_default/lufa.o
                                0xe9f (size before relaxing)
 .debug_str     0x00005edf      0x6bc .build/obj_lily58_rev1_default/usb_descriptor.o
                                0xabb (size before relaxing)
 .debug_str     0x0000659b       0x63 .build/obj_lily58_rev1_default/outputselect.o
                                0x4b7 (size before relaxing)
 .debug_str     0x000065fe       0x5e .build/obj_lily58_rev1_default/lib/lufa/LUFA/Drivers/USB/Core/AVR8/Device_AVR8.o
                                0x2cb (size before relaxing)
 .debug_str     0x0000665c      0x4a3 .build/obj_lily58_rev1_default/lib/lufa/LUFA/Drivers/USB/Core/AVR8/EndpointStream_AVR8.o
                                0x8bf (size before relaxing)
 .debug_str     0x00006aff      0x254 .build/obj_lily58_rev1_default/lib/lufa/LUFA/Drivers/USB/Core/AVR8/Endpoint_AVR8.o
                                0x67f (size before relaxing)
 .debug_str     0x00006d53      0x181 .build/obj_lily58_rev1_default/lib/lufa/LUFA/Drivers/USB/Core/AVR8/USBController_AVR8.o
                                0x5a3 (size before relaxing)
 .debug_str     0x00006ed4      0x146 .build/obj_lily58_rev1_default/lib/lufa/LUFA/Drivers/USB/Core/AVR8/USBInterrupt_AVR8.o
                                0x673 (size before relaxing)
 .debug_str     0x0000701a      0x40d .build/obj_lily58_rev1_default/lib/lufa/LUFA/Drivers/USB/Core/DeviceStandardReq.o
                                0x9b0 (size before relaxing)
 .debug_str     0x00007427       0x59 .build/obj_lily58_rev1_default/lib/lufa/LUFA/Drivers/USB/Core/Events.o
                                0x1c6 (size before relaxing)
 .debug_str     0x00007480       0x45 .build/obj_lily58_rev1_default/lib/lufa/LUFA/Drivers/USB/Core/USBTask.o
                                0x3d2 (size before relaxing)
 .debug_str     0x000074c5       0x5e c:/msys64/home/kyleo/qmk_utils/avr8-gnu-toolchain/bin/../lib/gcc/avr/8.3.0/avr5\libgcc.a(_divmodqi4.o)
 .debug_str     0x00007523       0x5e c:/msys64/home/kyleo/qmk_utils/avr8-gnu-toolchain/bin/../lib/gcc/avr/8.3.0/avr5\libgcc.a(_udivmodhi4.o)
 .debug_str     0x00007523       0x5e c:/msys64/home/kyleo/qmk_utils/avr8-gnu-toolchain/bin/../lib/gcc/avr/8.3.0/avr5\libgcc.a(_divmodhi4.o)
 .debug_str     0x00007523       0x5e c:/msys64/home/kyleo/qmk_utils/avr8-gnu-toolchain/bin/../lib/gcc/avr/8.3.0/avr5\libgcc.a(_exit.o)
 .debug_str     0x00007523       0x5e c:/msys64/home/kyleo/qmk_utils/avr8-gnu-toolchain/bin/../lib/gcc/avr/8.3.0/avr5\libgcc.a(_tablejump2.o)
 .debug_str     0x00007523       0x5e c:/msys64/home/kyleo/qmk_utils/avr8-gnu-toolchain/bin/../lib/gcc/avr/8.3.0/avr5\libgcc.a(_copy_data.o)
 .debug_str     0x00007523       0x5e c:/msys64/home/kyleo/qmk_utils/avr8-gnu-toolchain/bin/../lib/gcc/avr/8.3.0/avr5\libgcc.a(_clear_bss.o)
 .debug_str     0x00007523       0x5e c:/msys64/home/kyleo/qmk_utils/avr8-gnu-toolchain/bin/../lib/gcc/avr/8.3.0/avr5\libgcc.a(_udivmodqi4.o)
 .debug_str     0x00007523       0x5e c:/msys64/home/kyleo/qmk_utils/avr8-gnu-toolchain/bin/../lib/gcc/avr/8.3.0/avr5\libgcc.a(_prologue.o)
 .debug_str     0x00007523       0x5e c:/msys64/home/kyleo/qmk_utils/avr8-gnu-toolchain/bin/../lib/gcc/avr/8.3.0/avr5\libgcc.a(_epilogue.o)

.debug_loc      0x00000000     0xe5d5
 *(.debug_loc)
 .debug_loc     0x00000000      0x1e0 .build/obj_lily58_rev1_default/i2c.o
 .debug_loc     0x000001e0      0xba1 .build/obj_lily58_rev1_default/serial.o
 .debug_loc     0x00000d81      0xc47 .build/obj_lily58_rev1_default/ssd1306.o
 .debug_loc     0x000019c8      0x743 .build/obj_lily58_rev1_default/rev1/matrix.o
 .debug_loc     0x0000210b       0xa8 .build/obj_lily58_rev1_default/rev1/split_util.o
 .debug_loc     0x000021b3      0x101 .build/obj_lily58_rev1_default/rev1/split_scomm.o
 .debug_loc     0x000022b4       0xa4 .build/obj_lily58_rev1_default/./lib/layer_state_reader.o
 .debug_loc     0x00002358      0x196 .build/obj_lily58_rev1_default/./lib/keylogger.o
 .debug_loc     0x000024ee       0xe5 .build/obj_lily58_rev1_default/keyboards/lily58/lily58.o
 .debug_loc     0x000025d3      0x4c9 .build/obj_lily58_rev1_default/keyboards/lily58/keymaps/default/keymap.o
 .debug_loc     0x00002a9c     0x18b6 .build/obj_lily58_rev1_default/quantum/quantum.o
 .debug_loc     0x00004352      0x6ff .build/obj_lily58_rev1_default/quantum/keymap_common.o
 .debug_loc     0x00004a51      0x203 .build/obj_lily58_rev1_default/quantum/keycode_config.o
 .debug_loc     0x00004c54      0x1f7 .build/obj_lily58_rev1_default/quantum/color.o
 .debug_loc     0x00004e4b     0x2426 .build/obj_lily58_rev1_default/quantum/rgblight.o
 .debug_loc     0x00007271      0x2b0 .build/obj_lily58_rev1_default/quantum/process_keycode/process_rgb.o
 .debug_loc     0x00007521      0x249 .build/obj_lily58_rev1_default/ws2812.o
 .debug_loc     0x0000776a       0xc6 .build/obj_lily58_rev1_default/quantum/encoder.o
 .debug_loc     0x00007830      0x421 .build/obj_lily58_rev1_default/quantum/process_keycode/process_space_cadet.o
 .debug_loc     0x00007c51       0xb9 .build/obj_lily58_rev1_default/quantum/process_keycode/process_magic.o
 .debug_loc     0x00007d0a      0x143 .build/obj_lily58_rev1_default/quantum/process_keycode/process_grave_esc.o
 .debug_loc     0x00007e4d       0xf0 .build/obj_lily58_rev1_default/common/host.o
 .debug_loc     0x00007f3d      0x1ed .build/obj_lily58_rev1_default/common/keyboard.o
 .debug_loc     0x0000812a      0xa92 .build/obj_lily58_rev1_default/common/action.o
 .debug_loc     0x00008bbc      0x6e4 .build/obj_lily58_rev1_default/common/action_tapping.o
 .debug_loc     0x000092a0      0x92e .build/obj_lily58_rev1_default/common/action_layer.o
 .debug_loc     0x00009bce      0x2b6 .build/obj_lily58_rev1_default/common/action_util.o
 .debug_loc     0x00009e84      0x1f8 .build/obj_lily58_rev1_default/common/eeconfig.o
 .debug_loc     0x0000a07c      0x333 .build/obj_lily58_rev1_default/common/report.o
 .debug_loc     0x0000a3af       0xdf .build/obj_lily58_rev1_default/common/avr/suspend.o
 .debug_loc     0x0000a48e      0x2c0 .build/obj_lily58_rev1_default/common/avr/timer.o
 .debug_loc     0x0000a74e       0x4e .build/obj_lily58_rev1_default/common/avr/bootloader.o
 .debug_loc     0x0000a79c       0x30 .build/obj_lily58_rev1_default/common/magic.o
 .debug_loc     0x0000a7cc      0x5c4 .build/obj_lily58_rev1_default/lufa.o
 .debug_loc     0x0000ad90      0x28b .build/obj_lily58_rev1_default/usb_descriptor.o
 .debug_loc     0x0000b01b       0x55 .build/obj_lily58_rev1_default/outputselect.o
 .debug_loc     0x0000b070     0x2752 .build/obj_lily58_rev1_default/lib/lufa/LUFA/Drivers/USB/Core/AVR8/EndpointStream_AVR8.o
 .debug_loc     0x0000d7c2      0x4a0 .build/obj_lily58_rev1_default/lib/lufa/LUFA/Drivers/USB/Core/AVR8/Endpoint_AVR8.o
 .debug_loc     0x0000dc62       0xf9 .build/obj_lily58_rev1_default/lib/lufa/LUFA/Drivers/USB/Core/AVR8/USBController_AVR8.o
 .debug_loc     0x0000dd5b      0x492 .build/obj_lily58_rev1_default/lib/lufa/LUFA/Drivers/USB/Core/AVR8/USBInterrupt_AVR8.o
 .debug_loc     0x0000e1ed      0x386 .build/obj_lily58_rev1_default/lib/lufa/LUFA/Drivers/USB/Core/DeviceStandardReq.o
 .debug_loc     0x0000e573       0x62 .build/obj_lily58_rev1_default/lib/lufa/LUFA/Drivers/USB/Core/USBTask.o

.debug_macinfo
 *(.debug_macinfo)

.debug_weaknames
 *(.debug_weaknames)

.debug_funcnames
 *(.debug_funcnames)

.debug_typenames
 *(.debug_typenames)

.debug_varnames
 *(.debug_varnames)

.debug_pubtypes
 *(.debug_pubtypes)

.debug_ranges   0x00000000     0x1d08
 *(.debug_ranges)
 .debug_ranges  0x00000000       0x50 .build/obj_lily58_rev1_default/i2c.o
 .debug_ranges  0x00000050      0x270 .build/obj_lily58_rev1_default/serial.o
 .debug_ranges  0x000002c0      0x170 .build/obj_lily58_rev1_default/ssd1306.o
 .debug_ranges  0x00000430      0x198 .build/obj_lily58_rev1_default/rev1/matrix.o
 .debug_ranges  0x000005c8       0x48 .build/obj_lily58_rev1_default/rev1/split_util.o
 .debug_ranges  0x00000610       0x20 .build/obj_lily58_rev1_default/rev1/split_scomm.o
 .debug_ranges  0x00000630       0x10 .build/obj_lily58_rev1_default/./lib/layer_state_reader.o
 .debug_ranges  0x00000640       0x10 .build/obj_lily58_rev1_default/./lib/logo_reader.o
 .debug_ranges  0x00000650       0x20 .build/obj_lily58_rev1_default/./lib/keylogger.o
 .debug_ranges  0x00000670       0x10 .build/obj_lily58_rev1_default/keyboards/lily58/lily58.o
 .debug_ranges  0x00000680       0x10 .build/obj_lily58_rev1_default/keyboards/lily58/rev1/rev1.o
 .debug_ranges  0x00000690       0x48 .build/obj_lily58_rev1_default/keyboards/lily58/keymaps/default/keymap.o
 .debug_ranges  0x000006d8      0x1f8 .build/obj_lily58_rev1_default/quantum/quantum.o
 .debug_ranges  0x000008d0       0x30 .build/obj_lily58_rev1_default/quantum/keymap_common.o
 .debug_ranges  0x00000900       0x18 .build/obj_lily58_rev1_default/quantum/keycode_config.o
 .debug_ranges  0x00000918       0x10 .build/obj_lily58_rev1_default/quantum/color.o
 .debug_ranges  0x00000928      0x4d0 .build/obj_lily58_rev1_default/quantum/rgblight.o
 .debug_ranges  0x00000df8       0x40 .build/obj_lily58_rev1_default/quantum/process_keycode/process_rgb.o
 .debug_ranges  0x00000e38       0x38 .build/obj_lily58_rev1_default/ws2812.o
 .debug_ranges  0x00000e70       0x40 .build/obj_lily58_rev1_default/quantum/encoder.o
 .debug_ranges  0x00000eb0       0x18 .build/obj_lily58_rev1_default/quantum/process_keycode/process_space_cadet.o
 .debug_ranges  0x00000ec8       0x10 .build/obj_lily58_rev1_default/quantum/process_keycode/process_magic.o
 .debug_ranges  0x00000ed8       0x28 .build/obj_lily58_rev1_default/quantum/process_keycode/process_grave_esc.o
 .debug_ranges  0x00000f00       0x58 .build/obj_lily58_rev1_default/common/host.o
 .debug_ranges  0x00000f58       0xc0 .build/obj_lily58_rev1_default/common/keyboard.o
 .debug_ranges  0x00001018      0x110 .build/obj_lily58_rev1_default/common/action.o
 .debug_ranges  0x00001128       0xf0 .build/obj_lily58_rev1_default/common/action_tapping.o
 .debug_ranges  0x00001218      0x128 .build/obj_lily58_rev1_default/common/action_layer.o
 .debug_ranges  0x00001340      0x130 .build/obj_lily58_rev1_default/common/action_util.o
 .debug_ranges  0x00001470       0xd8 .build/obj_lily58_rev1_default/common/eeconfig.o
 .debug_ranges  0x00001548       0x60 .build/obj_lily58_rev1_default/common/report.o
 .debug_ranges  0x000015a8       0x90 .build/obj_lily58_rev1_default/common/avr/suspend.o
 .debug_ranges  0x00001638       0x40 .build/obj_lily58_rev1_default/common/avr/timer.o
 .debug_ranges  0x00001678       0x30 .build/obj_lily58_rev1_default/common/avr/bootloader.o
 .debug_ranges  0x000016a8       0x10 .build/obj_lily58_rev1_default/common/magic.o
 .debug_ranges  0x000016b8      0x140 .build/obj_lily58_rev1_default/lufa.o
 .debug_ranges  0x000017f8       0x28 .build/obj_lily58_rev1_default/usb_descriptor.o
 .debug_ranges  0x00001820       0x28 .build/obj_lily58_rev1_default/outputselect.o
 .debug_ranges  0x00001848       0x10 .build/obj_lily58_rev1_default/lib/lufa/LUFA/Drivers/USB/Core/AVR8/Device_AVR8.o
 .debug_ranges  0x00001858      0x1f8 .build/obj_lily58_rev1_default/lib/lufa/LUFA/Drivers/USB/Core/AVR8/EndpointStream_AVR8.o
 .debug_ranges  0x00001a50       0xd8 .build/obj_lily58_rev1_default/lib/lufa/LUFA/Drivers/USB/Core/AVR8/Endpoint_AVR8.o
 .debug_ranges  0x00001b28       0x50 .build/obj_lily58_rev1_default/lib/lufa/LUFA/Drivers/USB/Core/AVR8/USBController_AVR8.o
 .debug_ranges  0x00001b78       0x70 .build/obj_lily58_rev1_default/lib/lufa/LUFA/Drivers/USB/Core/AVR8/USBInterrupt_AVR8.o
 .debug_ranges  0x00001be8       0xf0 .build/obj_lily58_rev1_default/lib/lufa/LUFA/Drivers/USB/Core/DeviceStandardReq.o
 .debug_ranges  0x00001cd8       0x20 .build/obj_lily58_rev1_default/lib/lufa/LUFA/Drivers/USB/Core/Events.o
 .debug_ranges  0x00001cf8       0x10 .build/obj_lily58_rev1_default/lib/lufa/LUFA/Drivers/USB/Core/USBTask.o

.debug_macro
 *(.debug_macro)

.debug_addr
 *(.debug_addr)
OUTPUT(.build/lily58_rev1_default.elf elf32-avr)
LOAD linker stubs

Cross Reference Table

Symbol                                            File
CALLBACK_HIDParser_FilterHIDReportItem            .build/obj_lily58_rev1_default/lib/lufa/LUFA/Drivers/USB/Class/Common/HIDParser.o
CALLBACK_USB_GetDescriptor                        .build/obj_lily58_rev1_default/lufa.o
                                                  .build/obj_lily58_rev1_default/lib/lufa/LUFA/Drivers/USB/Core/DeviceStandardReq.o
CIE1931_CURVE                                     .build/obj_lily58_rev1_default/quantum/led_tables.o
                                                  .build/obj_lily58_rev1_default/quantum/color.o
ConfigurationDescriptor                           .build/obj_lily58_rev1_default/usb_descriptor.o
DeviceDescriptor                                  .build/obj_lily58_rev1_default/usb_descriptor.o
EVENT_USB_Device_ConfigurationChanged             .build/obj_lily58_rev1_default/lufa.o
                                                  .build/obj_lily58_rev1_default/lib/lufa/LUFA/Drivers/USB/Core/DeviceStandardReq.o
EVENT_USB_Device_Connect                          .build/obj_lily58_rev1_default/lufa.o
                                                  .build/obj_lily58_rev1_default/lib/lufa/LUFA/Drivers/USB/Core/AVR8/USBInterrupt_AVR8.o
EVENT_USB_Device_ControlRequest                   .build/obj_lily58_rev1_default/lufa.o
                                                  .build/obj_lily58_rev1_default/lib/lufa/LUFA/Drivers/USB/Core/DeviceStandardReq.o
EVENT_USB_Device_Disconnect                       .build/obj_lily58_rev1_default/lufa.o
                                                  .build/obj_lily58_rev1_default/lib/lufa/LUFA/Drivers/USB/Core/AVR8/USBInterrupt_AVR8.o
EVENT_USB_Device_Reset                            .build/obj_lily58_rev1_default/lufa.o
                                                  .build/obj_lily58_rev1_default/lib/lufa/LUFA/Drivers/USB/Core/AVR8/USBInterrupt_AVR8.o
EVENT_USB_Device_StartOfFrame                     .build/obj_lily58_rev1_default/lib/lufa/LUFA/Drivers/USB/Core/Events.o
                                                  .build/obj_lily58_rev1_default/lib/lufa/LUFA/Drivers/USB/Core/AVR8/USBInterrupt_AVR8.o
EVENT_USB_Device_Suspend                          .build/obj_lily58_rev1_default/lufa.o
                                                  .build/obj_lily58_rev1_default/lib/lufa/LUFA/Drivers/USB/Core/AVR8/USBInterrupt_AVR8.o
EVENT_USB_Device_WakeUp                           .build/obj_lily58_rev1_default/lufa.o
                                                  .build/obj_lily58_rev1_default/lib/lufa/LUFA/Drivers/USB/Core/AVR8/USBInterrupt_AVR8.o
Endpoint_ClearEndpoints                           .build/obj_lily58_rev1_default/lib/lufa/LUFA/Drivers/USB/Core/AVR8/Endpoint_AVR8.o
Endpoint_ClearStatusStage                         .build/obj_lily58_rev1_default/lib/lufa/LUFA/Drivers/USB/Core/AVR8/Endpoint_AVR8.o
                                                  .build/obj_lily58_rev1_default/lib/lufa/LUFA/Drivers/USB/Core/DeviceStandardReq.o
                                                  .build/obj_lily58_rev1_default/lufa.o
Endpoint_ConfigureEndpointTable                   .build/obj_lily58_rev1_default/lib/lufa/LUFA/Drivers/USB/Core/AVR8/Endpoint_AVR8.o
Endpoint_ConfigureEndpoint_Prv                    .build/obj_lily58_rev1_default/lib/lufa/LUFA/Drivers/USB/Core/AVR8/Endpoint_AVR8.o
                                                  .build/obj_lily58_rev1_default/lib/lufa/LUFA/Drivers/USB/Core/AVR8/USBInterrupt_AVR8.o
                                                  .build/obj_lily58_rev1_default/lib/lufa/LUFA/Drivers/USB/Core/AVR8/USBController_AVR8.o
                                                  .build/obj_lily58_rev1_default/lufa.o
Endpoint_Discard_Stream                           .build/obj_lily58_rev1_default/lib/lufa/LUFA/Drivers/USB/Core/AVR8/EndpointStream_AVR8.o
Endpoint_Null_Stream                              .build/obj_lily58_rev1_default/lib/lufa/LUFA/Drivers/USB/Core/AVR8/EndpointStream_AVR8.o
Endpoint_Read_Control_EStream_BE                  .build/obj_lily58_rev1_default/lib/lufa/LUFA/Drivers/USB/Core/AVR8/EndpointStream_AVR8.o
Endpoint_Read_Control_EStream_LE                  .build/obj_lily58_rev1_default/lib/lufa/LUFA/Drivers/USB/Core/AVR8/EndpointStream_AVR8.o
Endpoint_Read_Control_Stream_BE                   .build/obj_lily58_rev1_default/lib/lufa/LUFA/Drivers/USB/Core/AVR8/EndpointStream_AVR8.o
Endpoint_Read_Control_Stream_LE                   .build/obj_lily58_rev1_default/lib/lufa/LUFA/Drivers/USB/Core/AVR8/EndpointStream_AVR8.o
Endpoint_Read_EStream_BE                          .build/obj_lily58_rev1_default/lib/lufa/LUFA/Drivers/USB/Core/AVR8/EndpointStream_AVR8.o
Endpoint_Read_EStream_LE                          .build/obj_lily58_rev1_default/lib/lufa/LUFA/Drivers/USB/Core/AVR8/EndpointStream_AVR8.o
Endpoint_Read_Stream_BE                           .build/obj_lily58_rev1_default/lib/lufa/LUFA/Drivers/USB/Core/AVR8/EndpointStream_AVR8.o
Endpoint_Read_Stream_LE                           .build/obj_lily58_rev1_default/lib/lufa/LUFA/Drivers/USB/Core/AVR8/EndpointStream_AVR8.o
Endpoint_WaitUntilReady                           .build/obj_lily58_rev1_default/lib/lufa/LUFA/Drivers/USB/Core/AVR8/Endpoint_AVR8.o
                                                  .build/obj_lily58_rev1_default/lib/lufa/LUFA/Drivers/USB/Core/AVR8/EndpointStream_AVR8.o
Endpoint_Write_Control_EStream_BE                 .build/obj_lily58_rev1_default/lib/lufa/LUFA/Drivers/USB/Core/AVR8/EndpointStream_AVR8.o
Endpoint_Write_Control_EStream_LE                 .build/obj_lily58_rev1_default/lib/lufa/LUFA/Drivers/USB/Core/AVR8/EndpointStream_AVR8.o
Endpoint_Write_Control_PStream_BE                 .build/obj_lily58_rev1_default/lib/lufa/LUFA/Drivers/USB/Core/AVR8/EndpointStream_AVR8.o
Endpoint_Write_Control_PStream_LE                 .build/obj_lily58_rev1_default/lib/lufa/LUFA/Drivers/USB/Core/AVR8/EndpointStream_AVR8.o
                                                  .build/obj_lily58_rev1_default/lib/lufa/LUFA/Drivers/USB/Core/DeviceStandardReq.o
Endpoint_Write_Control_Stream_BE                  .build/obj_lily58_rev1_default/lib/lufa/LUFA/Drivers/USB/Core/AVR8/EndpointStream_AVR8.o
Endpoint_Write_Control_Stream_LE                  .build/obj_lily58_rev1_default/lib/lufa/LUFA/Drivers/USB/Core/AVR8/EndpointStream_AVR8.o
                                                  .build/obj_lily58_rev1_default/lib/lufa/LUFA/Drivers/USB/Core/DeviceStandardReq.o
                                                  .build/obj_lily58_rev1_default/lufa.o
Endpoint_Write_EStream_BE                         .build/obj_lily58_rev1_default/lib/lufa/LUFA/Drivers/USB/Core/AVR8/EndpointStream_AVR8.o
Endpoint_Write_EStream_LE                         .build/obj_lily58_rev1_default/lib/lufa/LUFA/Drivers/USB/Core/AVR8/EndpointStream_AVR8.o
Endpoint_Write_PStream_BE                         .build/obj_lily58_rev1_default/lib/lufa/LUFA/Drivers/USB/Core/AVR8/EndpointStream_AVR8.o
Endpoint_Write_PStream_LE                         .build/obj_lily58_rev1_default/lib/lufa/LUFA/Drivers/USB/Core/AVR8/EndpointStream_AVR8.o
Endpoint_Write_Stream_BE                          .build/obj_lily58_rev1_default/lib/lufa/LUFA/Drivers/USB/Core/AVR8/EndpointStream_AVR8.o
Endpoint_Write_Stream_LE                          .build/obj_lily58_rev1_default/lib/lufa/LUFA/Drivers/USB/Core/AVR8/EndpointStream_AVR8.o
                                                  .build/obj_lily58_rev1_default/lufa.o
KeyboardReport                                    .build/obj_lily58_rev1_default/usb_descriptor.o
LanguageString                                    .build/obj_lily58_rev1_default/usb_descriptor.o
ManufacturerString                                .build/obj_lily58_rev1_default/usb_descriptor.o
ProductString                                     .build/obj_lily58_rev1_default/usb_descriptor.o
RGBLED_BREATHING_INTERVALS                        .build/obj_lily58_rev1_default/quantum/rgblight.o
RGBLED_GRADIENT_RANGES                            .build/obj_lily58_rev1_default/quantum/rgblight.o
RGBLED_KNIGHT_INTERVALS                           .build/obj_lily58_rev1_default/quantum/rgblight.o
RGBLED_RAINBOW_MOOD_INTERVALS                     .build/obj_lily58_rev1_default/quantum/rgblight.o
RGBLED_RAINBOW_SWIRL_INTERVALS                    .build/obj_lily58_rev1_default/quantum/rgblight.o
RGBLED_RGBTEST_INTERVALS                          .build/obj_lily58_rev1_default/quantum/rgblight.o
RGBLED_SNAKE_INTERVALS                            .build/obj_lily58_rev1_default/quantum/rgblight.o
RGB_current_mode                                  .build/obj_lily58_rev1_default/keyboards/lily58/keymaps/default/keymap.o
SerialNumberString                                .build/obj_lily58_rev1_default/usb_descriptor.o
SharedReport                                      .build/obj_lily58_rev1_default/usb_descriptor.o
USB_ControlRequest                                .build/obj_lily58_rev1_default/lib/lufa/LUFA/Drivers/USB/Core/USBTask.o
                                                  .build/obj_lily58_rev1_default/lib/lufa/LUFA/Drivers/USB/Core/DeviceStandardReq.o
                                                  .build/obj_lily58_rev1_default/lib/lufa/LUFA/Drivers/USB/Core/AVR8/Endpoint_AVR8.o
                                                  .build/obj_lily58_rev1_default/lib/lufa/LUFA/Drivers/USB/Core/AVR8/EndpointStream_AVR8.o
                                                  .build/obj_lily58_rev1_default/lufa.o
USB_DeviceState                                   .build/obj_lily58_rev1_default/lib/lufa/LUFA/Drivers/USB/Core/USBTask.o
                                                  .build/obj_lily58_rev1_default/lib/lufa/LUFA/Drivers/USB/Core/DeviceStandardReq.o
                                                  .build/obj_lily58_rev1_default/lib/lufa/LUFA/Drivers/USB/Core/AVR8/USBInterrupt_AVR8.o
                                                  .build/obj_lily58_rev1_default/lib/lufa/LUFA/Drivers/USB/Core/AVR8/USBController_AVR8.o
                                                  .build/obj_lily58_rev1_default/lib/lufa/LUFA/Drivers/USB/Core/AVR8/Endpoint_AVR8.o
                                                  .build/obj_lily58_rev1_default/lib/lufa/LUFA/Drivers/USB/Core/AVR8/EndpointStream_AVR8.o
                                                  .build/obj_lily58_rev1_default/outputselect.o
                                                  .build/obj_lily58_rev1_default/lufa.o
                                                  .build/obj_lily58_rev1_default/common/avr/suspend.o
USB_Device_ConfigurationNumber                    .build/obj_lily58_rev1_default/lib/lufa/LUFA/Drivers/USB/Core/DeviceStandardReq.o
                                                  .build/obj_lily58_rev1_default/lib/lufa/LUFA/Drivers/USB/Core/AVR8/USBInterrupt_AVR8.o
                                                  .build/obj_lily58_rev1_default/lib/lufa/LUFA/Drivers/USB/Core/AVR8/USBController_AVR8.o
USB_Device_CurrentlySelfPowered                   .build/obj_lily58_rev1_default/lib/lufa/LUFA/Drivers/USB/Core/DeviceStandardReq.o
                                                  .build/obj_lily58_rev1_default/lib/lufa/LUFA/Drivers/USB/Core/AVR8/USBController_AVR8.o
USB_Device_ProcessControlRequest                  .build/obj_lily58_rev1_default/lib/lufa/LUFA/Drivers/USB/Core/DeviceStandardReq.o
                                                  .build/obj_lily58_rev1_default/lib/lufa/LUFA/Drivers/USB/Core/USBTask.o
                                                  .build/obj_lily58_rev1_default/lib/lufa/LUFA/Drivers/USB/Core/AVR8/USBInterrupt_AVR8.o
USB_Device_RemoteWakeupEnabled                    .build/obj_lily58_rev1_default/lib/lufa/LUFA/Drivers/USB/Core/DeviceStandardReq.o
                                                  .build/obj_lily58_rev1_default/lib/lufa/LUFA/Drivers/USB/Core/AVR8/USBController_AVR8.o
                                                  .build/obj_lily58_rev1_default/lufa.o
USB_Device_SendRemoteWakeup                       .build/obj_lily58_rev1_default/lib/lufa/LUFA/Drivers/USB/Core/AVR8/Device_AVR8.o
                                                  .build/obj_lily58_rev1_default/lufa.o
USB_Disable                                       .build/obj_lily58_rev1_default/lib/lufa/LUFA/Drivers/USB/Core/AVR8/USBController_AVR8.o
                                                  .build/obj_lily58_rev1_default/lufa.o
USB_Event_Stub                                    .build/obj_lily58_rev1_default/lib/lufa/LUFA/Drivers/USB/Core/Events.o
USB_Event_Stub_2                                  .build/obj_lily58_rev1_default/lib/lufa/LUFA/Drivers/USB/Core/Events.o
USB_Event_Stub_3                                  .build/obj_lily58_rev1_default/lib/lufa/LUFA/Drivers/USB/Core/Events.o
USB_GetHIDReportItemInfo                          .build/obj_lily58_rev1_default/lib/lufa/LUFA/Drivers/USB/Class/Common/HIDParser.o
USB_GetHIDReportSize                              .build/obj_lily58_rev1_default/lib/lufa/LUFA/Drivers/USB/Class/Common/HIDParser.o
USB_GetNextDescriptorComp                         .build/obj_lily58_rev1_default/lib/lufa/LUFA/Drivers/USB/Core/ConfigDescriptors.o
USB_GetNextDescriptorOfType                       .build/obj_lily58_rev1_default/lib/lufa/LUFA/Drivers/USB/Core/ConfigDescriptors.o
USB_GetNextDescriptorOfTypeAfter                  .build/obj_lily58_rev1_default/lib/lufa/LUFA/Drivers/USB/Core/ConfigDescriptors.o
USB_GetNextDescriptorOfTypeBefore                 .build/obj_lily58_rev1_default/lib/lufa/LUFA/Drivers/USB/Core/ConfigDescriptors.o
USB_INT_ClearAllInterrupts                        .build/obj_lily58_rev1_default/lib/lufa/LUFA/Drivers/USB/Core/AVR8/USBInterrupt_AVR8.o
                                                  .build/obj_lily58_rev1_default/lib/lufa/LUFA/Drivers/USB/Core/AVR8/USBController_AVR8.o
USB_INT_DisableAllInterrupts                      .build/obj_lily58_rev1_default/lib/lufa/LUFA/Drivers/USB/Core/AVR8/USBInterrupt_AVR8.o
                                                  .build/obj_lily58_rev1_default/lib/lufa/LUFA/Drivers/USB/Core/AVR8/USBController_AVR8.o
USB_Init                                          .build/obj_lily58_rev1_default/lib/lufa/LUFA/Drivers/USB/Core/AVR8/USBController_AVR8.o
                                                  .build/obj_lily58_rev1_default/lufa.o
USB_IsInitialized                                 .build/obj_lily58_rev1_default/lib/lufa/LUFA/Drivers/USB/Core/USBTask.o
                                                  .build/obj_lily58_rev1_default/lib/lufa/LUFA/Drivers/USB/Core/AVR8/USBController_AVR8.o
                                                  .build/obj_lily58_rev1_default/lufa.o
USB_ProcessHIDReport                              .build/obj_lily58_rev1_default/lib/lufa/LUFA/Drivers/USB/Class/Common/HIDParser.o
USB_ResetInterface                                .build/obj_lily58_rev1_default/lib/lufa/LUFA/Drivers/USB/Core/AVR8/USBController_AVR8.o
USB_SetHIDReportItemInfo                          .build/obj_lily58_rev1_default/lib/lufa/LUFA/Drivers/USB/Class/Common/HIDParser.o
USB_USBTask                                       .build/obj_lily58_rev1_default/lib/lufa/LUFA/Drivers/USB/Core/USBTask.o
                                                  .build/obj_lily58_rev1_default/lufa.o
__bad_interrupt                                   c:/msys64/home/kyleo/qmk_utils/avr8-gnu-toolchain/bin/../lib/gcc/avr/8.3.0/../../../../avr/lib/avr5/crtatmega32u4.o
__bss_end                                         c:/msys64/home/kyleo/qmk_utils/avr8-gnu-toolchain/bin/../lib/gcc/avr/8.3.0/avr5\libgcc.a(_clear_bss.o)
__bss_start                                       c:/msys64/home/kyleo/qmk_utils/avr8-gnu-toolchain/bin/../lib/gcc/avr/8.3.0/avr5\libgcc.a(_clear_bss.o)
__data_end                                        c:/msys64/home/kyleo/qmk_utils/avr8-gnu-toolchain/bin/../lib/gcc/avr/8.3.0/avr5\libgcc.a(_copy_data.o)
__data_load_start                                 c:/msys64/home/kyleo/qmk_utils/avr8-gnu-toolchain/bin/../lib/gcc/avr/8.3.0/avr5\libgcc.a(_copy_data.o)
__data_start                                      c:/msys64/home/kyleo/qmk_utils/avr8-gnu-toolchain/bin/../lib/gcc/avr/8.3.0/avr5\libgcc.a(_copy_data.o)
__divmodhi4                                       c:/msys64/home/kyleo/qmk_utils/avr8-gnu-toolchain/bin/../lib/gcc/avr/8.3.0/avr5\libgcc.a(_divmodhi4.o)
                                                  .build/obj_lily58_rev1_default/quantum/rgblight.o
                                                  .build/obj_lily58_rev1_default/ssd1306.o
__divmodqi4                                       c:/msys64/home/kyleo/qmk_utils/avr8-gnu-toolchain/bin/../lib/gcc/avr/8.3.0/avr5\libgcc.a(_divmodqi4.o)
                                                  .build/obj_lily58_rev1_default/quantum/rgblight.o
__do_clear_bss                                    c:/msys64/home/kyleo/qmk_utils/avr8-gnu-toolchain/bin/../lib/gcc/avr/8.3.0/avr5\libgcc.a(_clear_bss.o)
                                                  .build/obj_lily58_rev1_default/lib/lufa/LUFA/Drivers/USB/Core/USBTask.o
                                                  .build/obj_lily58_rev1_default/lib/lufa/LUFA/Drivers/USB/Core/DeviceStandardReq.o
                                                  .build/obj_lily58_rev1_default/outputselect.o
                                                  .build/obj_lily58_rev1_default/lufa.o
                                                  .build/obj_lily58_rev1_default/common/magic.o
                                                  .build/obj_lily58_rev1_default/common/avr/timer.o
                                                  .build/obj_lily58_rev1_default/common/avr/suspend.o
                                                  .build/obj_lily58_rev1_default/common/debug.o
                                                  .build/obj_lily58_rev1_default/common/action_util.o
                                                  .build/obj_lily58_rev1_default/common/action_layer.o
                                                  .build/obj_lily58_rev1_default/common/action_tapping.o
                                                  .build/obj_lily58_rev1_default/common/action.o
                                                  .build/obj_lily58_rev1_default/common/keyboard.o
                                                  .build/obj_lily58_rev1_default/common/host.o
                                                  .build/obj_lily58_rev1_default/quantum/process_keycode/process_grave_esc.o
                                                  .build/obj_lily58_rev1_default/quantum/process_keycode/process_space_cadet.o
                                                  .build/obj_lily58_rev1_default/quantum/encoder.o
                                                  .build/obj_lily58_rev1_default/quantum/rgblight.o
                                                  .build/obj_lily58_rev1_default/quantum/debounce/sym_g.o
                                                  .build/obj_lily58_rev1_default/keyboards/lily58/keymaps/default/keymap.o
                                                  .build/obj_lily58_rev1_default/keyboards/lily58/lily58.o
                                                  .build/obj_lily58_rev1_default/./lib/keylogger.o
                                                  .build/obj_lily58_rev1_default/./lib/layer_state_reader.o
                                                  .build/obj_lily58_rev1_default/./lib/rgb_state_reader.o
                                                  .build/obj_lily58_rev1_default/rev1/split_scomm.o
                                                  .build/obj_lily58_rev1_default/rev1/split_util.o
                                                  .build/obj_lily58_rev1_default/rev1/matrix.o
                                                  .build/obj_lily58_rev1_default/ssd1306.o
                                                  .build/obj_lily58_rev1_default/serial.o
                                                  .build/obj_lily58_rev1_default/i2c.o
__do_copy_data                                    c:/msys64/home/kyleo/qmk_utils/avr8-gnu-toolchain/bin/../lib/gcc/avr/8.3.0/avr5\libgcc.a(_copy_data.o)
                                                  .build/obj_lily58_rev1_default/lufa.o
                                                  .build/obj_lily58_rev1_default/common/action_util.o
                                                  .build/obj_lily58_rev1_default/common/action.o
                                                  .build/obj_lily58_rev1_default/quantum/encoder.o
                                                  .build/obj_lily58_rev1_default/quantum/rgblight.o
                                                  .build/obj_lily58_rev1_default/quantum/keymap_common.o
                                                  .build/obj_lily58_rev1_default/./lib/keylogger.o
                                                  .build/obj_lily58_rev1_default/./lib/logo_reader.o
                                                  .build/obj_lily58_rev1_default/./lib/layer_state_reader.o
                                                  .build/obj_lily58_rev1_default/./lib/rgb_state_reader.o
                                                  .build/obj_lily58_rev1_default/rev1/split_scomm.o
                                                  .build/obj_lily58_rev1_default/rev1/split_util.o
                                                  .build/obj_lily58_rev1_default/rev1/matrix.o
                                                  .build/obj_lily58_rev1_default/ssd1306.o
__epilogue_restores__                             c:/msys64/home/kyleo/qmk_utils/avr8-gnu-toolchain/bin/../lib/gcc/avr/8.3.0/avr5\libgcc.a(_epilogue.o)
                                                  c:/msys64/home/kyleo/qmk_utils/avr8-gnu-toolchain/bin/../lib/gcc/avr/8.3.0/../../../../avr/lib/avr5\libc.a(vfprintf_std.o)
                                                  c:/msys64/home/kyleo/qmk_utils/avr8-gnu-toolchain/bin/../lib/gcc/avr/8.3.0/../../../../avr/lib/avr5\libc.a(snprintf.o)
__heap_end                                        c:/msys64/home/kyleo/qmk_utils/avr8-gnu-toolchain/bin/../lib/gcc/avr/8.3.0/../../../../avr/lib/avr5/crtatmega32u4.o
__init                                            c:/msys64/home/kyleo/qmk_utils/avr8-gnu-toolchain/bin/../lib/gcc/avr/8.3.0/../../../../avr/lib/avr5/crtatmega32u4.o
__prologue_saves__                                c:/msys64/home/kyleo/qmk_utils/avr8-gnu-toolchain/bin/../lib/gcc/avr/8.3.0/avr5\libgcc.a(_prologue.o)
                                                  c:/msys64/home/kyleo/qmk_utils/avr8-gnu-toolchain/bin/../lib/gcc/avr/8.3.0/../../../../avr/lib/avr5\libc.a(vfprintf_std.o)
                                                  c:/msys64/home/kyleo/qmk_utils/avr8-gnu-toolchain/bin/../lib/gcc/avr/8.3.0/../../../../avr/lib/avr5\libc.a(snprintf.o)
__stack                                           c:/msys64/home/kyleo/qmk_utils/avr8-gnu-toolchain/bin/../lib/gcc/avr/8.3.0/../../../../avr/lib/avr5/crtatmega32u4.o
__tablejump2__                                    c:/msys64/home/kyleo/qmk_utils/avr8-gnu-toolchain/bin/../lib/gcc/avr/8.3.0/avr5\libgcc.a(_tablejump2.o)
                                                  .build/obj_lily58_rev1_default/lib/lufa/LUFA/Drivers/USB/Core/DeviceStandardReq.o
                                                  .build/obj_lily58_rev1_default/common/action.o
                                                  .build/obj_lily58_rev1_default/quantum/process_keycode/process_rgb.o
__udivmodhi4                                      c:/msys64/home/kyleo/qmk_utils/avr8-gnu-toolchain/bin/../lib/gcc/avr/8.3.0/avr5\libgcc.a(_udivmodhi4.o)
                                                  c:/msys64/home/kyleo/qmk_utils/avr8-gnu-toolchain/bin/../lib/gcc/avr/8.3.0/avr5\libgcc.a(_divmodhi4.o)
                                                  .build/obj_lily58_rev1_default/quantum/rgblight.o
                                                  .build/obj_lily58_rev1_default/quantum/color.o
__udivmodqi4                                      c:/msys64/home/kyleo/qmk_utils/avr8-gnu-toolchain/bin/../lib/gcc/avr/8.3.0/avr5\libgcc.a(_udivmodqi4.o)
                                                  c:/msys64/home/kyleo/qmk_utils/avr8-gnu-toolchain/bin/../lib/gcc/avr/8.3.0/avr5\libgcc.a(_divmodqi4.o)
__ultoa_invert                                    c:/msys64/home/kyleo/qmk_utils/avr8-gnu-toolchain/bin/../lib/gcc/avr/8.3.0/../../../../avr/lib/avr5\libc.a(ultoa_invert.o)
                                                  c:/msys64/home/kyleo/qmk_utils/avr8-gnu-toolchain/bin/../lib/gcc/avr/8.3.0/../../../../avr/lib/avr5\libc.a(vfprintf_std.o)
__vector_1                                        c:/msys64/home/kyleo/qmk_utils/avr8-gnu-toolchain/bin/../lib/gcc/avr/8.3.0/../../../../avr/lib/avr5/crtatmega32u4.o
__vector_10                                       .build/obj_lily58_rev1_default/lib/lufa/LUFA/Drivers/USB/Core/AVR8/USBInterrupt_AVR8.o
                                                  c:/msys64/home/kyleo/qmk_utils/avr8-gnu-toolchain/bin/../lib/gcc/avr/8.3.0/../../../../avr/lib/avr5/crtatmega32u4.o
__vector_11                                       .build/obj_lily58_rev1_default/lib/lufa/LUFA/Drivers/USB/Core/AVR8/USBInterrupt_AVR8.o
                                                  c:/msys64/home/kyleo/qmk_utils/avr8-gnu-toolchain/bin/../lib/gcc/avr/8.3.0/../../../../avr/lib/avr5/crtatmega32u4.o
__vector_12                                       .build/obj_lily58_rev1_default/common/avr/suspend.o
                                                  c:/msys64/home/kyleo/qmk_utils/avr8-gnu-toolchain/bin/../lib/gcc/avr/8.3.0/../../../../avr/lib/avr5/crtatmega32u4.o
__vector_13                                       c:/msys64/home/kyleo/qmk_utils/avr8-gnu-toolchain/bin/../lib/gcc/avr/8.3.0/../../../../avr/lib/avr5/crtatmega32u4.o
__vector_14                                       c:/msys64/home/kyleo/qmk_utils/avr8-gnu-toolchain/bin/../lib/gcc/avr/8.3.0/../../../../avr/lib/avr5/crtatmega32u4.o
__vector_15                                       c:/msys64/home/kyleo/qmk_utils/avr8-gnu-toolchain/bin/../lib/gcc/avr/8.3.0/../../../../avr/lib/avr5/crtatmega32u4.o
__vector_16                                       c:/msys64/home/kyleo/qmk_utils/avr8-gnu-toolchain/bin/../lib/gcc/avr/8.3.0/../../../../avr/lib/avr5/crtatmega32u4.o
__vector_17                                       c:/msys64/home/kyleo/qmk_utils/avr8-gnu-toolchain/bin/../lib/gcc/avr/8.3.0/../../../../avr/lib/avr5/crtatmega32u4.o
__vector_18                                       c:/msys64/home/kyleo/qmk_utils/avr8-gnu-toolchain/bin/../lib/gcc/avr/8.3.0/../../../../avr/lib/avr5/crtatmega32u4.o
__vector_19                                       c:/msys64/home/kyleo/qmk_utils/avr8-gnu-toolchain/bin/../lib/gcc/avr/8.3.0/../../../../avr/lib/avr5/crtatmega32u4.o
__vector_2                                        c:/msys64/home/kyleo/qmk_utils/avr8-gnu-toolchain/bin/../lib/gcc/avr/8.3.0/../../../../avr/lib/avr5/crtatmega32u4.o
__vector_20                                       c:/msys64/home/kyleo/qmk_utils/avr8-gnu-toolchain/bin/../lib/gcc/avr/8.3.0/../../../../avr/lib/avr5/crtatmega32u4.o
__vector_21                                       .build/obj_lily58_rev1_default/common/avr/timer.o
                                                  c:/msys64/home/kyleo/qmk_utils/avr8-gnu-toolchain/bin/../lib/gcc/avr/8.3.0/../../../../avr/lib/avr5/crtatmega32u4.o
__vector_22                                       c:/msys64/home/kyleo/qmk_utils/avr8-gnu-toolchain/bin/../lib/gcc/avr/8.3.0/../../../../avr/lib/avr5/crtatmega32u4.o
__vector_23                                       c:/msys64/home/kyleo/qmk_utils/avr8-gnu-toolchain/bin/../lib/gcc/avr/8.3.0/../../../../avr/lib/avr5/crtatmega32u4.o
__vector_24                                       c:/msys64/home/kyleo/qmk_utils/avr8-gnu-toolchain/bin/../lib/gcc/avr/8.3.0/../../../../avr/lib/avr5/crtatmega32u4.o
__vector_25                                       c:/msys64/home/kyleo/qmk_utils/avr8-gnu-toolchain/bin/../lib/gcc/avr/8.3.0/../../../../avr/lib/avr5/crtatmega32u4.o
__vector_26                                       c:/msys64/home/kyleo/qmk_utils/avr8-gnu-toolchain/bin/../lib/gcc/avr/8.3.0/../../../../avr/lib/avr5/crtatmega32u4.o
__vector_27                                       c:/msys64/home/kyleo/qmk_utils/avr8-gnu-toolchain/bin/../lib/gcc/avr/8.3.0/../../../../avr/lib/avr5/crtatmega32u4.o
__vector_28                                       c:/msys64/home/kyleo/qmk_utils/avr8-gnu-toolchain/bin/../lib/gcc/avr/8.3.0/../../../../avr/lib/avr5/crtatmega32u4.o
__vector_29                                       c:/msys64/home/kyleo/qmk_utils/avr8-gnu-toolchain/bin/../lib/gcc/avr/8.3.0/../../../../avr/lib/avr5/crtatmega32u4.o
__vector_3                                        .build/obj_lily58_rev1_default/serial.o
                                                  c:/msys64/home/kyleo/qmk_utils/avr8-gnu-toolchain/bin/../lib/gcc/avr/8.3.0/../../../../avr/lib/avr5/crtatmega32u4.o
__vector_30                                       c:/msys64/home/kyleo/qmk_utils/avr8-gnu-toolchain/bin/../lib/gcc/avr/8.3.0/../../../../avr/lib/avr5/crtatmega32u4.o
__vector_31                                       c:/msys64/home/kyleo/qmk_utils/avr8-gnu-toolchain/bin/../lib/gcc/avr/8.3.0/../../../../avr/lib/avr5/crtatmega32u4.o
__vector_32                                       c:/msys64/home/kyleo/qmk_utils/avr8-gnu-toolchain/bin/../lib/gcc/avr/8.3.0/../../../../avr/lib/avr5/crtatmega32u4.o
__vector_33                                       c:/msys64/home/kyleo/qmk_utils/avr8-gnu-toolchain/bin/../lib/gcc/avr/8.3.0/../../../../avr/lib/avr5/crtatmega32u4.o
__vector_34                                       c:/msys64/home/kyleo/qmk_utils/avr8-gnu-toolchain/bin/../lib/gcc/avr/8.3.0/../../../../avr/lib/avr5/crtatmega32u4.o
__vector_35                                       c:/msys64/home/kyleo/qmk_utils/avr8-gnu-toolchain/bin/../lib/gcc/avr/8.3.0/../../../../avr/lib/avr5/crtatmega32u4.o
__vector_36                                       .build/obj_lily58_rev1_default/i2c.o
                                                  c:/msys64/home/kyleo/qmk_utils/avr8-gnu-toolchain/bin/../lib/gcc/avr/8.3.0/../../../../avr/lib/avr5/crtatmega32u4.o
__vector_37                                       c:/msys64/home/kyleo/qmk_utils/avr8-gnu-toolchain/bin/../lib/gcc/avr/8.3.0/../../../../avr/lib/avr5/crtatmega32u4.o
__vector_38                                       c:/msys64/home/kyleo/qmk_utils/avr8-gnu-toolchain/bin/../lib/gcc/avr/8.3.0/../../../../avr/lib/avr5/crtatmega32u4.o
__vector_39                                       c:/msys64/home/kyleo/qmk_utils/avr8-gnu-toolchain/bin/../lib/gcc/avr/8.3.0/../../../../avr/lib/avr5/crtatmega32u4.o
__vector_4                                        c:/msys64/home/kyleo/qmk_utils/avr8-gnu-toolchain/bin/../lib/gcc/avr/8.3.0/../../../../avr/lib/avr5/crtatmega32u4.o
__vector_40                                       c:/msys64/home/kyleo/qmk_utils/avr8-gnu-toolchain/bin/../lib/gcc/avr/8.3.0/../../../../avr/lib/avr5/crtatmega32u4.o
__vector_41                                       c:/msys64/home/kyleo/qmk_utils/avr8-gnu-toolchain/bin/../lib/gcc/avr/8.3.0/../../../../avr/lib/avr5/crtatmega32u4.o
__vector_42                                       c:/msys64/home/kyleo/qmk_utils/avr8-gnu-toolchain/bin/../lib/gcc/avr/8.3.0/../../../../avr/lib/avr5/crtatmega32u4.o
__vector_5                                        c:/msys64/home/kyleo/qmk_utils/avr8-gnu-toolchain/bin/../lib/gcc/avr/8.3.0/../../../../avr/lib/avr5/crtatmega32u4.o
__vector_6                                        c:/msys64/home/kyleo/qmk_utils/avr8-gnu-toolchain/bin/../lib/gcc/avr/8.3.0/../../../../avr/lib/avr5/crtatmega32u4.o
__vector_7                                        c:/msys64/home/kyleo/qmk_utils/avr8-gnu-toolchain/bin/../lib/gcc/avr/8.3.0/../../../../avr/lib/avr5/crtatmega32u4.o
__vector_8                                        c:/msys64/home/kyleo/qmk_utils/avr8-gnu-toolchain/bin/../lib/gcc/avr/8.3.0/../../../../avr/lib/avr5/crtatmega32u4.o
__vector_9                                        c:/msys64/home/kyleo/qmk_utils/avr8-gnu-toolchain/bin/../lib/gcc/avr/8.3.0/../../../../avr/lib/avr5/crtatmega32u4.o
__vector_default                                  c:/msys64/home/kyleo/qmk_utils/avr8-gnu-toolchain/bin/../lib/gcc/avr/8.3.0/../../../../avr/lib/avr5/crtatmega32u4.o
__vectors                                         c:/msys64/home/kyleo/qmk_utils/avr8-gnu-toolchain/bin/../lib/gcc/avr/8.3.0/../../../../avr/lib/avr5/crtatmega32u4.o
__xprintf                                         .build/obj_lily58_rev1_default/common/avr/xprintf.o
_div                                              c:/msys64/home/kyleo/qmk_utils/avr8-gnu-toolchain/bin/../lib/gcc/avr/8.3.0/avr5\libgcc.a(_divmodhi4.o)
_exit                                             c:/msys64/home/kyleo/qmk_utils/avr8-gnu-toolchain/bin/../lib/gcc/avr/8.3.0/avr5\libgcc.a(_exit.o)
_matrix_scan                                      .build/obj_lily58_rev1_default/rev1/matrix.o
action_exec                                       .build/obj_lily58_rev1_default/common/action.o
                                                  .build/obj_lily58_rev1_default/common/keyboard.o
action_for_key                                    .build/obj_lily58_rev1_default/quantum/keymap_common.o
                                                  .build/obj_lily58_rev1_default/common/action_layer.o
action_function                                   .build/obj_lily58_rev1_default/quantum/keymap_common.o
action_get_macro                                  .build/obj_lily58_rev1_default/quantum/keymap_common.o
action_tapping_process                            .build/obj_lily58_rev1_default/common/action_tapping.o
                                                  .build/obj_lily58_rev1_default/common/action.o
add_key                                           .build/obj_lily58_rev1_default/common/action_util.o
                                                  .build/obj_lily58_rev1_default/common/action.o
                                                  .build/obj_lily58_rev1_default/quantum/process_keycode/process_grave_esc.o
add_key_byte                                      .build/obj_lily58_rev1_default/common/report.o
add_key_to_report                                 .build/obj_lily58_rev1_default/common/report.o
                                                  .build/obj_lily58_rev1_default/common/action_util.o
add_macro_mods                                    .build/obj_lily58_rev1_default/common/action_util.o
add_mods                                          .build/obj_lily58_rev1_default/common/action_util.o
                                                  .build/obj_lily58_rev1_default/common/action.o
add_weak_mods                                     .build/obj_lily58_rev1_default/common/action_util.o
                                                  .build/obj_lily58_rev1_default/common/action.o
animation_status                                  .build/obj_lily58_rev1_default/quantum/rgblight.o
api_send_unicode                                  .build/obj_lily58_rev1_default/quantum/quantum.o
ascii_to_altgr_lut                                .build/obj_lily58_rev1_default/quantum/quantum.o
ascii_to_keycode_lut                              .build/obj_lily58_rev1_default/quantum/quantum.o
ascii_to_shift_lut                                .build/obj_lily58_rev1_default/quantum/quantum.o
auto_detect_output                                .build/obj_lily58_rev1_default/outputselect.o
biton                                             .build/obj_lily58_rev1_default/common/util.o
biton16                                           .build/obj_lily58_rev1_default/common/util.o
biton32                                           .build/obj_lily58_rev1_default/common/util.o
bitpop                                            .build/obj_lily58_rev1_default/common/util.o
                                                  .build/obj_lily58_rev1_default/common/action_util.o
bitpop16                                          .build/obj_lily58_rev1_default/common/util.o
                                                  .build/obj_lily58_rev1_default/rev1/matrix.o
bitpop32                                          .build/obj_lily58_rev1_default/common/util.o
bitrev                                            .build/obj_lily58_rev1_default/common/util.o
bitrev16                                          .build/obj_lily58_rev1_default/common/util.o
bitrev32                                          .build/obj_lily58_rev1_default/common/util.o
bootloader_jump                                   .build/obj_lily58_rev1_default/common/avr/bootloader.o
                                                  .build/obj_lily58_rev1_default/quantum/quantum.o
bootloader_jump_after_watchdog_reset              .build/obj_lily58_rev1_default/common/avr/bootloader.o
clear_keyboard                                    .build/obj_lily58_rev1_default/common/action.o
                                                  .build/obj_lily58_rev1_default/lufa.o
                                                  .build/obj_lily58_rev1_default/common/avr/suspend.o
                                                  .build/obj_lily58_rev1_default/common/action_tapping.o
                                                  .build/obj_lily58_rev1_default/quantum/process_keycode/process_magic.o
                                                  .build/obj_lily58_rev1_default/quantum/quantum.o
clear_keyboard_but_mods                           .build/obj_lily58_rev1_default/common/action.o
clear_keyboard_but_mods_and_keys                  .build/obj_lily58_rev1_default/common/action.o
                                                  .build/obj_lily58_rev1_default/common/action_layer.o
clear_keys                                        .build/obj_lily58_rev1_default/common/action_util.o
                                                  .build/obj_lily58_rev1_default/common/action.o
clear_keys_from_report                            .build/obj_lily58_rev1_default/common/report.o
                                                  .build/obj_lily58_rev1_default/common/action_util.o
clear_macro_mods                                  .build/obj_lily58_rev1_default/common/action_util.o
                                                  .build/obj_lily58_rev1_default/common/action.o
clear_mods                                        .build/obj_lily58_rev1_default/common/action_util.o
                                                  .build/obj_lily58_rev1_default/common/action.o
clear_oneshot_layer_state                         .build/obj_lily58_rev1_default/common/action_util.o
                                                  .build/obj_lily58_rev1_default/common/action.o
clear_oneshot_locked_mods                         .build/obj_lily58_rev1_default/common/action_util.o
clear_oneshot_mods                                .build/obj_lily58_rev1_default/common/action_util.o
                                                  .build/obj_lily58_rev1_default/common/action.o
clear_weak_mods                                   .build/obj_lily58_rev1_default/common/action_util.o
                                                  .build/obj_lily58_rev1_default/common/action.o
code_to_name                                      .build/obj_lily58_rev1_default/./lib/keylogger.o
debounce                                          .build/obj_lily58_rev1_default/quantum/debounce/sym_g.o
debounce_active                                   .build/obj_lily58_rev1_default/quantum/debounce/sym_g.o
debounce_init                                     .build/obj_lily58_rev1_default/quantum/debounce/sym_g.o
debug_action                                      .build/obj_lily58_rev1_default/common/action.o
debug_config                                      .build/obj_lily58_rev1_default/common/debug.o
                                                  .build/obj_lily58_rev1_default/common/magic.o
                                                  .build/obj_lily58_rev1_default/common/keyboard.o
debug_event                                       .build/obj_lily58_rev1_default/common/action.o
                                                  .build/obj_lily58_rev1_default/common/action_tapping.o
debug_record                                      .build/obj_lily58_rev1_default/common/action.o
                                                  .build/obj_lily58_rev1_default/common/action_tapping.o
default_layer_and                                 .build/obj_lily58_rev1_default/common/action_layer.o
                                                  .build/obj_lily58_rev1_default/common/action.o
default_layer_debug                               .build/obj_lily58_rev1_default/common/action_layer.o
                                                  .build/obj_lily58_rev1_default/common/action.o
default_layer_or                                  .build/obj_lily58_rev1_default/common/action_layer.o
                                                  .build/obj_lily58_rev1_default/common/action.o
default_layer_set                                 .build/obj_lily58_rev1_default/common/action_layer.o
                                                  .build/obj_lily58_rev1_default/common/magic.o
                                                  .build/obj_lily58_rev1_default/common/action.o
                                                  .build/obj_lily58_rev1_default/quantum/quantum.o
default_layer_state                               .build/obj_lily58_rev1_default/common/action_layer.o
                                                  .build/obj_lily58_rev1_default/common/eeconfig.o
default_layer_state_set_kb                        .build/obj_lily58_rev1_default/common/action_layer.o
default_layer_state_set_user                      .build/obj_lily58_rev1_default/common/action_layer.o
default_layer_xor                                 .build/obj_lily58_rev1_default/common/action_layer.o
                                                  .build/obj_lily58_rev1_default/common/action.o
del_key                                           .build/obj_lily58_rev1_default/common/action_util.o
                                                  .build/obj_lily58_rev1_default/common/action.o
                                                  .build/obj_lily58_rev1_default/quantum/process_keycode/process_grave_esc.o
del_key_byte                                      .build/obj_lily58_rev1_default/common/report.o
del_key_from_report                               .build/obj_lily58_rev1_default/common/report.o
                                                  .build/obj_lily58_rev1_default/common/action_util.o
del_macro_mods                                    .build/obj_lily58_rev1_default/common/action_util.o
del_mods                                          .build/obj_lily58_rev1_default/common/action_util.o
                                                  .build/obj_lily58_rev1_default/common/action.o
del_weak_mods                                     .build/obj_lily58_rev1_default/common/action_util.o
                                                  .build/obj_lily58_rev1_default/common/action.o
desired_output                                    .build/obj_lily58_rev1_default/outputselect.o
disable_action_cache                              .build/obj_lily58_rev1_default/common/action.o
                                                  .build/obj_lily58_rev1_default/common/action_layer.o
                                                  .build/obj_lily58_rev1_default/quantum/quantum.o
disable_jtag                                      .build/obj_lily58_rev1_default/common/keyboard.o
display                                           .build/obj_lily58_rev1_default/keyboards/lily58/keymaps/default/keymap.o
                                                  .build/obj_lily58_rev1_default/keyboards/lily58/lily58.o
                                                  .build/obj_lily58_rev1_default/ssd1306.o
eeconfig_debug_rgblight                           .build/obj_lily58_rev1_default/quantum/rgblight.o
eeconfig_disable                                  .build/obj_lily58_rev1_default/common/eeconfig.o
eeconfig_enable                                   .build/obj_lily58_rev1_default/common/eeconfig.o
eeconfig_init                                     .build/obj_lily58_rev1_default/common/eeconfig.o
                                                  .build/obj_lily58_rev1_default/common/magic.o
                                                  .build/obj_lily58_rev1_default/quantum/rgblight.o
                                                  .build/obj_lily58_rev1_default/quantum/quantum.o
eeconfig_init_kb                                  .build/obj_lily58_rev1_default/common/eeconfig.o
eeconfig_init_quantum                             .build/obj_lily58_rev1_default/common/eeconfig.o
eeconfig_init_user                                .build/obj_lily58_rev1_default/common/eeconfig.o
eeconfig_is_disabled                              .build/obj_lily58_rev1_default/common/eeconfig.o
eeconfig_is_enabled                               .build/obj_lily58_rev1_default/common/eeconfig.o
                                                  .build/obj_lily58_rev1_default/common/magic.o
                                                  .build/obj_lily58_rev1_default/quantum/rgblight.o
                                                  .build/obj_lily58_rev1_default/quantum/quantum.o
eeconfig_read_audio                               .build/obj_lily58_rev1_default/common/eeconfig.o
eeconfig_read_backlight                           .build/obj_lily58_rev1_default/common/eeconfig.o
eeconfig_read_debug                               .build/obj_lily58_rev1_default/common/eeconfig.o
                                                  .build/obj_lily58_rev1_default/common/magic.o
eeconfig_read_default_layer                       .build/obj_lily58_rev1_default/common/eeconfig.o
                                                  .build/obj_lily58_rev1_default/common/magic.o
eeconfig_read_handedness                          .build/obj_lily58_rev1_default/common/eeconfig.o
eeconfig_read_haptic                              .build/obj_lily58_rev1_default/common/eeconfig.o
eeconfig_read_kb                                  .build/obj_lily58_rev1_default/common/eeconfig.o
eeconfig_read_keymap                              .build/obj_lily58_rev1_default/common/eeconfig.o
                                                  .build/obj_lily58_rev1_default/common/magic.o
                                                  .build/obj_lily58_rev1_default/quantum/process_keycode/process_magic.o
eeconfig_read_rgblight                            .build/obj_lily58_rev1_default/quantum/rgblight.o
eeconfig_read_user                                .build/obj_lily58_rev1_default/common/eeconfig.o
eeconfig_update_audio                             .build/obj_lily58_rev1_default/common/eeconfig.o
eeconfig_update_backlight                         .build/obj_lily58_rev1_default/common/eeconfig.o
eeconfig_update_debug                             .build/obj_lily58_rev1_default/common/eeconfig.o
eeconfig_update_default_layer                     .build/obj_lily58_rev1_default/common/eeconfig.o
                                                  .build/obj_lily58_rev1_default/quantum/quantum.o
eeconfig_update_handedness                        .build/obj_lily58_rev1_default/common/eeconfig.o
                                                  .build/obj_lily58_rev1_default/quantum/process_keycode/process_magic.o
eeconfig_update_haptic                            .build/obj_lily58_rev1_default/common/eeconfig.o
eeconfig_update_kb                                .build/obj_lily58_rev1_default/common/eeconfig.o
eeconfig_update_keymap                            .build/obj_lily58_rev1_default/common/eeconfig.o
                                                  .build/obj_lily58_rev1_default/quantum/process_keycode/process_magic.o
eeconfig_update_rgblight                          .build/obj_lily58_rev1_default/quantum/rgblight.o
eeconfig_update_rgblight_current                  .build/obj_lily58_rev1_default/quantum/rgblight.o
eeconfig_update_rgblight_default                  .build/obj_lily58_rev1_default/quantum/rgblight.o
eeconfig_update_user                              .build/obj_lily58_rev1_default/common/eeconfig.o
eeprom_read_block                                 c:/msys64/home/kyleo/qmk_utils/avr8-gnu-toolchain/bin/../lib/gcc/avr/8.3.0/../../../../avr/lib/avr5\libatmega32u4.a(eerd_block.o)
eeprom_read_blraw                                 c:/msys64/home/kyleo/qmk_utils/avr8-gnu-toolchain/bin/../lib/gcc/avr/8.3.0/../../../../avr/lib/avr5\libatmega32u4.a(eerd_block.o)
                                                  c:/msys64/home/kyleo/qmk_utils/avr8-gnu-toolchain/bin/../lib/gcc/avr/8.3.0/../../../../avr/lib/avr5\libatmega32u4.a(eerd_word.o)
                                                  c:/msys64/home/kyleo/qmk_utils/avr8-gnu-toolchain/bin/../lib/gcc/avr/8.3.0/../../../../avr/lib/avr5\libatmega32u4.a(eerd_dword.o)
eeprom_read_byte                                  c:/msys64/home/kyleo/qmk_utils/avr8-gnu-toolchain/bin/../lib/gcc/avr/8.3.0/../../../../avr/lib/avr5\libatmega32u4.a(eerd_byte.o)
                                                  .build/obj_lily58_rev1_default/lib/lufa/LUFA/Drivers/USB/Core/AVR8/EndpointStream_AVR8.o
                                                  .build/obj_lily58_rev1_default/common/eeconfig.o
eeprom_read_dword                                 c:/msys64/home/kyleo/qmk_utils/avr8-gnu-toolchain/bin/../lib/gcc/avr/8.3.0/../../../../avr/lib/avr5\libatmega32u4.a(eerd_dword.o)
                                                  .build/obj_lily58_rev1_default/common/eeconfig.o
                                                  .build/obj_lily58_rev1_default/quantum/rgblight.o
eeprom_read_float                                 c:/msys64/home/kyleo/qmk_utils/avr8-gnu-toolchain/bin/../lib/gcc/avr/8.3.0/../../../../avr/lib/avr5\libatmega32u4.a(eerd_dword.o)
eeprom_read_word                                  c:/msys64/home/kyleo/qmk_utils/avr8-gnu-toolchain/bin/../lib/gcc/avr/8.3.0/../../../../avr/lib/avr5\libatmega32u4.a(eerd_word.o)
                                                  .build/obj_lily58_rev1_default/common/eeconfig.o
eeprom_update_byte                                c:/msys64/home/kyleo/qmk_utils/avr8-gnu-toolchain/bin/../lib/gcc/avr/8.3.0/../../../../avr/lib/avr5\libatmega32u4.a(eeupd_byte.o)
                                                  c:/msys64/home/kyleo/qmk_utils/avr8-gnu-toolchain/bin/../lib/gcc/avr/8.3.0/../../../../avr/lib/avr5\libatmega32u4.a(eeupd_word.o)
                                                  c:/msys64/home/kyleo/qmk_utils/avr8-gnu-toolchain/bin/../lib/gcc/avr/8.3.0/../../../../avr/lib/avr5\libatmega32u4.a(eeupd_dword.o)
                                                  .build/obj_lily58_rev1_default/lib/lufa/LUFA/Drivers/USB/Core/AVR8/EndpointStream_AVR8.o
                                                  .build/obj_lily58_rev1_default/common/eeconfig.o
eeprom_update_dword                               c:/msys64/home/kyleo/qmk_utils/avr8-gnu-toolchain/bin/../lib/gcc/avr/8.3.0/../../../../avr/lib/avr5\libatmega32u4.a(eeupd_dword.o)
                                                  .build/obj_lily58_rev1_default/common/eeconfig.o
                                                  .build/obj_lily58_rev1_default/quantum/rgblight.o
eeprom_update_float                               c:/msys64/home/kyleo/qmk_utils/avr8-gnu-toolchain/bin/../lib/gcc/avr/8.3.0/../../../../avr/lib/avr5\libatmega32u4.a(eeupd_dword.o)
eeprom_update_r18                                 c:/msys64/home/kyleo/qmk_utils/avr8-gnu-toolchain/bin/../lib/gcc/avr/8.3.0/../../../../avr/lib/avr5\libatmega32u4.a(eeupd_byte.o)
                                                  c:/msys64/home/kyleo/qmk_utils/avr8-gnu-toolchain/bin/../lib/gcc/avr/8.3.0/../../../../avr/lib/avr5\libatmega32u4.a(eeupd_word.o)
                                                  c:/msys64/home/kyleo/qmk_utils/avr8-gnu-toolchain/bin/../lib/gcc/avr/8.3.0/../../../../avr/lib/avr5\libatmega32u4.a(eeupd_dword.o)
eeprom_update_word                                c:/msys64/home/kyleo/qmk_utils/avr8-gnu-toolchain/bin/../lib/gcc/avr/8.3.0/../../../../avr/lib/avr5\libatmega32u4.a(eeupd_word.o)
                                                  .build/obj_lily58_rev1_default/common/eeconfig.o
encoder_init                                      .build/obj_lily58_rev1_default/quantum/encoder.o
                                                  .build/obj_lily58_rev1_default/quantum/quantum.o
encoder_read                                      .build/obj_lily58_rev1_default/quantum/encoder.o
                                                  .build/obj_lily58_rev1_default/quantum/quantum.o
encoder_update_kb                                 .build/obj_lily58_rev1_default/quantum/encoder.o
encoder_update_user                               .build/obj_lily58_rev1_default/keyboards/lily58/keymaps/default/keymap.o
exit                                              c:/msys64/home/kyleo/qmk_utils/avr8-gnu-toolchain/bin/../lib/gcc/avr/8.3.0/avr5\libgcc.a(_exit.o)
                                                  c:/msys64/home/kyleo/qmk_utils/avr8-gnu-toolchain/bin/../lib/gcc/avr/8.3.0/../../../../avr/lib/avr5/crtatmega32u4.o
fn_actions                                        .build/obj_lily58_rev1_default/quantum/keymap_common.o
font                                              .build/obj_lily58_rev1_default/./lib/glcdfont.o
                                                  .build/obj_lily58_rev1_default/ssd1306.o
fputc                                             c:/msys64/home/kyleo/qmk_utils/avr8-gnu-toolchain/bin/../lib/gcc/avr/8.3.0/../../../../avr/lib/avr5\libc.a(fputc.o)
                                                  c:/msys64/home/kyleo/qmk_utils/avr8-gnu-toolchain/bin/../lib/gcc/avr/8.3.0/../../../../avr/lib/avr5\libc.a(vfprintf_std.o)
get_event_keycode                                 .build/obj_lily58_rev1_default/quantum/quantum.o
get_first_key                                     .build/obj_lily58_rev1_default/common/report.o
get_macro_mods                                    .build/obj_lily58_rev1_default/common/action_util.o
get_mods                                          .build/obj_lily58_rev1_default/common/action_util.o
                                                  .build/obj_lily58_rev1_default/quantum/process_keycode/process_grave_esc.o
                                                  .build/obj_lily58_rev1_default/quantum/process_keycode/process_rgb.o
get_oneshot_layer                                 .build/obj_lily58_rev1_default/common/action_util.o
                                                  .build/obj_lily58_rev1_default/common/action.o
get_oneshot_layer_state                           .build/obj_lily58_rev1_default/common/action_util.o
                                                  .build/obj_lily58_rev1_default/common/action.o
get_oneshot_locked_mods                           .build/obj_lily58_rev1_default/common/action_util.o
get_oneshot_mods                                  .build/obj_lily58_rev1_default/common/action_util.o
                                                  .build/obj_lily58_rev1_default/common/action.o
get_record_keycode                                .build/obj_lily58_rev1_default/quantum/quantum.o
get_tapping_term                                  .build/obj_lily58_rev1_default/common/action_tapping.o
get_usb_descriptor                                .build/obj_lily58_rev1_default/usb_descriptor.o
                                                  .build/obj_lily58_rev1_default/lufa.o
get_weak_mods                                     .build/obj_lily58_rev1_default/common/action_util.o
has_anykey                                        .build/obj_lily58_rev1_default/common/report.o
                                                  .build/obj_lily58_rev1_default/common/action_util.o
has_anymod                                        .build/obj_lily58_rev1_default/common/action_util.o
has_oneshot_mods_timed_out                        .build/obj_lily58_rev1_default/common/action_util.o
has_usb                                           .build/obj_lily58_rev1_default/rev1/split_util.o
                                                  .build/obj_lily58_rev1_default/keyboards/lily58/keymaps/default/keymap.o
                                                  .build/obj_lily58_rev1_default/rev1/matrix.o
hex_to_keycode                                    .build/obj_lily58_rev1_default/quantum/quantum.o
host_consumer_send                                .build/obj_lily58_rev1_default/common/host.o
                                                  .build/obj_lily58_rev1_default/common/action.o
host_get_driver                                   .build/obj_lily58_rev1_default/common/host.o
host_keyboard_led_state                           .build/obj_lily58_rev1_default/common/host.o
host_keyboard_leds                                .build/obj_lily58_rev1_default/common/host.o
                                                  .build/obj_lily58_rev1_default/common/avr/suspend.o
                                                  .build/obj_lily58_rev1_default/common/action.o
                                                  .build/obj_lily58_rev1_default/common/keyboard.o
host_keyboard_send                                .build/obj_lily58_rev1_default/common/host.o
                                                  .build/obj_lily58_rev1_default/common/action_util.o
host_last_consumer_report                         .build/obj_lily58_rev1_default/common/host.o
host_last_system_report                           .build/obj_lily58_rev1_default/common/host.o
host_mouse_send                                   .build/obj_lily58_rev1_default/common/host.o
host_set_driver                                   .build/obj_lily58_rev1_default/common/host.o
                                                  .build/obj_lily58_rev1_default/lufa.o
host_system_send                                  .build/obj_lily58_rev1_default/common/host.o
                                                  .build/obj_lily58_rev1_default/common/action.o
hsv_to_rgb                                        .build/obj_lily58_rev1_default/quantum/color.o
                                                  .build/obj_lily58_rev1_default/quantum/rgblight.o
i2c_master_init                                   .build/obj_lily58_rev1_default/i2c.o
                                                  .build/obj_lily58_rev1_default/ssd1306.o
i2c_master_read                                   .build/obj_lily58_rev1_default/i2c.o
i2c_master_start                                  .build/obj_lily58_rev1_default/i2c.o
                                                  .build/obj_lily58_rev1_default/ssd1306.o
i2c_master_stop                                   .build/obj_lily58_rev1_default/i2c.o
                                                  .build/obj_lily58_rev1_default/ssd1306.o
i2c_master_write                                  .build/obj_lily58_rev1_default/i2c.o
                                                  .build/obj_lily58_rev1_default/ssd1306.o
i2c_reset_state                                   .build/obj_lily58_rev1_default/i2c.o
i2c_slave_buffer                                  .build/obj_lily58_rev1_default/i2c.o
i2c_slave_init                                    .build/obj_lily58_rev1_default/i2c.o
iota_gfx_clear_screen                             .build/obj_lily58_rev1_default/ssd1306.o
iota_gfx_flush                                    .build/obj_lily58_rev1_default/ssd1306.o
iota_gfx_init                                     .build/obj_lily58_rev1_default/ssd1306.o
                                                  .build/obj_lily58_rev1_default/keyboards/lily58/keymaps/default/keymap.o
iota_gfx_off                                      .build/obj_lily58_rev1_default/ssd1306.o
iota_gfx_on                                       .build/obj_lily58_rev1_default/ssd1306.o
iota_gfx_task                                     .build/obj_lily58_rev1_default/ssd1306.o
                                                  .build/obj_lily58_rev1_default/keyboards/lily58/keymaps/default/keymap.o
iota_gfx_task_user                                .build/obj_lily58_rev1_default/keyboards/lily58/keymaps/default/keymap.o
                                                  .build/obj_lily58_rev1_default/ssd1306.o
iota_gfx_write                                    .build/obj_lily58_rev1_default/ssd1306.o
iota_gfx_write_P                                  .build/obj_lily58_rev1_default/ssd1306.o
iota_gfx_write_char                               .build/obj_lily58_rev1_default/ssd1306.o
isLeftHand                                        .build/obj_lily58_rev1_default/rev1/split_util.o
                                                  .build/obj_lily58_rev1_default/rev1/matrix.o
is_key_pressed                                    .build/obj_lily58_rev1_default/common/report.o
                                                  .build/obj_lily58_rev1_default/common/action.o
is_keyboard_left                                  .build/obj_lily58_rev1_default/rev1/split_util.o
is_keyboard_master                                .build/obj_lily58_rev1_default/common/keyboard.o
is_master                                         .build/obj_lily58_rev1_default/rev1/matrix.o
                                                  .build/obj_lily58_rev1_default/keyboards/lily58/keymaps/default/keymap.o
is_oneshot_layer_active                           .build/obj_lily58_rev1_default/common/action_util.o
                                                  .build/obj_lily58_rev1_default/common/action.o
is_rgblight_initialized                           .build/obj_lily58_rev1_default/quantum/rgblight.o
is_tap_action                                     .build/obj_lily58_rev1_default/common/action.o
is_tap_key                                        .build/obj_lily58_rev1_default/common/action.o
                                                  .build/obj_lily58_rev1_default/common/action_tapping.o
keyboard_idle                                     .build/obj_lily58_rev1_default/lufa.o
keyboard_init                                     .build/obj_lily58_rev1_default/common/keyboard.o
                                                  .build/obj_lily58_rev1_default/lufa.o
keyboard_post_init_kb                             .build/obj_lily58_rev1_default/common/keyboard.o
keyboard_post_init_user                           .build/obj_lily58_rev1_default/common/keyboard.o
keyboard_pre_init_kb                              .build/obj_lily58_rev1_default/common/keyboard.o
keyboard_pre_init_user                            .build/obj_lily58_rev1_default/common/keyboard.o
keyboard_protocol                                 .build/obj_lily58_rev1_default/lufa.o
keyboard_report                                   .build/obj_lily58_rev1_default/common/action_util.o
                                                  .build/obj_lily58_rev1_default/common/action.o
keyboard_set_leds                                 .build/obj_lily58_rev1_default/common/keyboard.o
keyboard_setup                                    .build/obj_lily58_rev1_default/common/keyboard.o
                                                  .build/obj_lily58_rev1_default/lufa.o
keyboard_task                                     .build/obj_lily58_rev1_default/common/keyboard.o
                                                  .build/obj_lily58_rev1_default/lufa.o
keycode_config                                    .build/obj_lily58_rev1_default/quantum/keycode_config.o
                                                  .build/obj_lily58_rev1_default/quantum/keymap_common.o
keylog_str                                        .build/obj_lily58_rev1_default/./lib/keylogger.o
keylogs_str                                       .build/obj_lily58_rev1_default/./lib/keylogger.o
keylogs_str_idx                                   .build/obj_lily58_rev1_default/./lib/keylogger.o
keymap_config                                     .build/obj_lily58_rev1_default/common/magic.o
                                                  .build/obj_lily58_rev1_default/quantum/process_keycode/process_magic.o
                                                  .build/obj_lily58_rev1_default/quantum/keycode_config.o
keymap_function_id_to_action                      .build/obj_lily58_rev1_default/quantum/keymap_common.o
keymap_key_to_keycode                             .build/obj_lily58_rev1_default/quantum/keymap_common.o
                                                  .build/obj_lily58_rev1_default/quantum/quantum.o
keymaps                                           .build/obj_lily58_rev1_default/keyboards/lily58/keymaps/default/keymap.o
                                                  .build/obj_lily58_rev1_default/quantum/keymap_common.o
layer_and                                         .build/obj_lily58_rev1_default/common/action_layer.o
                                                  .build/obj_lily58_rev1_default/common/action.o
layer_clear                                       .build/obj_lily58_rev1_default/common/action_layer.o
                                                  .build/obj_lily58_rev1_default/common/action.o
layer_debug                                       .build/obj_lily58_rev1_default/common/action_layer.o
                                                  .build/obj_lily58_rev1_default/common/action.o
layer_invert                                      .build/obj_lily58_rev1_default/common/action_layer.o
                                                  .build/obj_lily58_rev1_default/common/action.o
layer_move                                        .build/obj_lily58_rev1_default/common/action_layer.o
                                                  .build/obj_lily58_rev1_default/common/action.o
layer_off                                         .build/obj_lily58_rev1_default/common/action_layer.o
                                                  .build/obj_lily58_rev1_default/common/action_util.o
                                                  .build/obj_lily58_rev1_default/common/action.o
                                                  .build/obj_lily58_rev1_default/keyboards/lily58/keymaps/default/keymap.o
layer_on                                          .build/obj_lily58_rev1_default/common/action_layer.o
                                                  .build/obj_lily58_rev1_default/common/action_util.o
                                                  .build/obj_lily58_rev1_default/common/action.o
                                                  .build/obj_lily58_rev1_default/keyboards/lily58/keymaps/default/keymap.o
layer_or                                          .build/obj_lily58_rev1_default/common/action_layer.o
                                                  .build/obj_lily58_rev1_default/common/action.o
layer_state                                       .build/obj_lily58_rev1_default/common/action_layer.o
                                                  .build/obj_lily58_rev1_default/quantum/quantum.o
                                                  .build/obj_lily58_rev1_default/keyboards/lily58/keymaps/default/keymap.o
                                                  .build/obj_lily58_rev1_default/./lib/layer_state_reader.o
layer_state_cmp                                   .build/obj_lily58_rev1_default/common/action_layer.o
layer_state_is                                    .build/obj_lily58_rev1_default/common/action_layer.o
layer_state_set                                   .build/obj_lily58_rev1_default/common/action_layer.o
                                                  .build/obj_lily58_rev1_default/common/action.o
                                                  .build/obj_lily58_rev1_default/quantum/quantum.o
layer_state_set_kb                                .build/obj_lily58_rev1_default/common/action_layer.o
layer_state_set_user                              .build/obj_lily58_rev1_default/common/action_layer.o
layer_state_str                                   .build/obj_lily58_rev1_default/./lib/layer_state_reader.o
layer_switch_get_action                           .build/obj_lily58_rev1_default/common/action_layer.o
                                                  .build/obj_lily58_rev1_default/common/action_tapping.o
                                                  .build/obj_lily58_rev1_default/common/action.o
layer_switch_get_layer                            .build/obj_lily58_rev1_default/common/action_layer.o
                                                  .build/obj_lily58_rev1_default/quantum/quantum.o
layer_xor                                         .build/obj_lily58_rev1_default/common/action_layer.o
                                                  .build/obj_lily58_rev1_default/common/action.o
led                                               .build/obj_lily58_rev1_default/quantum/rgblight.o
led_init_ports                                    .build/obj_lily58_rev1_default/quantum/quantum.o
led_set                                           .build/obj_lily58_rev1_default/quantum/quantum.o
                                                  .build/obj_lily58_rev1_default/common/avr/suspend.o
                                                  .build/obj_lily58_rev1_default/common/action.o
                                                  .build/obj_lily58_rev1_default/common/keyboard.o
led_set_kb                                        .build/obj_lily58_rev1_default/keyboards/lily58/rev1/rev1.o
led_set_user                                      .build/obj_lily58_rev1_default/quantum/quantum.o
led_update_kb                                     .build/obj_lily58_rev1_default/quantum/quantum.o
led_update_user                                   .build/obj_lily58_rev1_default/quantum/quantum.o
lufa_driver                                       .build/obj_lily58_rev1_default/lufa.o
magic                                             .build/obj_lily58_rev1_default/common/magic.o
                                                  .build/obj_lily58_rev1_default/common/keyboard.o
main                                              .build/obj_lily58_rev1_default/lufa.o
                                                  c:/msys64/home/kyleo/qmk_utils/avr8-gnu-toolchain/bin/../lib/gcc/avr/8.3.0/../../../../avr/lib/avr5/crtatmega32u4.o
matrix_clear                                      .build/obj_lily58_rev1_default/ssd1306.o
                                                  .build/obj_lily58_rev1_default/keyboards/lily58/keymaps/default/keymap.o
matrix_cols                                       .build/obj_lily58_rev1_default/rev1/matrix.o
matrix_get_row                                    .build/obj_lily58_rev1_default/rev1/matrix.o
                                                  .build/obj_lily58_rev1_default/common/avr/suspend.o
                                                  .build/obj_lily58_rev1_default/common/keyboard.o
matrix_init                                       .build/obj_lily58_rev1_default/rev1/matrix.o
                                                  .build/obj_lily58_rev1_default/common/keyboard.o
matrix_init_kb                                    .build/obj_lily58_rev1_default/rev1/matrix.o
                                                  .build/obj_lily58_rev1_default/quantum/quantum.o
matrix_init_quantum                               .build/obj_lily58_rev1_default/quantum/quantum.o
                                                  .build/obj_lily58_rev1_default/rev1/matrix.o
matrix_init_user                                  .build/obj_lily58_rev1_default/keyboards/lily58/keymaps/default/keymap.o
                                                  .build/obj_lily58_rev1_default/rev1/matrix.o
matrix_is_modified                                .build/obj_lily58_rev1_default/rev1/matrix.o
matrix_is_on                                      .build/obj_lily58_rev1_default/rev1/matrix.o
matrix_key_count                                  .build/obj_lily58_rev1_default/rev1/matrix.o
matrix_power_down                                 .build/obj_lily58_rev1_default/common/avr/suspend.o
matrix_power_up                                   .build/obj_lily58_rev1_default/common/avr/suspend.o
matrix_print                                      .build/obj_lily58_rev1_default/rev1/matrix.o
                                                  .build/obj_lily58_rev1_default/common/keyboard.o
matrix_render                                     .build/obj_lily58_rev1_default/ssd1306.o
matrix_render_user                                .build/obj_lily58_rev1_default/keyboards/lily58/keymaps/default/keymap.o
matrix_rows                                       .build/obj_lily58_rev1_default/rev1/matrix.o
matrix_scan                                       .build/obj_lily58_rev1_default/rev1/matrix.o
                                                  .build/obj_lily58_rev1_default/common/avr/suspend.o
                                                  .build/obj_lily58_rev1_default/common/keyboard.o
matrix_scan_kb                                    .build/obj_lily58_rev1_default/rev1/matrix.o
                                                  .build/obj_lily58_rev1_default/quantum/quantum.o
matrix_scan_quantum                               .build/obj_lily58_rev1_default/quantum/quantum.o
                                                  .build/obj_lily58_rev1_default/rev1/matrix.o
matrix_scan_user                                  .build/obj_lily58_rev1_default/keyboards/lily58/keymaps/default/keymap.o
                                                  .build/obj_lily58_rev1_default/rev1/matrix.o
matrix_setup                                      .build/obj_lily58_rev1_default/common/keyboard.o
matrix_slave_scan                                 .build/obj_lily58_rev1_default/rev1/matrix.o
matrix_update                                     .build/obj_lily58_rev1_default/keyboards/lily58/keymaps/default/keymap.o
matrix_write                                      .build/obj_lily58_rev1_default/ssd1306.o
                                                  .build/obj_lily58_rev1_default/keyboards/lily58/keymaps/default/keymap.o
matrix_write_P                                    .build/obj_lily58_rev1_default/ssd1306.o
matrix_write_char                                 .build/obj_lily58_rev1_default/ssd1306.o
matrix_write_char_inner                           .build/obj_lily58_rev1_default/ssd1306.o
matrix_write_ln                                   .build/obj_lily58_rev1_default/ssd1306.o
                                                  .build/obj_lily58_rev1_default/keyboards/lily58/keymaps/default/keymap.o
memchr                                            c:/msys64/home/kyleo/qmk_utils/avr8-gnu-toolchain/bin/../lib/gcc/avr/8.3.0/../../../../avr/lib/avr5\libc.a(memchr.o)
                                                  .build/obj_lily58_rev1_default/quantum/rgblight.o
memcmp                                            c:/msys64/home/kyleo/qmk_utils/avr8-gnu-toolchain/bin/../lib/gcc/avr/8.3.0/../../../../avr/lib/avr5\libc.a(memcmp.o)
                                                  .build/obj_lily58_rev1_default/keyboards/lily58/keymaps/default/keymap.o
                                                  .build/obj_lily58_rev1_default/rev1/matrix.o
memcpy                                            c:/msys64/home/kyleo/qmk_utils/avr8-gnu-toolchain/bin/../lib/gcc/avr/8.3.0/../../../../avr/lib/avr5\libc.a(memcpy.o)
                                                  c:/msys64/home/kyleo/qmk_utils/avr8-gnu-toolchain/bin/../lib/gcc/avr/8.3.0/../../../../avr/lib/avr5\libc.a(memmove.o)
memmove                                           c:/msys64/home/kyleo/qmk_utils/avr8-gnu-toolchain/bin/../lib/gcc/avr/8.3.0/../../../../avr/lib/avr5\libc.a(memmove.o)
                                                  .build/obj_lily58_rev1_default/ssd1306.o
memset                                            c:/msys64/home/kyleo/qmk_utils/avr8-gnu-toolchain/bin/../lib/gcc/avr/8.3.0/../../../../avr/lib/avr5\libc.a(memset.o)
                                                  .build/obj_lily58_rev1_default/ssd1306.o
mod_config                                        .build/obj_lily58_rev1_default/quantum/keycode_config.o
                                                  .build/obj_lily58_rev1_default/quantum/keymap_common.o
oneshot_layer_changed_kb                          .build/obj_lily58_rev1_default/common/action_util.o
oneshot_layer_changed_user                        .build/obj_lily58_rev1_default/common/action_util.o
oneshot_locked_mods_changed_kb                    .build/obj_lily58_rev1_default/common/action_util.o
oneshot_locked_mods_changed_user                  .build/obj_lily58_rev1_default/common/action_util.o
oneshot_mods_changed_kb                           .build/obj_lily58_rev1_default/common/action_util.o
oneshot_mods_changed_user                         .build/obj_lily58_rev1_default/common/action_util.o
perform_space_cadet                               .build/obj_lily58_rev1_default/quantum/process_keycode/process_space_cadet.o
post_process_record_kb                            .build/obj_lily58_rev1_default/quantum/quantum.o
post_process_record_quantum                       .build/obj_lily58_rev1_default/quantum/quantum.o
post_process_record_user                          .build/obj_lily58_rev1_default/quantum/quantum.o
process_action                                    .build/obj_lily58_rev1_default/common/action.o
process_action_kb                                 .build/obj_lily58_rev1_default/quantum/quantum.o
process_grave_esc                                 .build/obj_lily58_rev1_default/quantum/process_keycode/process_grave_esc.o
                                                  .build/obj_lily58_rev1_default/quantum/quantum.o
process_magic                                     .build/obj_lily58_rev1_default/quantum/process_keycode/process_magic.o
                                                  .build/obj_lily58_rev1_default/quantum/quantum.o
process_record                                    .build/obj_lily58_rev1_default/common/action.o
                                                  .build/obj_lily58_rev1_default/common/action_tapping.o
process_record_gfx                                .build/obj_lily58_rev1_default/ssd1306.o
                                                  .build/obj_lily58_rev1_default/keyboards/lily58/lily58.o
process_record_handler                            .build/obj_lily58_rev1_default/common/action.o
process_record_kb                                 .build/obj_lily58_rev1_default/keyboards/lily58/lily58.o
process_record_nocache                            .build/obj_lily58_rev1_default/common/action.o
process_record_quantum                            .build/obj_lily58_rev1_default/quantum/quantum.o
process_record_tap_hint                           .build/obj_lily58_rev1_default/common/action.o
                                                  .build/obj_lily58_rev1_default/common/action_tapping.o
process_record_user                               .build/obj_lily58_rev1_default/keyboards/lily58/keymaps/default/keymap.o
                                                  .build/obj_lily58_rev1_default/keyboards/lily58/lily58.o
process_rgb                                       .build/obj_lily58_rev1_default/quantum/process_keycode/process_rgb.o
                                                  .build/obj_lily58_rev1_default/quantum/quantum.o
process_space_cadet                               .build/obj_lily58_rev1_default/quantum/process_keycode/process_space_cadet.o
                                                  .build/obj_lily58_rev1_default/quantum/quantum.o
rbf_info_str                                      .build/obj_lily58_rev1_default/./lib/rgb_state_reader.o
read_keylog                                       .build/obj_lily58_rev1_default/./lib/keylogger.o
                                                  .build/obj_lily58_rev1_default/keyboards/lily58/keymaps/default/keymap.o
read_keylogs                                      .build/obj_lily58_rev1_default/./lib/keylogger.o
                                                  .build/obj_lily58_rev1_default/keyboards/lily58/keymaps/default/keymap.o
read_layer_state                                  .build/obj_lily58_rev1_default/./lib/layer_state_reader.o
                                                  .build/obj_lily58_rev1_default/keyboards/lily58/keymaps/default/keymap.o
read_logo                                         .build/obj_lily58_rev1_default/./lib/logo_reader.o
                                                  .build/obj_lily58_rev1_default/keyboards/lily58/keymaps/default/keymap.o
read_rgb_info                                     .build/obj_lily58_rev1_default/./lib/rgb_state_reader.o
read_source_layers_cache                          .build/obj_lily58_rev1_default/common/action_layer.o
                                                  .build/obj_lily58_rev1_default/quantum/quantum.o
register_code                                     .build/obj_lily58_rev1_default/common/action.o
                                                  .build/obj_lily58_rev1_default/quantum/quantum.o
register_code16                                   .build/obj_lily58_rev1_default/quantum/quantum.o
register_mods                                     .build/obj_lily58_rev1_default/common/action.o
                                                  .build/obj_lily58_rev1_default/quantum/process_keycode/process_space_cadet.o
                                                  .build/obj_lily58_rev1_default/quantum/quantum.o
register_weak_mods                                .build/obj_lily58_rev1_default/common/action.o
                                                  .build/obj_lily58_rev1_default/quantum/quantum.o
reset_key                                         .build/obj_lily58_rev1_default/common/avr/bootloader.o
reset_keyboard                                    .build/obj_lily58_rev1_default/quantum/quantum.o
reset_oneshot_layer                               .build/obj_lily58_rev1_default/common/action_util.o
rgblight_check_config                             .build/obj_lily58_rev1_default/quantum/rgblight.o
rgblight_config                                   .build/obj_lily58_rev1_default/quantum/rgblight.o
                                                  .build/obj_lily58_rev1_default/keyboards/lily58/keymaps/default/keymap.o
                                                  .build/obj_lily58_rev1_default/./lib/rgb_state_reader.o
rgblight_decrease                                 .build/obj_lily58_rev1_default/quantum/rgblight.o
rgblight_decrease_hue                             .build/obj_lily58_rev1_default/quantum/rgblight.o
rgblight_decrease_hue_helper                      .build/obj_lily58_rev1_default/quantum/rgblight.o
rgblight_decrease_hue_noeeprom                    .build/obj_lily58_rev1_default/quantum/rgblight.o
rgblight_decrease_sat                             .build/obj_lily58_rev1_default/quantum/rgblight.o
rgblight_decrease_sat_helper                      .build/obj_lily58_rev1_default/quantum/rgblight.o
rgblight_decrease_sat_noeeprom                    .build/obj_lily58_rev1_default/quantum/rgblight.o
rgblight_decrease_speed                           .build/obj_lily58_rev1_default/quantum/rgblight.o
rgblight_decrease_val                             .build/obj_lily58_rev1_default/quantum/rgblight.o
rgblight_decrease_val_helper                      .build/obj_lily58_rev1_default/quantum/rgblight.o
rgblight_decrease_val_noeeprom                    .build/obj_lily58_rev1_default/quantum/rgblight.o
rgblight_disable                                  .build/obj_lily58_rev1_default/quantum/rgblight.o
rgblight_disable_noeeprom                         .build/obj_lily58_rev1_default/quantum/rgblight.o
rgblight_effect_alternating                       .build/obj_lily58_rev1_default/quantum/rgblight.o
rgblight_effect_breathe_table                     .build/obj_lily58_rev1_default/quantum/rgblight.o
rgblight_effect_breathing                         .build/obj_lily58_rev1_default/quantum/rgblight.o
rgblight_effect_christmas                         .build/obj_lily58_rev1_default/quantum/rgblight.o
rgblight_effect_knight                            .build/obj_lily58_rev1_default/quantum/rgblight.o
rgblight_effect_rainbow_mood                      .build/obj_lily58_rev1_default/quantum/rgblight.o
rgblight_effect_rainbow_swirl                     .build/obj_lily58_rev1_default/quantum/rgblight.o
rgblight_effect_rgbtest                           .build/obj_lily58_rev1_default/quantum/rgblight.o
rgblight_effect_snake                             .build/obj_lily58_rev1_default/quantum/rgblight.o
rgblight_enable                                   .build/obj_lily58_rev1_default/quantum/rgblight.o
rgblight_enable_noeeprom                          .build/obj_lily58_rev1_default/quantum/rgblight.o
rgblight_get_hue                                  .build/obj_lily58_rev1_default/quantum/rgblight.o
rgblight_get_mode                                 .build/obj_lily58_rev1_default/quantum/rgblight.o
                                                  .build/obj_lily58_rev1_default/quantum/process_keycode/process_rgb.o
rgblight_get_sat                                  .build/obj_lily58_rev1_default/quantum/rgblight.o
rgblight_get_speed                                .build/obj_lily58_rev1_default/quantum/rgblight.o
rgblight_get_val                                  .build/obj_lily58_rev1_default/quantum/rgblight.o
rgblight_increase                                 .build/obj_lily58_rev1_default/quantum/rgblight.o
rgblight_increase_hue                             .build/obj_lily58_rev1_default/quantum/rgblight.o
rgblight_increase_hue_helper                      .build/obj_lily58_rev1_default/quantum/rgblight.o
rgblight_increase_hue_noeeprom                    .build/obj_lily58_rev1_default/quantum/rgblight.o
rgblight_increase_sat                             .build/obj_lily58_rev1_default/quantum/rgblight.o
rgblight_increase_sat_helper                      .build/obj_lily58_rev1_default/quantum/rgblight.o
rgblight_increase_sat_noeeprom                    .build/obj_lily58_rev1_default/quantum/rgblight.o
rgblight_increase_speed                           .build/obj_lily58_rev1_default/quantum/rgblight.o
rgblight_increase_val                             .build/obj_lily58_rev1_default/quantum/rgblight.o
rgblight_increase_val_helper                      .build/obj_lily58_rev1_default/quantum/rgblight.o
rgblight_increase_val_noeeprom                    .build/obj_lily58_rev1_default/quantum/rgblight.o
rgblight_init                                     .build/obj_lily58_rev1_default/quantum/rgblight.o
                                                  .build/obj_lily58_rev1_default/common/keyboard.o
rgblight_mode                                     .build/obj_lily58_rev1_default/quantum/rgblight.o
                                                  .build/obj_lily58_rev1_default/quantum/process_keycode/process_rgb.o
rgblight_mode_eeprom_helper                       .build/obj_lily58_rev1_default/quantum/rgblight.o
rgblight_mode_noeeprom                            .build/obj_lily58_rev1_default/quantum/rgblight.o
rgblight_read_dword                               .build/obj_lily58_rev1_default/quantum/rgblight.o
rgblight_set                                      .build/obj_lily58_rev1_default/quantum/rgblight.o
rgblight_set_clipping_range                       .build/obj_lily58_rev1_default/quantum/rgblight.o
rgblight_set_effect_range                         .build/obj_lily58_rev1_default/quantum/rgblight.o
rgblight_set_speed                                .build/obj_lily58_rev1_default/quantum/rgblight.o
rgblight_set_speed_eeprom_helper                  .build/obj_lily58_rev1_default/quantum/rgblight.o
rgblight_set_speed_noeeprom                       .build/obj_lily58_rev1_default/quantum/rgblight.o
rgblight_sethsv                                   .build/obj_lily58_rev1_default/quantum/rgblight.o
rgblight_sethsv_at                                .build/obj_lily58_rev1_default/quantum/rgblight.o
rgblight_sethsv_eeprom_helper                     .build/obj_lily58_rev1_default/quantum/rgblight.o
rgblight_sethsv_master                            .build/obj_lily58_rev1_default/quantum/rgblight.o
rgblight_sethsv_noeeprom                          .build/obj_lily58_rev1_default/quantum/rgblight.o
rgblight_sethsv_noeeprom_old                      .build/obj_lily58_rev1_default/quantum/rgblight.o
rgblight_sethsv_range                             .build/obj_lily58_rev1_default/quantum/rgblight.o
rgblight_sethsv_slave                             .build/obj_lily58_rev1_default/quantum/rgblight.o
rgblight_setrgb                                   .build/obj_lily58_rev1_default/quantum/rgblight.o
rgblight_setrgb_at                                .build/obj_lily58_rev1_default/quantum/rgblight.o
rgblight_setrgb_master                            .build/obj_lily58_rev1_default/quantum/rgblight.o
rgblight_setrgb_range                             .build/obj_lily58_rev1_default/quantum/rgblight.o
rgblight_setrgb_slave                             .build/obj_lily58_rev1_default/quantum/rgblight.o
rgblight_show_solid_color                         .build/obj_lily58_rev1_default/quantum/rgblight.o
rgblight_status                                   .build/obj_lily58_rev1_default/quantum/rgblight.o
rgblight_step                                     .build/obj_lily58_rev1_default/quantum/rgblight.o
rgblight_step_helper                              .build/obj_lily58_rev1_default/quantum/rgblight.o
rgblight_step_noeeprom                            .build/obj_lily58_rev1_default/quantum/rgblight.o
rgblight_step_reverse                             .build/obj_lily58_rev1_default/quantum/rgblight.o
rgblight_step_reverse_helper                      .build/obj_lily58_rev1_default/quantum/rgblight.o
rgblight_step_reverse_noeeprom                    .build/obj_lily58_rev1_default/quantum/rgblight.o
rgblight_task                                     .build/obj_lily58_rev1_default/quantum/rgblight.o
                                                  .build/obj_lily58_rev1_default/common/keyboard.o
rgblight_timer_disable                            .build/obj_lily58_rev1_default/quantum/rgblight.o
rgblight_timer_enable                             .build/obj_lily58_rev1_default/quantum/rgblight.o
rgblight_timer_init                               .build/obj_lily58_rev1_default/quantum/rgblight.o
rgblight_timer_toggle                             .build/obj_lily58_rev1_default/quantum/rgblight.o
rgblight_toggle                                   .build/obj_lily58_rev1_default/quantum/rgblight.o
rgblight_toggle_noeeprom                          .build/obj_lily58_rev1_default/quantum/rgblight.o
rgblight_update_dword                             .build/obj_lily58_rev1_default/quantum/rgblight.o
s_change_new                                      .build/obj_lily58_rev1_default/rev1/split_scomm.o
s_change_old                                      .build/obj_lily58_rev1_default/rev1/split_scomm.o
send_byte                                         .build/obj_lily58_rev1_default/quantum/quantum.o
send_char                                         .build/obj_lily58_rev1_default/quantum/quantum.o
send_dword                                        .build/obj_lily58_rev1_default/quantum/quantum.o
send_keyboard_report                              .build/obj_lily58_rev1_default/common/action_util.o
                                                  .build/obj_lily58_rev1_default/common/action.o
                                                  .build/obj_lily58_rev1_default/quantum/process_keycode/process_grave_esc.o
send_nibble                                       .build/obj_lily58_rev1_default/quantum/quantum.o
send_string                                       .build/obj_lily58_rev1_default/quantum/quantum.o
send_string_P                                     .build/obj_lily58_rev1_default/quantum/quantum.o
send_string_with_delay                            .build/obj_lily58_rev1_default/quantum/quantum.o
send_string_with_delay_P                          .build/obj_lily58_rev1_default/quantum/quantum.o
send_word                                         .build/obj_lily58_rev1_default/quantum/quantum.o
sendchar                                          .build/obj_lily58_rev1_default/lufa.o
serial_master_buffer                              .build/obj_lily58_rev1_default/rev1/split_scomm.o
                                                  .build/obj_lily58_rev1_default/rev1/matrix.o
serial_master_init                                .build/obj_lily58_rev1_default/rev1/split_scomm.o
                                                  .build/obj_lily58_rev1_default/rev1/split_util.o
serial_slave_buffer                               .build/obj_lily58_rev1_default/rev1/split_scomm.o
                                                  .build/obj_lily58_rev1_default/rev1/matrix.o
serial_slave_init                                 .build/obj_lily58_rev1_default/rev1/split_scomm.o
                                                  .build/obj_lily58_rev1_default/rev1/split_util.o
serial_transaction                                .build/obj_lily58_rev1_default/rev1/matrix.o
serial_update_buffers                             .build/obj_lily58_rev1_default/rev1/split_scomm.o
                                                  .build/obj_lily58_rev1_default/rev1/matrix.o
serial_write_chunk                                .build/obj_lily58_rev1_default/serial.o
set_keylog                                        .build/obj_lily58_rev1_default/./lib/keylogger.o
                                                  .build/obj_lily58_rev1_default/keyboards/lily58/keymaps/default/keymap.o
set_macro_mods                                    .build/obj_lily58_rev1_default/common/action_util.o
set_mods                                          .build/obj_lily58_rev1_default/common/action_util.o
set_oneshot_layer                                 .build/obj_lily58_rev1_default/common/action_util.o
                                                  .build/obj_lily58_rev1_default/common/action.o
set_oneshot_locked_mods                           .build/obj_lily58_rev1_default/common/action_util.o
set_oneshot_mods                                  .build/obj_lily58_rev1_default/common/action_util.o
                                                  .build/obj_lily58_rev1_default/common/action.o
set_output                                        .build/obj_lily58_rev1_default/outputselect.o
set_output_user                                   .build/obj_lily58_rev1_default/outputselect.o
set_single_persistent_default_layer               .build/obj_lily58_rev1_default/quantum/quantum.o
                                                  .build/obj_lily58_rev1_default/keyboards/lily58/keymaps/default/keymap.o
set_weak_mods                                     .build/obj_lily58_rev1_default/common/action_util.o
sethsv                                            .build/obj_lily58_rev1_default/quantum/rgblight.o
sethsv_raw                                        .build/obj_lily58_rev1_default/quantum/rgblight.o
setrgb                                            .build/obj_lily58_rev1_default/quantum/rgblight.o
shutdown_user                                     .build/obj_lily58_rev1_default/quantum/quantum.o
slave_buffer_change_count                         .build/obj_lily58_rev1_default/rev1/split_scomm.o
                                                  .build/obj_lily58_rev1_default/rev1/matrix.o
snprintf                                          c:/msys64/home/kyleo/qmk_utils/avr8-gnu-toolchain/bin/../lib/gcc/avr/8.3.0/../../../../avr/lib/avr5\libc.a(snprintf.o)
                                                  .build/obj_lily58_rev1_default/./lib/keylogger.o
                                                  .build/obj_lily58_rev1_default/./lib/layer_state_reader.o
                                                  .build/obj_lily58_rev1_default/./lib/rgb_state_reader.o
                                                  .build/obj_lily58_rev1_default/ssd1306.o
soft_serial_get_and_clean_status                  .build/obj_lily58_rev1_default/serial.o
soft_serial_initiator_init                        .build/obj_lily58_rev1_default/serial.o
                                                  .build/obj_lily58_rev1_default/rev1/split_scomm.o
soft_serial_target_init                           .build/obj_lily58_rev1_default/serial.o
                                                  .build/obj_lily58_rev1_default/rev1/split_scomm.o
soft_serial_transaction                           .build/obj_lily58_rev1_default/serial.o
                                                  .build/obj_lily58_rev1_default/rev1/split_scomm.o
source_layers_cache                               .build/obj_lily58_rev1_default/common/action_layer.o
split_keyboard_setup                              .build/obj_lily58_rev1_default/rev1/split_util.o
                                                  .build/obj_lily58_rev1_default/rev1/matrix.o
startup_user                                      .build/obj_lily58_rev1_default/quantum/quantum.o
status1                                           .build/obj_lily58_rev1_default/rev1/split_scomm.o
status_com                                        .build/obj_lily58_rev1_default/rev1/split_scomm.o
store_or_get_action                               .build/obj_lily58_rev1_default/common/action_layer.o
                                                  .build/obj_lily58_rev1_default/common/action.o
strcpy                                            c:/msys64/home/kyleo/qmk_utils/avr8-gnu-toolchain/bin/../lib/gcc/avr/8.3.0/../../../../avr/lib/avr5\libc.a(strcpy.o)
                                                  .build/obj_lily58_rev1_default/./lib/layer_state_reader.o
strnlen                                           c:/msys64/home/kyleo/qmk_utils/avr8-gnu-toolchain/bin/../lib/gcc/avr/8.3.0/../../../../avr/lib/avr5\libc.a(strnlen.o)
                                                  c:/msys64/home/kyleo/qmk_utils/avr8-gnu-toolchain/bin/../lib/gcc/avr/8.3.0/../../../../avr/lib/avr5\libc.a(vfprintf_std.o)
strnlen_P                                         c:/msys64/home/kyleo/qmk_utils/avr8-gnu-toolchain/bin/../lib/gcc/avr/8.3.0/../../../../avr/lib/avr5\libc.a(strnlen_P.o)
                                                  c:/msys64/home/kyleo/qmk_utils/avr8-gnu-toolchain/bin/../lib/gcc/avr/8.3.0/../../../../avr/lib/avr5\libc.a(vfprintf_std.o)
suspend_idle                                      .build/obj_lily58_rev1_default/common/avr/suspend.o
suspend_power_down                                .build/obj_lily58_rev1_default/common/avr/suspend.o
                                                  .build/obj_lily58_rev1_default/lufa.o
suspend_power_down_kb                             .build/obj_lily58_rev1_default/common/avr/suspend.o
suspend_power_down_user                           .build/obj_lily58_rev1_default/common/avr/suspend.o
suspend_wakeup_condition                          .build/obj_lily58_rev1_default/common/avr/suspend.o
                                                  .build/obj_lily58_rev1_default/lufa.o
suspend_wakeup_init                               .build/obj_lily58_rev1_default/common/avr/suspend.o
                                                  .build/obj_lily58_rev1_default/lufa.o
suspend_wakeup_init_kb                            .build/obj_lily58_rev1_default/common/avr/suspend.o
suspend_wakeup_init_user                          .build/obj_lily58_rev1_default/common/avr/suspend.o
tap_code                                          .build/obj_lily58_rev1_default/common/action.o
                                                  .build/obj_lily58_rev1_default/quantum/process_keycode/process_space_cadet.o
                                                  .build/obj_lily58_rev1_default/quantum/quantum.o
                                                  .build/obj_lily58_rev1_default/keyboards/lily58/keymaps/default/keymap.o
tap_code16                                        .build/obj_lily58_rev1_default/quantum/quantum.o
tap_random_base64                                 .build/obj_lily58_rev1_default/quantum/quantum.o
timer_clear                                       .build/obj_lily58_rev1_default/common/avr/timer.o
timer_count                                       .build/obj_lily58_rev1_default/common/avr/timer.o
                                                  .build/obj_lily58_rev1_default/common/avr/suspend.o
timer_elapsed                                     .build/obj_lily58_rev1_default/common/avr/timer.o
                                                  .build/obj_lily58_rev1_default/quantum/process_keycode/process_space_cadet.o
                                                  .build/obj_lily58_rev1_default/quantum/rgblight.o
                                                  .build/obj_lily58_rev1_default/quantum/debounce/sym_g.o
                                                  .build/obj_lily58_rev1_default/ssd1306.o
timer_elapsed32                                   .build/obj_lily58_rev1_default/common/avr/timer.o
timer_init                                        .build/obj_lily58_rev1_default/common/avr/timer.o
                                                  .build/obj_lily58_rev1_default/common/keyboard.o
timer_read                                        .build/obj_lily58_rev1_default/common/avr/timer.o
                                                  .build/obj_lily58_rev1_default/common/keyboard.o
                                                  .build/obj_lily58_rev1_default/quantum/process_keycode/process_space_cadet.o
                                                  .build/obj_lily58_rev1_default/quantum/rgblight.o
                                                  .build/obj_lily58_rev1_default/quantum/debounce/sym_g.o
                                                  .build/obj_lily58_rev1_default/ssd1306.o
timer_read32                                      .build/obj_lily58_rev1_default/common/avr/timer.o
tp_buttons                                        .build/obj_lily58_rev1_default/common/action.o
transactions                                      .build/obj_lily58_rev1_default/rev1/split_scomm.o
unregister_code                                   .build/obj_lily58_rev1_default/common/action.o
                                                  .build/obj_lily58_rev1_default/quantum/quantum.o
unregister_code16                                 .build/obj_lily58_rev1_default/quantum/quantum.o
unregister_mods                                   .build/obj_lily58_rev1_default/common/action.o
                                                  .build/obj_lily58_rev1_default/quantum/process_keycode/process_space_cadet.o
                                                  .build/obj_lily58_rev1_default/quantum/quantum.o
unregister_weak_mods                              .build/obj_lily58_rev1_default/common/action.o
                                                  .build/obj_lily58_rev1_default/quantum/quantum.o
update_source_layers_cache                        .build/obj_lily58_rev1_default/common/action_layer.o
                                                  .build/obj_lily58_rev1_default/quantum/quantum.o
update_tri_layer                                  .build/obj_lily58_rev1_default/quantum/quantum.o
update_tri_layer_RGB                              .build/obj_lily58_rev1_default/keyboards/lily58/keymaps/default/keymap.o
update_tri_layer_state                            .build/obj_lily58_rev1_default/quantum/quantum.o
vfprintf                                          c:/msys64/home/kyleo/qmk_utils/avr8-gnu-toolchain/bin/../lib/gcc/avr/8.3.0/../../../../avr/lib/avr5\libc.a(vfprintf_std.o)
                                                  c:/msys64/home/kyleo/qmk_utils/avr8-gnu-toolchain/bin/../lib/gcc/avr/8.3.0/../../../../avr/lib/avr5\libc.a(snprintf.o)
waitForUsb                                        .build/obj_lily58_rev1_default/rev1/split_util.o
where_to_send                                     .build/obj_lily58_rev1_default/outputselect.o
                                                  .build/obj_lily58_rev1_default/lufa.o
ws2812_setleds                                    .build/obj_lily58_rev1_default/ws2812.o
                                                  .build/obj_lily58_rev1_default/quantum/rgblight.o
ws2812_setleds_pin                                .build/obj_lily58_rev1_default/ws2812.o
xfunc_out                                         .build/obj_lily58_rev1_default/common/avr/xprintf.o
xitoa                                             .build/obj_lily58_rev1_default/common/avr/xprintf.o
xputc                                             .build/obj_lily58_rev1_default/common/avr/xprintf.o
xputs                                             .build/obj_lily58_rev1_default/common/avr/xprintf.o
