   1              		.cpu cortex-m0
   2              		.eabi_attribute 20, 1
   3              		.eabi_attribute 21, 1
   4              		.eabi_attribute 23, 3
   5              		.eabi_attribute 24, 1
   6              		.eabi_attribute 25, 1
   7              		.eabi_attribute 26, 1
   8              		.eabi_attribute 30, 4
   9              		.eabi_attribute 34, 0
  10              		.eabi_attribute 18, 2
  11              		.file	"rgblight.c"
  12              		.text
  13              	.Ltext0:
  14              		.cfi_sections	.debug_frame
  15              		.section	.text.rgblight_effect_dummy,"ax",%progbits
  16              		.align	1
  17              		.arch armv6s-m
  18              		.syntax unified
  19              		.code	16
  20              		.thumb_func
  21              		.fpu softvfp
  23              	rgblight_effect_dummy:
  24              	.LVL0:
  25              	.LFB338:
  26              		.file 1 "quantum/rgblight.c"
   1:quantum/rgblight.c **** /* Copyright 2016-2017 Yang Liu
   2:quantum/rgblight.c ****  *
   3:quantum/rgblight.c ****  * This program is free software: you can redistribute it and/or modify
   4:quantum/rgblight.c ****  * it under the terms of the GNU General Public License as published by
   5:quantum/rgblight.c ****  * the Free Software Foundation, either version 2 of the License, or
   6:quantum/rgblight.c ****  * (at your option) any later version.
   7:quantum/rgblight.c ****  *
   8:quantum/rgblight.c ****  * This program is distributed in the hope that it will be useful,
   9:quantum/rgblight.c ****  * but WITHOUT ANY WARRANTY; without even the implied warranty of
  10:quantum/rgblight.c ****  * MERCHANTABILITY or FITNESS FOR A PARTICULAR PURPOSE.  See the
  11:quantum/rgblight.c ****  * GNU General Public License for more details.
  12:quantum/rgblight.c ****  *
  13:quantum/rgblight.c ****  * You should have received a copy of the GNU General Public License
  14:quantum/rgblight.c ****  * along with this program.  If not, see <http://www.gnu.org/licenses/>.
  15:quantum/rgblight.c ****  */
  16:quantum/rgblight.c **** #include <math.h>
  17:quantum/rgblight.c **** #include <string.h>
  18:quantum/rgblight.c **** #ifdef __AVR__
  19:quantum/rgblight.c **** #    include <avr/eeprom.h>
  20:quantum/rgblight.c **** #    include <avr/interrupt.h>
  21:quantum/rgblight.c **** #endif
  22:quantum/rgblight.c **** #ifdef EEPROM_ENABLE
  23:quantum/rgblight.c **** #    include "eeprom.h"
  24:quantum/rgblight.c **** #endif
  25:quantum/rgblight.c **** #ifdef STM32_EEPROM_ENABLE
  26:quantum/rgblight.c **** #    include "hal.h"
  27:quantum/rgblight.c **** #    include "eeprom_stm32.h"
  28:quantum/rgblight.c **** #endif
  29:quantum/rgblight.c **** #include "wait.h"
  30:quantum/rgblight.c **** #include "progmem.h"
  31:quantum/rgblight.c **** #include "timer.h"
  32:quantum/rgblight.c **** #include "rgblight.h"
  33:quantum/rgblight.c **** #include "color.h"
  34:quantum/rgblight.c **** #include "debug.h"
  35:quantum/rgblight.c **** #include "led_tables.h"
  36:quantum/rgblight.c **** #include "lib/lib8tion/lib8tion.h"
  37:quantum/rgblight.c **** #ifdef VELOCIKEY_ENABLE
  38:quantum/rgblight.c **** #    include "velocikey.h"
  39:quantum/rgblight.c **** #endif
  40:quantum/rgblight.c **** 
  41:quantum/rgblight.c **** #ifndef MIN
  42:quantum/rgblight.c **** #    define MIN(a, b) (((a) < (b)) ? (a) : (b))
  43:quantum/rgblight.c **** #endif
  44:quantum/rgblight.c **** 
  45:quantum/rgblight.c **** #ifdef RGBLIGHT_SPLIT
  46:quantum/rgblight.c **** /* for split keyboard */
  47:quantum/rgblight.c **** #    define RGBLIGHT_SPLIT_SET_CHANGE_MODE rgblight_status.change_flags |= RGBLIGHT_STATUS_CHANGE_M
  48:quantum/rgblight.c **** #    define RGBLIGHT_SPLIT_SET_CHANGE_HSVS rgblight_status.change_flags |= RGBLIGHT_STATUS_CHANGE_H
  49:quantum/rgblight.c **** #    define RGBLIGHT_SPLIT_SET_CHANGE_MODEHSVS rgblight_status.change_flags |= (RGBLIGHT_STATUS_CHA
  50:quantum/rgblight.c **** #    define RGBLIGHT_SPLIT_SET_CHANGE_LAYERS rgblight_status.change_flags |= RGBLIGHT_STATUS_CHANGE
  51:quantum/rgblight.c **** #    define RGBLIGHT_SPLIT_SET_CHANGE_TIMER_ENABLE rgblight_status.change_flags |= RGBLIGHT_STATUS_
  52:quantum/rgblight.c **** #    define RGBLIGHT_SPLIT_ANIMATION_TICK rgblight_status.change_flags |= RGBLIGHT_STATUS_ANIMATION
  53:quantum/rgblight.c **** #else
  54:quantum/rgblight.c **** #    define RGBLIGHT_SPLIT_SET_CHANGE_MODE
  55:quantum/rgblight.c **** #    define RGBLIGHT_SPLIT_SET_CHANGE_HSVS
  56:quantum/rgblight.c **** #    define RGBLIGHT_SPLIT_SET_CHANGE_MODEHSVS
  57:quantum/rgblight.c **** #    define RGBLIGHT_SPLIT_SET_CHANGE_LAYERS
  58:quantum/rgblight.c **** #    define RGBLIGHT_SPLIT_SET_CHANGE_TIMER_ENABLE
  59:quantum/rgblight.c **** #    define RGBLIGHT_SPLIT_ANIMATION_TICK
  60:quantum/rgblight.c **** #endif
  61:quantum/rgblight.c **** 
  62:quantum/rgblight.c **** #define _RGBM_SINGLE_STATIC(sym) RGBLIGHT_MODE_##sym,
  63:quantum/rgblight.c **** #define _RGBM_SINGLE_DYNAMIC(sym)
  64:quantum/rgblight.c **** #define _RGBM_MULTI_STATIC(sym) RGBLIGHT_MODE_##sym,
  65:quantum/rgblight.c **** #define _RGBM_MULTI_DYNAMIC(sym)
  66:quantum/rgblight.c **** #define _RGBM_TMP_STATIC(sym, msym) RGBLIGHT_MODE_##sym,
  67:quantum/rgblight.c **** #define _RGBM_TMP_DYNAMIC(sym, msym)
  68:quantum/rgblight.c **** static uint8_t static_effect_table[] = {
  69:quantum/rgblight.c **** #include "rgblight_modes.h"
  70:quantum/rgblight.c **** };
  71:quantum/rgblight.c **** 
  72:quantum/rgblight.c **** #define _RGBM_SINGLE_STATIC(sym) RGBLIGHT_MODE_##sym,
  73:quantum/rgblight.c **** #define _RGBM_SINGLE_DYNAMIC(sym) RGBLIGHT_MODE_##sym,
  74:quantum/rgblight.c **** #define _RGBM_MULTI_STATIC(sym) RGBLIGHT_MODE_##sym,
  75:quantum/rgblight.c **** #define _RGBM_MULTI_DYNAMIC(sym) RGBLIGHT_MODE_##sym,
  76:quantum/rgblight.c **** #define _RGBM_TMP_STATIC(sym, msym) RGBLIGHT_MODE_##msym,
  77:quantum/rgblight.c **** #define _RGBM_TMP_DYNAMIC(sym, msym) RGBLIGHT_MODE_##msym,
  78:quantum/rgblight.c **** static uint8_t mode_base_table[] = {
  79:quantum/rgblight.c ****     0,  // RGBLIGHT_MODE_zero
  80:quantum/rgblight.c **** #include "rgblight_modes.h"
  81:quantum/rgblight.c **** };
  82:quantum/rgblight.c **** 
  83:quantum/rgblight.c **** static inline int is_static_effect(uint8_t mode) { return memchr(static_effect_table, mode, sizeof(
  84:quantum/rgblight.c **** 
  85:quantum/rgblight.c **** #ifdef RGBLIGHT_LED_MAP
  86:quantum/rgblight.c **** const uint8_t led_map[] PROGMEM = RGBLIGHT_LED_MAP;
  87:quantum/rgblight.c **** #endif
  88:quantum/rgblight.c **** 
  89:quantum/rgblight.c **** #ifdef RGBLIGHT_EFFECT_STATIC_GRADIENT
  90:quantum/rgblight.c **** __attribute__((weak)) const uint8_t RGBLED_GRADIENT_RANGES[] PROGMEM = {255, 170, 127, 85, 64};
  91:quantum/rgblight.c **** #endif
  92:quantum/rgblight.c **** 
  93:quantum/rgblight.c **** rgblight_config_t rgblight_config;
  94:quantum/rgblight.c **** rgblight_status_t rgblight_status         = {.timer_enabled = false};
  95:quantum/rgblight.c **** bool              is_rgblight_initialized = false;
  96:quantum/rgblight.c **** 
  97:quantum/rgblight.c **** #ifdef RGBLIGHT_USE_TIMER
  98:quantum/rgblight.c **** animation_status_t animation_status = {};
  99:quantum/rgblight.c **** #endif
 100:quantum/rgblight.c **** 
 101:quantum/rgblight.c **** #ifndef LED_ARRAY
 102:quantum/rgblight.c **** LED_TYPE led[RGBLED_NUM];
 103:quantum/rgblight.c **** #    define LED_ARRAY led
 104:quantum/rgblight.c **** #endif
 105:quantum/rgblight.c **** 
 106:quantum/rgblight.c **** #ifdef RGBLIGHT_LAYERS
 107:quantum/rgblight.c **** rgblight_segment_t const *const *rgblight_layers = NULL;
 108:quantum/rgblight.c **** #endif
 109:quantum/rgblight.c **** 
 110:quantum/rgblight.c **** static uint8_t clipping_start_pos = 0;
 111:quantum/rgblight.c **** static uint8_t clipping_num_leds  = RGBLED_NUM;
 112:quantum/rgblight.c **** static uint8_t effect_start_pos   = 0;
 113:quantum/rgblight.c **** static uint8_t effect_end_pos     = RGBLED_NUM;
 114:quantum/rgblight.c **** static uint8_t effect_num_leds    = RGBLED_NUM;
 115:quantum/rgblight.c **** 
 116:quantum/rgblight.c **** void rgblight_set_clipping_range(uint8_t start_pos, uint8_t num_leds) {
 117:quantum/rgblight.c ****     clipping_start_pos = start_pos;
 118:quantum/rgblight.c ****     clipping_num_leds  = num_leds;
 119:quantum/rgblight.c **** }
 120:quantum/rgblight.c **** 
 121:quantum/rgblight.c **** void rgblight_set_effect_range(uint8_t start_pos, uint8_t num_leds) {
 122:quantum/rgblight.c ****     if (start_pos >= RGBLED_NUM) return;
 123:quantum/rgblight.c ****     if (start_pos + num_leds > RGBLED_NUM) return;
 124:quantum/rgblight.c ****     effect_start_pos = start_pos;
 125:quantum/rgblight.c ****     effect_end_pos   = start_pos + num_leds;
 126:quantum/rgblight.c ****     effect_num_leds  = num_leds;
 127:quantum/rgblight.c **** }
 128:quantum/rgblight.c **** 
 129:quantum/rgblight.c **** void sethsv_raw(uint8_t hue, uint8_t sat, uint8_t val, LED_TYPE *led1) {
 130:quantum/rgblight.c ****     HSV hsv = {hue, sat, val};
 131:quantum/rgblight.c ****     RGB rgb = hsv_to_rgb(hsv);
 132:quantum/rgblight.c ****     setrgb(rgb.r, rgb.g, rgb.b, led1);
 133:quantum/rgblight.c **** }
 134:quantum/rgblight.c **** 
 135:quantum/rgblight.c **** void sethsv(uint8_t hue, uint8_t sat, uint8_t val, LED_TYPE *led1) { sethsv_raw(hue, sat, val > RGB
 136:quantum/rgblight.c **** 
 137:quantum/rgblight.c **** void setrgb(uint8_t r, uint8_t g, uint8_t b, LED_TYPE *led1) {
 138:quantum/rgblight.c ****     (*led1).r = r;
 139:quantum/rgblight.c ****     (*led1).g = g;
 140:quantum/rgblight.c ****     (*led1).b = b;
 141:quantum/rgblight.c **** #ifdef RGBW
 142:quantum/rgblight.c ****     (*led1).w = 0;
 143:quantum/rgblight.c **** #endif
 144:quantum/rgblight.c **** }
 145:quantum/rgblight.c **** 
 146:quantum/rgblight.c **** void rgblight_check_config(void) {
 147:quantum/rgblight.c ****     /* Add some out of bound checks for RGB light config */
 148:quantum/rgblight.c **** 
 149:quantum/rgblight.c ****     if (rgblight_config.mode < RGBLIGHT_MODE_STATIC_LIGHT) {
 150:quantum/rgblight.c ****         rgblight_config.mode = RGBLIGHT_MODE_STATIC_LIGHT;
 151:quantum/rgblight.c ****     } else if (rgblight_config.mode > RGBLIGHT_MODES) {
 152:quantum/rgblight.c ****         rgblight_config.mode = RGBLIGHT_MODES;
 153:quantum/rgblight.c ****     }
 154:quantum/rgblight.c **** 
 155:quantum/rgblight.c ****     if (rgblight_config.val > RGBLIGHT_LIMIT_VAL) {
 156:quantum/rgblight.c ****         rgblight_config.val = RGBLIGHT_LIMIT_VAL;
 157:quantum/rgblight.c ****     }
 158:quantum/rgblight.c **** }
 159:quantum/rgblight.c **** 
 160:quantum/rgblight.c **** uint32_t eeconfig_read_rgblight(void) {
 161:quantum/rgblight.c **** #ifdef EEPROM_ENABLE
 162:quantum/rgblight.c ****     return eeprom_read_dword(EECONFIG_RGBLIGHT);
 163:quantum/rgblight.c **** #else
 164:quantum/rgblight.c ****     return 0;
 165:quantum/rgblight.c **** #endif
 166:quantum/rgblight.c **** }
 167:quantum/rgblight.c **** 
 168:quantum/rgblight.c **** void eeconfig_update_rgblight(uint32_t val) {
 169:quantum/rgblight.c **** #ifdef EEPROM_ENABLE
 170:quantum/rgblight.c ****     rgblight_check_config();
 171:quantum/rgblight.c ****     eeprom_update_dword(EECONFIG_RGBLIGHT, val);
 172:quantum/rgblight.c **** #endif
 173:quantum/rgblight.c **** }
 174:quantum/rgblight.c **** 
 175:quantum/rgblight.c **** void eeconfig_update_rgblight_current(void) { eeconfig_update_rgblight(rgblight_config.raw); }
 176:quantum/rgblight.c **** 
 177:quantum/rgblight.c **** void eeconfig_update_rgblight_default(void) {
 178:quantum/rgblight.c ****     rgblight_config.enable = 1;
 179:quantum/rgblight.c ****     rgblight_config.mode   = RGBLIGHT_MODE_STATIC_LIGHT;
 180:quantum/rgblight.c ****     rgblight_config.hue    = 0;
 181:quantum/rgblight.c ****     rgblight_config.sat    = UINT8_MAX;
 182:quantum/rgblight.c ****     rgblight_config.val    = RGBLIGHT_LIMIT_VAL;
 183:quantum/rgblight.c ****     rgblight_config.speed  = 0;
 184:quantum/rgblight.c ****     RGBLIGHT_SPLIT_SET_CHANGE_MODEHSVS;
 185:quantum/rgblight.c ****     eeconfig_update_rgblight(rgblight_config.raw);
 186:quantum/rgblight.c **** }
 187:quantum/rgblight.c **** 
 188:quantum/rgblight.c **** void eeconfig_debug_rgblight(void) {
 189:quantum/rgblight.c ****     dprintf("rgblight_config EEPROM:\n");
 190:quantum/rgblight.c ****     dprintf("rgblight_config.enable = %d\n", rgblight_config.enable);
 191:quantum/rgblight.c ****     dprintf("rghlight_config.mode = %d\n", rgblight_config.mode);
 192:quantum/rgblight.c ****     dprintf("rgblight_config.hue = %d\n", rgblight_config.hue);
 193:quantum/rgblight.c ****     dprintf("rgblight_config.sat = %d\n", rgblight_config.sat);
 194:quantum/rgblight.c ****     dprintf("rgblight_config.val = %d\n", rgblight_config.val);
 195:quantum/rgblight.c ****     dprintf("rgblight_config.speed = %d\n", rgblight_config.speed);
 196:quantum/rgblight.c **** }
 197:quantum/rgblight.c **** 
 198:quantum/rgblight.c **** void rgblight_init(void) {
 199:quantum/rgblight.c ****     /* if already initialized, don't do it again.
 200:quantum/rgblight.c ****        If you must do it again, extern this and set to false, first.
 201:quantum/rgblight.c ****        This is a dirty, dirty hack until proper hooks can be added for keyboard startup. */
 202:quantum/rgblight.c ****     if (is_rgblight_initialized) {
 203:quantum/rgblight.c ****         return;
 204:quantum/rgblight.c ****     }
 205:quantum/rgblight.c **** 
 206:quantum/rgblight.c ****     dprintf("rgblight_init called.\n");
 207:quantum/rgblight.c ****     dprintf("rgblight_init start!\n");
 208:quantum/rgblight.c ****     if (!eeconfig_is_enabled()) {
 209:quantum/rgblight.c ****         dprintf("rgblight_init eeconfig is not enabled.\n");
 210:quantum/rgblight.c ****         eeconfig_init();
 211:quantum/rgblight.c ****         eeconfig_update_rgblight_default();
 212:quantum/rgblight.c ****     }
 213:quantum/rgblight.c ****     rgblight_config.raw = eeconfig_read_rgblight();
 214:quantum/rgblight.c ****     RGBLIGHT_SPLIT_SET_CHANGE_MODEHSVS;
 215:quantum/rgblight.c ****     if (!rgblight_config.mode) {
 216:quantum/rgblight.c ****         dprintf("rgblight_init rgblight_config.mode = 0. Write default values to EEPROM.\n");
 217:quantum/rgblight.c ****         eeconfig_update_rgblight_default();
 218:quantum/rgblight.c ****         rgblight_config.raw = eeconfig_read_rgblight();
 219:quantum/rgblight.c ****     }
 220:quantum/rgblight.c ****     rgblight_check_config();
 221:quantum/rgblight.c **** 
 222:quantum/rgblight.c ****     eeconfig_debug_rgblight();  // display current eeprom values
 223:quantum/rgblight.c **** 
 224:quantum/rgblight.c ****     rgblight_timer_init();  // setup the timer
 225:quantum/rgblight.c **** 
 226:quantum/rgblight.c ****     if (rgblight_config.enable) {
 227:quantum/rgblight.c ****         rgblight_mode_noeeprom(rgblight_config.mode);
 228:quantum/rgblight.c ****     }
 229:quantum/rgblight.c **** 
 230:quantum/rgblight.c ****     is_rgblight_initialized = true;
 231:quantum/rgblight.c **** }
 232:quantum/rgblight.c **** 
 233:quantum/rgblight.c **** uint32_t rgblight_read_dword(void) { return rgblight_config.raw; }
 234:quantum/rgblight.c **** 
 235:quantum/rgblight.c **** void rgblight_update_dword(uint32_t dword) {
 236:quantum/rgblight.c ****     RGBLIGHT_SPLIT_SET_CHANGE_MODEHSVS;
 237:quantum/rgblight.c ****     rgblight_config.raw = dword;
 238:quantum/rgblight.c ****     if (rgblight_config.enable)
 239:quantum/rgblight.c ****         rgblight_mode_noeeprom(rgblight_config.mode);
 240:quantum/rgblight.c ****     else {
 241:quantum/rgblight.c ****         rgblight_timer_disable();
 242:quantum/rgblight.c ****         rgblight_set();
 243:quantum/rgblight.c ****     }
 244:quantum/rgblight.c **** }
 245:quantum/rgblight.c **** 
 246:quantum/rgblight.c **** void rgblight_increase(void) {
 247:quantum/rgblight.c ****     uint8_t mode = 0;
 248:quantum/rgblight.c ****     if (rgblight_config.mode < RGBLIGHT_MODES) {
 249:quantum/rgblight.c ****         mode = rgblight_config.mode + 1;
 250:quantum/rgblight.c ****     }
 251:quantum/rgblight.c ****     rgblight_mode(mode);
 252:quantum/rgblight.c **** }
 253:quantum/rgblight.c **** void rgblight_decrease(void) {
 254:quantum/rgblight.c ****     uint8_t mode = 0;
 255:quantum/rgblight.c ****     // Mode will never be < 1. If it ever is, eeprom needs to be initialized.
 256:quantum/rgblight.c ****     if (rgblight_config.mode > RGBLIGHT_MODE_STATIC_LIGHT) {
 257:quantum/rgblight.c ****         mode = rgblight_config.mode - 1;
 258:quantum/rgblight.c ****     }
 259:quantum/rgblight.c ****     rgblight_mode(mode);
 260:quantum/rgblight.c **** }
 261:quantum/rgblight.c **** void rgblight_step_helper(bool write_to_eeprom) {
 262:quantum/rgblight.c ****     uint8_t mode = 0;
 263:quantum/rgblight.c ****     mode         = rgblight_config.mode + 1;
 264:quantum/rgblight.c ****     if (mode > RGBLIGHT_MODES) {
 265:quantum/rgblight.c ****         mode = 1;
 266:quantum/rgblight.c ****     }
 267:quantum/rgblight.c ****     rgblight_mode_eeprom_helper(mode, write_to_eeprom);
 268:quantum/rgblight.c **** }
 269:quantum/rgblight.c **** void rgblight_step_noeeprom(void) { rgblight_step_helper(false); }
 270:quantum/rgblight.c **** void rgblight_step(void) { rgblight_step_helper(true); }
 271:quantum/rgblight.c **** void rgblight_step_reverse_helper(bool write_to_eeprom) {
 272:quantum/rgblight.c ****     uint8_t mode = 0;
 273:quantum/rgblight.c ****     mode         = rgblight_config.mode - 1;
 274:quantum/rgblight.c ****     if (mode < 1) {
 275:quantum/rgblight.c ****         mode = RGBLIGHT_MODES;
 276:quantum/rgblight.c ****     }
 277:quantum/rgblight.c ****     rgblight_mode_eeprom_helper(mode, write_to_eeprom);
 278:quantum/rgblight.c **** }
 279:quantum/rgblight.c **** void rgblight_step_reverse_noeeprom(void) { rgblight_step_reverse_helper(false); }
 280:quantum/rgblight.c **** void rgblight_step_reverse(void) { rgblight_step_reverse_helper(true); }
 281:quantum/rgblight.c **** 
 282:quantum/rgblight.c **** uint8_t rgblight_get_mode(void) {
 283:quantum/rgblight.c ****     if (!rgblight_config.enable) {
 284:quantum/rgblight.c ****         return false;
 285:quantum/rgblight.c ****     }
 286:quantum/rgblight.c **** 
 287:quantum/rgblight.c ****     return rgblight_config.mode;
 288:quantum/rgblight.c **** }
 289:quantum/rgblight.c **** 
 290:quantum/rgblight.c **** void rgblight_mode_eeprom_helper(uint8_t mode, bool write_to_eeprom) {
 291:quantum/rgblight.c ****     if (!rgblight_config.enable) {
 292:quantum/rgblight.c ****         return;
 293:quantum/rgblight.c ****     }
 294:quantum/rgblight.c ****     if (mode < RGBLIGHT_MODE_STATIC_LIGHT) {
 295:quantum/rgblight.c ****         rgblight_config.mode = RGBLIGHT_MODE_STATIC_LIGHT;
 296:quantum/rgblight.c ****     } else if (mode > RGBLIGHT_MODES) {
 297:quantum/rgblight.c ****         rgblight_config.mode = RGBLIGHT_MODES;
 298:quantum/rgblight.c ****     } else {
 299:quantum/rgblight.c ****         rgblight_config.mode = mode;
 300:quantum/rgblight.c ****     }
 301:quantum/rgblight.c ****     RGBLIGHT_SPLIT_SET_CHANGE_MODE;
 302:quantum/rgblight.c ****     if (write_to_eeprom) {
 303:quantum/rgblight.c ****         eeconfig_update_rgblight(rgblight_config.raw);
 304:quantum/rgblight.c ****         dprintf("rgblight mode [EEPROM]: %u\n", rgblight_config.mode);
 305:quantum/rgblight.c ****     } else {
 306:quantum/rgblight.c ****         dprintf("rgblight mode [NOEEPROM]: %u\n", rgblight_config.mode);
 307:quantum/rgblight.c ****     }
 308:quantum/rgblight.c ****     if (is_static_effect(rgblight_config.mode)) {
 309:quantum/rgblight.c ****         rgblight_timer_disable();
 310:quantum/rgblight.c ****     } else {
 311:quantum/rgblight.c ****         rgblight_timer_enable();
 312:quantum/rgblight.c ****     }
 313:quantum/rgblight.c **** #ifdef RGBLIGHT_USE_TIMER
 314:quantum/rgblight.c ****     animation_status.restart = true;
 315:quantum/rgblight.c **** #endif
 316:quantum/rgblight.c ****     rgblight_sethsv_noeeprom(rgblight_config.hue, rgblight_config.sat, rgblight_config.val);
 317:quantum/rgblight.c **** }
 318:quantum/rgblight.c **** 
 319:quantum/rgblight.c **** void rgblight_mode(uint8_t mode) { rgblight_mode_eeprom_helper(mode, true); }
 320:quantum/rgblight.c **** 
 321:quantum/rgblight.c **** void rgblight_mode_noeeprom(uint8_t mode) { rgblight_mode_eeprom_helper(mode, false); }
 322:quantum/rgblight.c **** 
 323:quantum/rgblight.c **** void rgblight_toggle(void) {
 324:quantum/rgblight.c ****     dprintf("rgblight toggle [EEPROM]: rgblight_config.enable = %u\n", !rgblight_config.enable);
 325:quantum/rgblight.c ****     if (rgblight_config.enable) {
 326:quantum/rgblight.c ****         rgblight_disable();
 327:quantum/rgblight.c ****     } else {
 328:quantum/rgblight.c ****         rgblight_enable();
 329:quantum/rgblight.c ****     }
 330:quantum/rgblight.c **** }
 331:quantum/rgblight.c **** 
 332:quantum/rgblight.c **** void rgblight_toggle_noeeprom(void) {
 333:quantum/rgblight.c ****     dprintf("rgblight toggle [NOEEPROM]: rgblight_config.enable = %u\n", !rgblight_config.enable);
 334:quantum/rgblight.c ****     if (rgblight_config.enable) {
 335:quantum/rgblight.c ****         rgblight_disable_noeeprom();
 336:quantum/rgblight.c ****     } else {
 337:quantum/rgblight.c ****         rgblight_enable_noeeprom();
 338:quantum/rgblight.c ****     }
 339:quantum/rgblight.c **** }
 340:quantum/rgblight.c **** 
 341:quantum/rgblight.c **** void rgblight_enable(void) {
 342:quantum/rgblight.c ****     rgblight_config.enable = 1;
 343:quantum/rgblight.c ****     // No need to update EEPROM here. rgblight_mode() will do that, actually
 344:quantum/rgblight.c ****     // eeconfig_update_rgblight(rgblight_config.raw);
 345:quantum/rgblight.c ****     dprintf("rgblight enable [EEPROM]: rgblight_config.enable = %u\n", rgblight_config.enable);
 346:quantum/rgblight.c ****     rgblight_mode(rgblight_config.mode);
 347:quantum/rgblight.c **** }
 348:quantum/rgblight.c **** 
 349:quantum/rgblight.c **** void rgblight_enable_noeeprom(void) {
 350:quantum/rgblight.c ****     rgblight_config.enable = 1;
 351:quantum/rgblight.c ****     dprintf("rgblight enable [NOEEPROM]: rgblight_config.enable = %u\n", rgblight_config.enable);
 352:quantum/rgblight.c ****     rgblight_mode_noeeprom(rgblight_config.mode);
 353:quantum/rgblight.c **** }
 354:quantum/rgblight.c **** 
 355:quantum/rgblight.c **** void rgblight_disable(void) {
 356:quantum/rgblight.c ****     rgblight_config.enable = 0;
 357:quantum/rgblight.c ****     eeconfig_update_rgblight(rgblight_config.raw);
 358:quantum/rgblight.c ****     dprintf("rgblight disable [EEPROM]: rgblight_config.enable = %u\n", rgblight_config.enable);
 359:quantum/rgblight.c ****     rgblight_timer_disable();
 360:quantum/rgblight.c ****     RGBLIGHT_SPLIT_SET_CHANGE_MODE;
 361:quantum/rgblight.c ****     wait_ms(50);
 362:quantum/rgblight.c ****     rgblight_set();
 363:quantum/rgblight.c **** }
 364:quantum/rgblight.c **** 
 365:quantum/rgblight.c **** void rgblight_disable_noeeprom(void) {
 366:quantum/rgblight.c ****     rgblight_config.enable = 0;
 367:quantum/rgblight.c ****     dprintf("rgblight disable [NOEEPROM]: rgblight_config.enable = %u\n", rgblight_config.enable);
 368:quantum/rgblight.c ****     rgblight_timer_disable();
 369:quantum/rgblight.c ****     RGBLIGHT_SPLIT_SET_CHANGE_MODE;
 370:quantum/rgblight.c ****     wait_ms(50);
 371:quantum/rgblight.c ****     rgblight_set();
 372:quantum/rgblight.c **** }
 373:quantum/rgblight.c **** 
 374:quantum/rgblight.c **** void rgblight_increase_hue_helper(bool write_to_eeprom) {
 375:quantum/rgblight.c ****     uint8_t hue = rgblight_config.hue + RGBLIGHT_HUE_STEP;
 376:quantum/rgblight.c ****     rgblight_sethsv_eeprom_helper(hue, rgblight_config.sat, rgblight_config.val, write_to_eeprom);
 377:quantum/rgblight.c **** }
 378:quantum/rgblight.c **** void rgblight_increase_hue_noeeprom(void) { rgblight_increase_hue_helper(false); }
 379:quantum/rgblight.c **** void rgblight_increase_hue(void) { rgblight_increase_hue_helper(true); }
 380:quantum/rgblight.c **** void rgblight_decrease_hue_helper(bool write_to_eeprom) {
 381:quantum/rgblight.c ****     uint8_t hue = rgblight_config.hue - RGBLIGHT_HUE_STEP;
 382:quantum/rgblight.c ****     rgblight_sethsv_eeprom_helper(hue, rgblight_config.sat, rgblight_config.val, write_to_eeprom);
 383:quantum/rgblight.c **** }
 384:quantum/rgblight.c **** void rgblight_decrease_hue_noeeprom(void) { rgblight_decrease_hue_helper(false); }
 385:quantum/rgblight.c **** void rgblight_decrease_hue(void) { rgblight_decrease_hue_helper(true); }
 386:quantum/rgblight.c **** void rgblight_increase_sat_helper(bool write_to_eeprom) {
 387:quantum/rgblight.c ****     uint8_t sat = qadd8(rgblight_config.sat, RGBLIGHT_SAT_STEP);
 388:quantum/rgblight.c ****     rgblight_sethsv_eeprom_helper(rgblight_config.hue, sat, rgblight_config.val, write_to_eeprom);
 389:quantum/rgblight.c **** }
 390:quantum/rgblight.c **** void rgblight_increase_sat_noeeprom(void) { rgblight_increase_sat_helper(false); }
 391:quantum/rgblight.c **** void rgblight_increase_sat(void) { rgblight_increase_sat_helper(true); }
 392:quantum/rgblight.c **** void rgblight_decrease_sat_helper(bool write_to_eeprom) {
 393:quantum/rgblight.c ****     uint8_t sat = qsub8(rgblight_config.sat, RGBLIGHT_SAT_STEP);
 394:quantum/rgblight.c ****     rgblight_sethsv_eeprom_helper(rgblight_config.hue, sat, rgblight_config.val, write_to_eeprom);
 395:quantum/rgblight.c **** }
 396:quantum/rgblight.c **** void rgblight_decrease_sat_noeeprom(void) { rgblight_decrease_sat_helper(false); }
 397:quantum/rgblight.c **** void rgblight_decrease_sat(void) { rgblight_decrease_sat_helper(true); }
 398:quantum/rgblight.c **** void rgblight_increase_val_helper(bool write_to_eeprom) {
 399:quantum/rgblight.c ****     uint8_t val = qadd8(rgblight_config.val, RGBLIGHT_VAL_STEP);
 400:quantum/rgblight.c ****     rgblight_sethsv_eeprom_helper(rgblight_config.hue, rgblight_config.sat, val, write_to_eeprom);
 401:quantum/rgblight.c **** }
 402:quantum/rgblight.c **** void rgblight_increase_val_noeeprom(void) { rgblight_increase_val_helper(false); }
 403:quantum/rgblight.c **** void rgblight_increase_val(void) { rgblight_increase_val_helper(true); }
 404:quantum/rgblight.c **** void rgblight_decrease_val_helper(bool write_to_eeprom) {
 405:quantum/rgblight.c ****     uint8_t val = qsub8(rgblight_config.val, RGBLIGHT_VAL_STEP);
 406:quantum/rgblight.c ****     rgblight_sethsv_eeprom_helper(rgblight_config.hue, rgblight_config.sat, val, write_to_eeprom);
 407:quantum/rgblight.c **** }
 408:quantum/rgblight.c **** void rgblight_decrease_val_noeeprom(void) { rgblight_decrease_val_helper(false); }
 409:quantum/rgblight.c **** void rgblight_decrease_val(void) { rgblight_decrease_val_helper(true); }
 410:quantum/rgblight.c **** void rgblight_increase_speed(void) {
 411:quantum/rgblight.c ****     if (rgblight_config.speed < 3) rgblight_config.speed++;
 412:quantum/rgblight.c ****     // RGBLIGHT_SPLIT_SET_CHANGE_HSVS; // NEED?
 413:quantum/rgblight.c ****     eeconfig_update_rgblight(rgblight_config.raw);  // EECONFIG needs to be increased to support th
 414:quantum/rgblight.c **** }
 415:quantum/rgblight.c **** 
 416:quantum/rgblight.c **** void rgblight_decrease_speed(void) {
 417:quantum/rgblight.c ****     if (rgblight_config.speed > 0) rgblight_config.speed--;
 418:quantum/rgblight.c ****     // RGBLIGHT_SPLIT_SET_CHANGE_HSVS; // NEED??
 419:quantum/rgblight.c ****     eeconfig_update_rgblight(rgblight_config.raw);  // EECONFIG needs to be increased to support th
 420:quantum/rgblight.c **** }
 421:quantum/rgblight.c **** 
 422:quantum/rgblight.c **** void rgblight_sethsv_noeeprom_old(uint8_t hue, uint8_t sat, uint8_t val) {
 423:quantum/rgblight.c ****     if (rgblight_config.enable) {
 424:quantum/rgblight.c ****         LED_TYPE tmp_led;
 425:quantum/rgblight.c ****         sethsv(hue, sat, val, &tmp_led);
 426:quantum/rgblight.c ****         rgblight_setrgb(tmp_led.r, tmp_led.g, tmp_led.b);
 427:quantum/rgblight.c ****     }
 428:quantum/rgblight.c **** }
 429:quantum/rgblight.c **** 
 430:quantum/rgblight.c **** void rgblight_sethsv_eeprom_helper(uint8_t hue, uint8_t sat, uint8_t val, bool write_to_eeprom) {
 431:quantum/rgblight.c ****     if (rgblight_config.enable) {
 432:quantum/rgblight.c ****         rgblight_status.base_mode = mode_base_table[rgblight_config.mode];
 433:quantum/rgblight.c ****         if (rgblight_config.mode == RGBLIGHT_MODE_STATIC_LIGHT) {
 434:quantum/rgblight.c ****             // same static color
 435:quantum/rgblight.c ****             LED_TYPE tmp_led;
 436:quantum/rgblight.c ****             sethsv(hue, sat, val, &tmp_led);
 437:quantum/rgblight.c ****             rgblight_setrgb(tmp_led.r, tmp_led.g, tmp_led.b);
 438:quantum/rgblight.c ****         } else {
 439:quantum/rgblight.c ****             // all LEDs in same color
 440:quantum/rgblight.c ****             if (1 == 0) {  // dummy
 441:quantum/rgblight.c ****             }
 442:quantum/rgblight.c **** #ifdef RGBLIGHT_EFFECT_BREATHING
 443:quantum/rgblight.c ****             else if (rgblight_status.base_mode == RGBLIGHT_MODE_BREATHING) {
 444:quantum/rgblight.c ****                 // breathing mode, ignore the change of val, use in memory value instead
 445:quantum/rgblight.c ****                 val = rgblight_config.val;
 446:quantum/rgblight.c ****             }
 447:quantum/rgblight.c **** #endif
 448:quantum/rgblight.c **** #ifdef RGBLIGHT_EFFECT_RAINBOW_MOOD
 449:quantum/rgblight.c ****             else if (rgblight_status.base_mode == RGBLIGHT_MODE_RAINBOW_MOOD) {
 450:quantum/rgblight.c ****                 // rainbow mood, ignore the change of hue
 451:quantum/rgblight.c ****                 hue = rgblight_config.hue;
 452:quantum/rgblight.c ****             }
 453:quantum/rgblight.c **** #endif
 454:quantum/rgblight.c **** #ifdef RGBLIGHT_EFFECT_RAINBOW_SWIRL
 455:quantum/rgblight.c ****             else if (rgblight_status.base_mode == RGBLIGHT_MODE_RAINBOW_SWIRL) {
 456:quantum/rgblight.c ****                 // rainbow swirl, ignore the change of hue
 457:quantum/rgblight.c ****                 hue = rgblight_config.hue;
 458:quantum/rgblight.c ****             }
 459:quantum/rgblight.c **** #endif
 460:quantum/rgblight.c **** #ifdef RGBLIGHT_EFFECT_STATIC_GRADIENT
 461:quantum/rgblight.c ****             else if (rgblight_status.base_mode == RGBLIGHT_MODE_STATIC_GRADIENT) {
 462:quantum/rgblight.c ****                 // static gradient
 463:quantum/rgblight.c ****                 uint8_t delta     = rgblight_config.mode - rgblight_status.base_mode;
 464:quantum/rgblight.c ****                 bool    direction = (delta % 2) == 0;
 465:quantum/rgblight.c **** #    ifdef __AVR__
 466:quantum/rgblight.c ****                 // probably due to how pgm_read_word is defined for ARM, but the ARM compiler reall
 467:quantum/rgblight.c ****                 uint8_t range = pgm_read_word(&RGBLED_GRADIENT_RANGES[delta / 2]);
 468:quantum/rgblight.c **** #    else
 469:quantum/rgblight.c ****                 uint8_t range = RGBLED_GRADIENT_RANGES[delta / 2];
 470:quantum/rgblight.c **** #    endif
 471:quantum/rgblight.c ****                 for (uint8_t i = 0; i < effect_num_leds; i++) {
 472:quantum/rgblight.c ****                     uint8_t _hue = ((uint16_t)i * (uint16_t)range) / effect_num_leds;
 473:quantum/rgblight.c ****                     if (direction) {
 474:quantum/rgblight.c ****                         _hue = hue + _hue;
 475:quantum/rgblight.c ****                     } else {
 476:quantum/rgblight.c ****                         _hue = hue - _hue;
 477:quantum/rgblight.c ****                     }
 478:quantum/rgblight.c ****                     dprintf("rgblight rainbow set hsv: %d,%d,%d,%u\n", i, _hue, direction, range);
 479:quantum/rgblight.c ****                     sethsv(_hue, sat, val, (LED_TYPE *)&led[i + effect_start_pos]);
 480:quantum/rgblight.c ****                 }
 481:quantum/rgblight.c ****                 rgblight_set();
 482:quantum/rgblight.c ****             }
 483:quantum/rgblight.c **** #endif
 484:quantum/rgblight.c ****         }
 485:quantum/rgblight.c **** #ifdef RGBLIGHT_SPLIT
 486:quantum/rgblight.c ****         if (rgblight_config.hue != hue || rgblight_config.sat != sat || rgblight_config.val != val)
 487:quantum/rgblight.c ****             RGBLIGHT_SPLIT_SET_CHANGE_HSVS;
 488:quantum/rgblight.c ****         }
 489:quantum/rgblight.c **** #endif
 490:quantum/rgblight.c ****         rgblight_config.hue = hue;
 491:quantum/rgblight.c ****         rgblight_config.sat = sat;
 492:quantum/rgblight.c ****         rgblight_config.val = val;
 493:quantum/rgblight.c ****         if (write_to_eeprom) {
 494:quantum/rgblight.c ****             eeconfig_update_rgblight(rgblight_config.raw);
 495:quantum/rgblight.c ****             dprintf("rgblight set hsv [EEPROM]: %u,%u,%u\n", rgblight_config.hue, rgblight_config.s
 496:quantum/rgblight.c ****         } else {
 497:quantum/rgblight.c ****             dprintf("rgblight set hsv [NOEEPROM]: %u,%u,%u\n", rgblight_config.hue, rgblight_config
 498:quantum/rgblight.c ****         }
 499:quantum/rgblight.c ****     }
 500:quantum/rgblight.c **** }
 501:quantum/rgblight.c **** 
 502:quantum/rgblight.c **** void rgblight_sethsv(uint8_t hue, uint8_t sat, uint8_t val) { rgblight_sethsv_eeprom_helper(hue, sa
 503:quantum/rgblight.c **** 
 504:quantum/rgblight.c **** void rgblight_sethsv_noeeprom(uint8_t hue, uint8_t sat, uint8_t val) { rgblight_sethsv_eeprom_helpe
 505:quantum/rgblight.c **** 
 506:quantum/rgblight.c **** uint8_t rgblight_get_speed(void) { return rgblight_config.speed; }
 507:quantum/rgblight.c **** 
 508:quantum/rgblight.c **** void rgblight_set_speed_eeprom_helper(uint8_t speed, bool write_to_eeprom) {
 509:quantum/rgblight.c ****     rgblight_config.speed = speed;
 510:quantum/rgblight.c ****     if (write_to_eeprom) {
 511:quantum/rgblight.c ****         eeconfig_update_rgblight(rgblight_config.raw);  // EECONFIG needs to be increased to suppor
 512:quantum/rgblight.c ****         dprintf("rgblight set speed [EEPROM]: %u\n", rgblight_config.speed);
 513:quantum/rgblight.c ****     } else {
 514:quantum/rgblight.c ****         dprintf("rgblight set speed [NOEEPROM]: %u\n", rgblight_config.speed);
 515:quantum/rgblight.c ****     }
 516:quantum/rgblight.c **** }
 517:quantum/rgblight.c **** 
 518:quantum/rgblight.c **** void rgblight_set_speed(uint8_t speed) { rgblight_set_speed_eeprom_helper(speed, true); }
 519:quantum/rgblight.c **** 
 520:quantum/rgblight.c **** void rgblight_set_speed_noeeprom(uint8_t speed) { rgblight_set_speed_eeprom_helper(speed, false); }
 521:quantum/rgblight.c **** 
 522:quantum/rgblight.c **** uint8_t rgblight_get_hue(void) { return rgblight_config.hue; }
 523:quantum/rgblight.c **** 
 524:quantum/rgblight.c **** uint8_t rgblight_get_sat(void) { return rgblight_config.sat; }
 525:quantum/rgblight.c **** 
 526:quantum/rgblight.c **** uint8_t rgblight_get_val(void) { return rgblight_config.val; }
 527:quantum/rgblight.c **** 
 528:quantum/rgblight.c **** void rgblight_setrgb(uint8_t r, uint8_t g, uint8_t b) {
 529:quantum/rgblight.c ****     if (!rgblight_config.enable) {
 530:quantum/rgblight.c ****         return;
 531:quantum/rgblight.c ****     }
 532:quantum/rgblight.c **** 
 533:quantum/rgblight.c ****     for (uint8_t i = effect_start_pos; i < effect_end_pos; i++) {
 534:quantum/rgblight.c ****         led[i].r = r;
 535:quantum/rgblight.c ****         led[i].g = g;
 536:quantum/rgblight.c ****         led[i].b = b;
 537:quantum/rgblight.c **** #ifdef RGBW
 538:quantum/rgblight.c ****         led[i].w = 0;
 539:quantum/rgblight.c **** #endif
 540:quantum/rgblight.c ****     }
 541:quantum/rgblight.c ****     rgblight_set();
 542:quantum/rgblight.c **** }
 543:quantum/rgblight.c **** 
 544:quantum/rgblight.c **** void rgblight_setrgb_at(uint8_t r, uint8_t g, uint8_t b, uint8_t index) {
 545:quantum/rgblight.c ****     if (!rgblight_config.enable || index >= RGBLED_NUM) {
 546:quantum/rgblight.c ****         return;
 547:quantum/rgblight.c ****     }
 548:quantum/rgblight.c **** 
 549:quantum/rgblight.c ****     led[index].r = r;
 550:quantum/rgblight.c ****     led[index].g = g;
 551:quantum/rgblight.c ****     led[index].b = b;
 552:quantum/rgblight.c **** #ifdef RGBW
 553:quantum/rgblight.c ****     led[index].w = 0;
 554:quantum/rgblight.c **** #endif
 555:quantum/rgblight.c ****     rgblight_set();
 556:quantum/rgblight.c **** }
 557:quantum/rgblight.c **** 
 558:quantum/rgblight.c **** void rgblight_sethsv_at(uint8_t hue, uint8_t sat, uint8_t val, uint8_t index) {
 559:quantum/rgblight.c ****     if (!rgblight_config.enable) {
 560:quantum/rgblight.c ****         return;
 561:quantum/rgblight.c ****     }
 562:quantum/rgblight.c **** 
 563:quantum/rgblight.c ****     LED_TYPE tmp_led;
 564:quantum/rgblight.c ****     sethsv(hue, sat, val, &tmp_led);
 565:quantum/rgblight.c ****     rgblight_setrgb_at(tmp_led.r, tmp_led.g, tmp_led.b, index);
 566:quantum/rgblight.c **** }
 567:quantum/rgblight.c **** 
 568:quantum/rgblight.c **** #if defined(RGBLIGHT_EFFECT_BREATHING) || defined(RGBLIGHT_EFFECT_RAINBOW_MOOD) || defined(RGBLIGHT
 569:quantum/rgblight.c **** 
 570:quantum/rgblight.c **** static uint8_t get_interval_time(const uint8_t *default_interval_address, uint8_t velocikey_min, ui
 571:quantum/rgblight.c ****     return
 572:quantum/rgblight.c **** #    ifdef VELOCIKEY_ENABLE
 573:quantum/rgblight.c ****         velocikey_enabled() ? velocikey_match_speed(velocikey_min, velocikey_max) :
 574:quantum/rgblight.c **** #    endif
 575:quantum/rgblight.c ****                             pgm_read_byte(default_interval_address);
 576:quantum/rgblight.c **** }
 577:quantum/rgblight.c **** 
 578:quantum/rgblight.c **** #endif
 579:quantum/rgblight.c **** 
 580:quantum/rgblight.c **** void rgblight_setrgb_range(uint8_t r, uint8_t g, uint8_t b, uint8_t start, uint8_t end) {
 581:quantum/rgblight.c ****     if (!rgblight_config.enable || start < 0 || start >= end || end > RGBLED_NUM) {
 582:quantum/rgblight.c ****         return;
 583:quantum/rgblight.c ****     }
 584:quantum/rgblight.c **** 
 585:quantum/rgblight.c ****     for (uint8_t i = start; i < end; i++) {
 586:quantum/rgblight.c ****         led[i].r = r;
 587:quantum/rgblight.c ****         led[i].g = g;
 588:quantum/rgblight.c ****         led[i].b = b;
 589:quantum/rgblight.c **** #ifdef RGBW
 590:quantum/rgblight.c ****         led[i].w = 0;
 591:quantum/rgblight.c **** #endif
 592:quantum/rgblight.c ****     }
 593:quantum/rgblight.c ****     rgblight_set();
 594:quantum/rgblight.c ****     wait_ms(1);
 595:quantum/rgblight.c **** }
 596:quantum/rgblight.c **** 
 597:quantum/rgblight.c **** void rgblight_sethsv_range(uint8_t hue, uint8_t sat, uint8_t val, uint8_t start, uint8_t end) {
 598:quantum/rgblight.c ****     if (!rgblight_config.enable) {
 599:quantum/rgblight.c ****         return;
 600:quantum/rgblight.c ****     }
 601:quantum/rgblight.c **** 
 602:quantum/rgblight.c ****     LED_TYPE tmp_led;
 603:quantum/rgblight.c ****     sethsv(hue, sat, val, &tmp_led);
 604:quantum/rgblight.c ****     rgblight_setrgb_range(tmp_led.r, tmp_led.g, tmp_led.b, start, end);
 605:quantum/rgblight.c **** }
 606:quantum/rgblight.c **** 
 607:quantum/rgblight.c **** #ifndef RGBLIGHT_SPLIT
 608:quantum/rgblight.c **** void rgblight_setrgb_master(uint8_t r, uint8_t g, uint8_t b) { rgblight_setrgb_range(r, g, b, 0, (u
 609:quantum/rgblight.c **** 
 610:quantum/rgblight.c **** void rgblight_setrgb_slave(uint8_t r, uint8_t g, uint8_t b) { rgblight_setrgb_range(r, g, b, (uint8
 611:quantum/rgblight.c **** 
 612:quantum/rgblight.c **** void rgblight_sethsv_master(uint8_t hue, uint8_t sat, uint8_t val) { rgblight_sethsv_range(hue, sat
 613:quantum/rgblight.c **** 
 614:quantum/rgblight.c **** void rgblight_sethsv_slave(uint8_t hue, uint8_t sat, uint8_t val) { rgblight_sethsv_range(hue, sat,
 615:quantum/rgblight.c **** #endif  // ifndef RGBLIGHT_SPLIT
 616:quantum/rgblight.c **** 
 617:quantum/rgblight.c **** #ifdef RGBLIGHT_LAYERS
 618:quantum/rgblight.c **** void rgblight_set_layer_state(uint8_t layer, bool enabled) {
 619:quantum/rgblight.c ****     uint8_t mask = 1 << layer;
 620:quantum/rgblight.c ****     if (enabled) {
 621:quantum/rgblight.c ****         rgblight_status.enabled_layer_mask |= mask;
 622:quantum/rgblight.c ****     } else {
 623:quantum/rgblight.c ****         rgblight_status.enabled_layer_mask &= ~mask;
 624:quantum/rgblight.c ****     }
 625:quantum/rgblight.c ****     RGBLIGHT_SPLIT_SET_CHANGE_LAYERS;
 626:quantum/rgblight.c ****     // Static modes don't have a ticker running to update the LEDs
 627:quantum/rgblight.c ****     if (rgblight_status.timer_enabled == false) {
 628:quantum/rgblight.c ****         rgblight_mode_noeeprom(rgblight_config.mode);
 629:quantum/rgblight.c ****     }
 630:quantum/rgblight.c **** }
 631:quantum/rgblight.c **** 
 632:quantum/rgblight.c **** bool rgblight_get_layer_state(uint8_t layer) {
 633:quantum/rgblight.c ****     uint8_t mask = 1 << layer;
 634:quantum/rgblight.c ****     return (rgblight_status.enabled_layer_mask & mask) != 0;
 635:quantum/rgblight.c **** }
 636:quantum/rgblight.c **** 
 637:quantum/rgblight.c **** // Write any enabled LED layers into the buffer
 638:quantum/rgblight.c **** static void rgblight_layers_write(void) {
 639:quantum/rgblight.c ****     uint8_t i = 0;
 640:quantum/rgblight.c ****     // For each layer
 641:quantum/rgblight.c ****     for (const rgblight_segment_t *const *layer_ptr = rgblight_layers; i < RGBLIGHT_MAX_LAYERS; lay
 642:quantum/rgblight.c ****         if (!rgblight_get_layer_state(i)) {
 643:quantum/rgblight.c ****             continue;  // Layer is disabled
 644:quantum/rgblight.c ****         }
 645:quantum/rgblight.c ****         const rgblight_segment_t *segment_ptr = pgm_read_ptr(layer_ptr);
 646:quantum/rgblight.c ****         if (segment_ptr == NULL) {
 647:quantum/rgblight.c ****             break;  // No more layers
 648:quantum/rgblight.c ****         }
 649:quantum/rgblight.c ****         // For each segment
 650:quantum/rgblight.c ****         while (1) {
 651:quantum/rgblight.c ****             rgblight_segment_t segment;
 652:quantum/rgblight.c ****             memcpy_P(&segment, segment_ptr, sizeof(rgblight_segment_t));
 653:quantum/rgblight.c ****             if (segment.index == RGBLIGHT_END_SEGMENT_INDEX) {
 654:quantum/rgblight.c ****                 break;  // No more segments
 655:quantum/rgblight.c ****             }
 656:quantum/rgblight.c ****             // Write segment.count LEDs
 657:quantum/rgblight.c ****             LED_TYPE *const limit = &led[MIN(segment.index + segment.count, RGBLED_NUM)];
 658:quantum/rgblight.c ****             for (LED_TYPE *led_ptr = &led[segment.index]; led_ptr < limit; led_ptr++) {
 659:quantum/rgblight.c ****                 sethsv(segment.hue, segment.sat, segment.val, led_ptr);
 660:quantum/rgblight.c ****             }
 661:quantum/rgblight.c ****             segment_ptr++;
 662:quantum/rgblight.c ****         }
 663:quantum/rgblight.c ****     }
 664:quantum/rgblight.c **** }
 665:quantum/rgblight.c **** #endif
 666:quantum/rgblight.c **** 
 667:quantum/rgblight.c **** #ifndef RGBLIGHT_CUSTOM_DRIVER
 668:quantum/rgblight.c **** void rgblight_set(void) {
 669:quantum/rgblight.c ****     LED_TYPE *start_led;
 670:quantum/rgblight.c ****     uint16_t  num_leds = clipping_num_leds;
 671:quantum/rgblight.c **** 
 672:quantum/rgblight.c **** #    ifdef RGBLIGHT_LAYERS
 673:quantum/rgblight.c ****     if (rgblight_layers != NULL) {
 674:quantum/rgblight.c ****         rgblight_layers_write();
 675:quantum/rgblight.c ****     }
 676:quantum/rgblight.c **** #    endif
 677:quantum/rgblight.c **** 
 678:quantum/rgblight.c ****     if (!rgblight_config.enable) {
 679:quantum/rgblight.c ****         for (uint8_t i = effect_start_pos; i < effect_end_pos; i++) {
 680:quantum/rgblight.c ****             led[i].r = 0;
 681:quantum/rgblight.c ****             led[i].g = 0;
 682:quantum/rgblight.c ****             led[i].b = 0;
 683:quantum/rgblight.c **** #    ifdef RGBW
 684:quantum/rgblight.c ****             led[i].w = 0;
 685:quantum/rgblight.c **** #    endif
 686:quantum/rgblight.c ****         }
 687:quantum/rgblight.c ****     }
 688:quantum/rgblight.c **** 
 689:quantum/rgblight.c **** #    ifdef RGBLIGHT_LED_MAP
 690:quantum/rgblight.c ****     LED_TYPE led0[RGBLED_NUM];
 691:quantum/rgblight.c ****     for (uint8_t i = 0; i < RGBLED_NUM; i++) {
 692:quantum/rgblight.c ****         led0[i] = led[pgm_read_byte(&led_map[i])];
 693:quantum/rgblight.c ****     }
 694:quantum/rgblight.c ****     start_led = led0 + clipping_start_pos;
 695:quantum/rgblight.c **** #    else
 696:quantum/rgblight.c ****     start_led = led + clipping_start_pos;
 697:quantum/rgblight.c **** #    endif
 698:quantum/rgblight.c **** 
 699:quantum/rgblight.c **** #    ifdef RGBW
 700:quantum/rgblight.c ****     for (uint8_t i = 0; i < num_leds; i++) {
 701:quantum/rgblight.c ****         convert_rgb_to_rgbw(&start_led[i]);
 702:quantum/rgblight.c ****     }
 703:quantum/rgblight.c **** #    endif
 704:quantum/rgblight.c ****     ws2812_setleds(start_led, num_leds);
 705:quantum/rgblight.c **** }
 706:quantum/rgblight.c **** #endif
 707:quantum/rgblight.c **** 
 708:quantum/rgblight.c **** #ifdef RGBLIGHT_SPLIT
 709:quantum/rgblight.c **** /* for split keyboard master side */
 710:quantum/rgblight.c **** uint8_t rgblight_get_change_flags(void) { return rgblight_status.change_flags; }
 711:quantum/rgblight.c **** 
 712:quantum/rgblight.c **** void rgblight_clear_change_flags(void) { rgblight_status.change_flags = 0; }
 713:quantum/rgblight.c **** 
 714:quantum/rgblight.c **** void rgblight_get_syncinfo(rgblight_syncinfo_t *syncinfo) {
 715:quantum/rgblight.c ****     syncinfo->config = rgblight_config;
 716:quantum/rgblight.c ****     syncinfo->status = rgblight_status;
 717:quantum/rgblight.c **** }
 718:quantum/rgblight.c **** 
 719:quantum/rgblight.c **** /* for split keyboard slave side */
 720:quantum/rgblight.c **** void rgblight_update_sync(rgblight_syncinfo_t *syncinfo, bool write_to_eeprom) {
 721:quantum/rgblight.c **** #    ifdef RGBLIGHT_LAYERS
 722:quantum/rgblight.c ****     if (syncinfo->status.change_flags & RGBLIGHT_STATUS_CHANGE_LAYERS) {
 723:quantum/rgblight.c ****         rgblight_status.enabled_layer_mask = syncinfo->status.enabled_layer_mask;
 724:quantum/rgblight.c ****     }
 725:quantum/rgblight.c **** #    endif
 726:quantum/rgblight.c ****     if (syncinfo->status.change_flags & RGBLIGHT_STATUS_CHANGE_MODE) {
 727:quantum/rgblight.c ****         if (syncinfo->config.enable) {
 728:quantum/rgblight.c ****             rgblight_config.enable = 1;  // == rgblight_enable_noeeprom();
 729:quantum/rgblight.c ****             rgblight_mode_eeprom_helper(syncinfo->config.mode, write_to_eeprom);
 730:quantum/rgblight.c ****         } else {
 731:quantum/rgblight.c ****             rgblight_disable_noeeprom();
 732:quantum/rgblight.c ****         }
 733:quantum/rgblight.c ****     }
 734:quantum/rgblight.c ****     if (syncinfo->status.change_flags & RGBLIGHT_STATUS_CHANGE_HSVS) {
 735:quantum/rgblight.c ****         rgblight_sethsv_eeprom_helper(syncinfo->config.hue, syncinfo->config.sat, syncinfo->config.
 736:quantum/rgblight.c ****         // rgblight_config.speed = config->speed; // NEED???
 737:quantum/rgblight.c ****     }
 738:quantum/rgblight.c **** #    ifdef RGBLIGHT_USE_TIMER
 739:quantum/rgblight.c ****     if (syncinfo->status.change_flags & RGBLIGHT_STATUS_CHANGE_TIMER) {
 740:quantum/rgblight.c ****         if (syncinfo->status.timer_enabled) {
 741:quantum/rgblight.c ****             rgblight_timer_enable();
 742:quantum/rgblight.c ****         } else {
 743:quantum/rgblight.c ****             rgblight_timer_disable();
 744:quantum/rgblight.c ****         }
 745:quantum/rgblight.c ****     }
 746:quantum/rgblight.c **** #        ifndef RGBLIGHT_SPLIT_NO_ANIMATION_SYNC
 747:quantum/rgblight.c ****     if (syncinfo->status.change_flags & RGBLIGHT_STATUS_ANIMATION_TICK) {
 748:quantum/rgblight.c ****         animation_status.restart = true;
 749:quantum/rgblight.c ****     }
 750:quantum/rgblight.c **** #        endif /* RGBLIGHT_SPLIT_NO_ANIMATION_SYNC */
 751:quantum/rgblight.c **** #    endif     /* RGBLIGHT_USE_TIMER */
 752:quantum/rgblight.c **** }
 753:quantum/rgblight.c **** #endif /* RGBLIGHT_SPLIT */
 754:quantum/rgblight.c **** 
 755:quantum/rgblight.c **** #ifdef RGBLIGHT_USE_TIMER
 756:quantum/rgblight.c **** 
 757:quantum/rgblight.c **** typedef void (*effect_func_t)(animation_status_t *anim);
 758:quantum/rgblight.c **** 
 759:quantum/rgblight.c **** // Animation timer -- use system timer (AVR Timer0)
 760:quantum/rgblight.c **** void rgblight_timer_init(void) {
 761:quantum/rgblight.c ****     // OLD!!!! Animation timer -- AVR Timer3
 762:quantum/rgblight.c ****     // static uint8_t rgblight_timer_is_init = 0;
 763:quantum/rgblight.c ****     // if (rgblight_timer_is_init) {
 764:quantum/rgblight.c ****     //   return;
 765:quantum/rgblight.c ****     // }
 766:quantum/rgblight.c ****     // rgblight_timer_is_init = 1;
 767:quantum/rgblight.c ****     // /* Timer 3 setup */
 768:quantum/rgblight.c ****     // TCCR3B = _BV(WGM32) // CTC mode OCR3A as TOP
 769:quantum/rgblight.c ****     //       | _BV(CS30); // Clock selelct: clk/1
 770:quantum/rgblight.c ****     // /* Set TOP value */
 771:quantum/rgblight.c ****     // uint8_t sreg = SREG;
 772:quantum/rgblight.c ****     // cli();
 773:quantum/rgblight.c ****     // OCR3AH = (RGBLED_TIMER_TOP >> 8) & 0xff;
 774:quantum/rgblight.c ****     // OCR3AL = RGBLED_TIMER_TOP & 0xff;
 775:quantum/rgblight.c ****     // SREG = sreg;
 776:quantum/rgblight.c **** 
 777:quantum/rgblight.c ****     rgblight_status.timer_enabled = false;
 778:quantum/rgblight.c ****     RGBLIGHT_SPLIT_SET_CHANGE_TIMER_ENABLE;
 779:quantum/rgblight.c **** }
 780:quantum/rgblight.c **** void rgblight_timer_enable(void) {
 781:quantum/rgblight.c ****     if (!is_static_effect(rgblight_config.mode)) {
 782:quantum/rgblight.c ****         rgblight_status.timer_enabled = true;
 783:quantum/rgblight.c ****     }
 784:quantum/rgblight.c ****     animation_status.last_timer = timer_read();
 785:quantum/rgblight.c ****     RGBLIGHT_SPLIT_SET_CHANGE_TIMER_ENABLE;
 786:quantum/rgblight.c ****     dprintf("rgblight timer enabled.\n");
 787:quantum/rgblight.c **** }
 788:quantum/rgblight.c **** void rgblight_timer_disable(void) {
 789:quantum/rgblight.c ****     rgblight_status.timer_enabled = false;
 790:quantum/rgblight.c ****     RGBLIGHT_SPLIT_SET_CHANGE_TIMER_ENABLE;
 791:quantum/rgblight.c ****     dprintf("rgblight timer disable.\n");
 792:quantum/rgblight.c **** }
 793:quantum/rgblight.c **** void rgblight_timer_toggle(void) {
 794:quantum/rgblight.c ****     dprintf("rgblight timer toggle.\n");
 795:quantum/rgblight.c ****     if (rgblight_status.timer_enabled) {
 796:quantum/rgblight.c ****         rgblight_timer_disable();
 797:quantum/rgblight.c ****     } else {
 798:quantum/rgblight.c ****         rgblight_timer_enable();
 799:quantum/rgblight.c ****     }
 800:quantum/rgblight.c **** }
 801:quantum/rgblight.c **** 
 802:quantum/rgblight.c **** void rgblight_show_solid_color(uint8_t r, uint8_t g, uint8_t b) {
 803:quantum/rgblight.c ****     rgblight_enable();
 804:quantum/rgblight.c ****     rgblight_mode(RGBLIGHT_MODE_STATIC_LIGHT);
 805:quantum/rgblight.c ****     rgblight_setrgb(r, g, b);
 806:quantum/rgblight.c **** }
 807:quantum/rgblight.c **** 
 808:quantum/rgblight.c **** static void rgblight_effect_dummy(animation_status_t *anim) {
  27              		.loc 1 808 61 view -0
  28              		.cfi_startproc
  29              		@ args = 0, pretend = 0, frame = 0
  30              		@ frame_needed = 0, uses_anonymous_args = 0
  31              		@ link register save eliminated.
 809:quantum/rgblight.c ****     // do nothing
 810:quantum/rgblight.c ****     /********
 811:quantum/rgblight.c ****     dprintf("rgblight_task() what happened?\n");
 812:quantum/rgblight.c ****     dprintf("is_static_effect %d\n", is_static_effect(rgblight_config.mode));
 813:quantum/rgblight.c ****     dprintf("mode = %d, base_mode = %d, timer_enabled %d, ",
 814:quantum/rgblight.c ****             rgblight_config.mode, rgblight_status.base_mode,
 815:quantum/rgblight.c ****             rgblight_status.timer_enabled);
 816:quantum/rgblight.c ****     dprintf("last_timer = %d\n",anim->last_timer);
 817:quantum/rgblight.c ****     **/
 818:quantum/rgblight.c **** }
  32              		.loc 1 818 1 view .LVU1
  33              		@ sp needed
  34 0000 7047     		bx	lr
  35              		.cfi_endproc
  36              	.LFE338:
  38              		.section	.text.rgblight_set_clipping_range,"ax",%progbits
  39              		.align	1
  40              		.global	rgblight_set_clipping_range
  41              		.syntax unified
  42              		.code	16
  43              		.thumb_func
  44              		.fpu softvfp
  46              	rgblight_set_clipping_range:
  47              	.LVL1:
  48              	.LFB259:
 116:quantum/rgblight.c ****     clipping_start_pos = start_pos;
  49              		.loc 1 116 71 view -0
  50              		.cfi_startproc
  51              		@ args = 0, pretend = 0, frame = 0
  52              		@ frame_needed = 0, uses_anonymous_args = 0
  53              		@ link register save eliminated.
 117:quantum/rgblight.c ****     clipping_num_leds  = num_leds;
  54              		.loc 1 117 5 view .LVU3
 117:quantum/rgblight.c ****     clipping_num_leds  = num_leds;
  55              		.loc 1 117 24 is_stmt 0 view .LVU4
  56 0000 024B     		ldr	r3, .L3
 119:quantum/rgblight.c **** 
  57              		.loc 1 119 1 view .LVU5
  58              		@ sp needed
 117:quantum/rgblight.c ****     clipping_num_leds  = num_leds;
  59              		.loc 1 117 24 view .LVU6
  60 0002 1870     		strb	r0, [r3]
 118:quantum/rgblight.c **** }
  61              		.loc 1 118 5 is_stmt 1 view .LVU7
 118:quantum/rgblight.c **** }
  62              		.loc 1 118 24 is_stmt 0 view .LVU8
  63 0004 024B     		ldr	r3, .L3+4
  64 0006 1970     		strb	r1, [r3]
 119:quantum/rgblight.c **** 
  65              		.loc 1 119 1 view .LVU9
  66 0008 7047     		bx	lr
  67              	.L4:
  68 000a C046     		.align	2
  69              	.L3:
  70 000c 00000000 		.word	.LANCHOR0
  71 0010 00000000 		.word	.LANCHOR1
  72              		.cfi_endproc
  73              	.LFE259:
  75              		.section	.text.rgblight_set_effect_range,"ax",%progbits
  76              		.align	1
  77              		.global	rgblight_set_effect_range
  78              		.syntax unified
  79              		.code	16
  80              		.thumb_func
  81              		.fpu softvfp
  83              	rgblight_set_effect_range:
  84              	.LVL2:
  85              	.LFB260:
 121:quantum/rgblight.c ****     if (start_pos >= RGBLED_NUM) return;
  86              		.loc 1 121 69 is_stmt 1 view -0
  87              		.cfi_startproc
  88              		@ args = 0, pretend = 0, frame = 0
  89              		@ frame_needed = 0, uses_anonymous_args = 0
  90              		@ link register save eliminated.
 122:quantum/rgblight.c ****     if (start_pos + num_leds > RGBLED_NUM) return;
  91              		.loc 1 122 5 view .LVU11
 122:quantum/rgblight.c ****     if (start_pos + num_leds > RGBLED_NUM) return;
  92              		.loc 1 122 8 is_stmt 0 view .LVU12
  93 0000 0D28     		cmp	r0, #13
  94 0002 08D8     		bhi	.L5
 123:quantum/rgblight.c ****     effect_start_pos = start_pos;
  95              		.loc 1 123 5 is_stmt 1 view .LVU13
 123:quantum/rgblight.c ****     effect_start_pos = start_pos;
  96              		.loc 1 123 19 is_stmt 0 view .LVU14
  97 0004 4318     		adds	r3, r0, r1
 123:quantum/rgblight.c ****     effect_start_pos = start_pos;
  98              		.loc 1 123 8 view .LVU15
  99 0006 0E2B     		cmp	r3, #14
 100 0008 05DC     		bgt	.L5
 124:quantum/rgblight.c ****     effect_end_pos   = start_pos + num_leds;
 101              		.loc 1 124 5 is_stmt 1 view .LVU16
 124:quantum/rgblight.c ****     effect_end_pos   = start_pos + num_leds;
 102              		.loc 1 124 22 is_stmt 0 view .LVU17
 103 000a 034A     		ldr	r2, .L7
 104 000c 1070     		strb	r0, [r2]
 125:quantum/rgblight.c ****     effect_num_leds  = num_leds;
 105              		.loc 1 125 5 is_stmt 1 view .LVU18
 125:quantum/rgblight.c ****     effect_num_leds  = num_leds;
 106              		.loc 1 125 22 is_stmt 0 view .LVU19
 107 000e 034A     		ldr	r2, .L7+4
 108 0010 1370     		strb	r3, [r2]
 126:quantum/rgblight.c **** }
 109              		.loc 1 126 5 is_stmt 1 view .LVU20
 126:quantum/rgblight.c **** }
 110              		.loc 1 126 22 is_stmt 0 view .LVU21
 111 0012 034B     		ldr	r3, .L7+8
 112 0014 1970     		strb	r1, [r3]
 113              	.L5:
 127:quantum/rgblight.c **** 
 114              		.loc 1 127 1 view .LVU22
 115              		@ sp needed
 116 0016 7047     		bx	lr
 117              	.L8:
 118              		.align	2
 119              	.L7:
 120 0018 00000000 		.word	.LANCHOR2
 121 001c 00000000 		.word	.LANCHOR3
 122 0020 00000000 		.word	.LANCHOR4
 123              		.cfi_endproc
 124              	.LFE260:
 126              		.section	.text.sethsv_raw,"ax",%progbits
 127              		.align	1
 128              		.global	sethsv_raw
 129              		.syntax unified
 130              		.code	16
 131              		.thumb_func
 132              		.fpu softvfp
 134              	sethsv_raw:
 135              	.LVL3:
 136              	.LFB261:
 129:quantum/rgblight.c ****     HSV hsv = {hue, sat, val};
 137              		.loc 1 129 72 is_stmt 1 view -0
 138              		.cfi_startproc
 139              		@ args = 0, pretend = 0, frame = 8
 140              		@ frame_needed = 0, uses_anonymous_args = 0
 130:quantum/rgblight.c ****     RGB rgb = hsv_to_rgb(hsv);
 141              		.loc 1 130 5 view .LVU24
 129:quantum/rgblight.c ****     HSV hsv = {hue, sat, val};
 142              		.loc 1 129 72 is_stmt 0 view .LVU25
 143 0000 13B5     		push	{r0, r1, r4, lr}
 144              		.cfi_def_cfa_offset 16
 145              		.cfi_offset 0, -16
 146              		.cfi_offset 1, -12
 147              		.cfi_offset 4, -8
 148              		.cfi_offset 14, -4
 129:quantum/rgblight.c ****     HSV hsv = {hue, sat, val};
 149              		.loc 1 129 72 view .LVU26
 150 0002 1C00     		movs	r4, r3
 130:quantum/rgblight.c ****     RGB rgb = hsv_to_rgb(hsv);
 151              		.loc 1 130 9 view .LVU27
 152 0004 6B46     		mov	r3, sp
 153              	.LVL4:
 130:quantum/rgblight.c ****     RGB rgb = hsv_to_rgb(hsv);
 154              		.loc 1 130 9 view .LVU28
 155 0006 5970     		strb	r1, [r3, #1]
 156 0008 9A70     		strb	r2, [r3, #2]
 131:quantum/rgblight.c ****     setrgb(rgb.r, rgb.g, rgb.b, led1);
 157              		.loc 1 131 5 is_stmt 1 view .LVU29
 130:quantum/rgblight.c ****     RGB rgb = hsv_to_rgb(hsv);
 158              		.loc 1 130 9 is_stmt 0 view .LVU30
 159 000a 1870     		strb	r0, [r3]
 131:quantum/rgblight.c ****     setrgb(rgb.r, rgb.g, rgb.b, led1);
 160              		.loc 1 131 15 view .LVU31
 161 000c 0098     		ldr	r0, [sp]
 162              	.LVL5:
 131:quantum/rgblight.c ****     setrgb(rgb.r, rgb.g, rgb.b, led1);
 163              		.loc 1 131 15 view .LVU32
 164 000e FFF7FEFF 		bl	hsv_to_rgb
 165              	.LVL6:
 132:quantum/rgblight.c **** }
 166              		.loc 1 132 5 is_stmt 1 view .LVU33
 131:quantum/rgblight.c ****     setrgb(rgb.r, rgb.g, rgb.b, led1);
 167              		.loc 1 131 15 is_stmt 0 view .LVU34
 168 0012 0204     		lsls	r2, r0, #16
 169 0014 0302     		lsls	r3, r0, #8
 132:quantum/rgblight.c **** }
 170              		.loc 1 132 5 view .LVU35
 171 0016 1B0E     		lsrs	r3, r3, #24
 172              	.LVL7:
 173              	.LBB67:
 174              	.LBI67:
 137:quantum/rgblight.c ****     (*led1).r = r;
 175              		.loc 1 137 6 is_stmt 1 view .LVU36
 176              	.LBB68:
 138:quantum/rgblight.c ****     (*led1).g = g;
 177              		.loc 1 138 5 view .LVU37
 138:quantum/rgblight.c ****     (*led1).g = g;
 178              		.loc 1 138 15 is_stmt 0 view .LVU38
 179 0018 120E     		lsrs	r2, r2, #24
 180 001a 6270     		strb	r2, [r4, #1]
 139:quantum/rgblight.c ****     (*led1).b = b;
 181              		.loc 1 139 5 is_stmt 1 view .LVU39
 139:quantum/rgblight.c ****     (*led1).b = b;
 182              		.loc 1 139 15 is_stmt 0 view .LVU40
 183 001c 2070     		strb	r0, [r4]
 140:quantum/rgblight.c **** #ifdef RGBW
 184              		.loc 1 140 5 is_stmt 1 view .LVU41
 140:quantum/rgblight.c **** #ifdef RGBW
 185              		.loc 1 140 15 is_stmt 0 view .LVU42
 186 001e A370     		strb	r3, [r4, #2]
 187              	.LVL8:
 140:quantum/rgblight.c **** #ifdef RGBW
 188              		.loc 1 140 15 view .LVU43
 189              	.LBE68:
 190              	.LBE67:
 133:quantum/rgblight.c **** 
 191              		.loc 1 133 1 view .LVU44
 192              		@ sp needed
 193              	.LVL9:
 133:quantum/rgblight.c **** 
 194              		.loc 1 133 1 view .LVU45
 195 0020 13BD     		pop	{r0, r1, r4, pc}
 196              		.cfi_endproc
 197              	.LFE261:
 199              		.section	.text.sethsv,"ax",%progbits
 200              		.align	1
 201              		.global	sethsv
 202              		.syntax unified
 203              		.code	16
 204              		.thumb_func
 205              		.fpu softvfp
 207              	sethsv:
 208              	.LVL10:
 209              	.LFB262:
 135:quantum/rgblight.c **** 
 210              		.loc 1 135 68 is_stmt 1 view -0
 211              		.cfi_startproc
 212              		@ args = 0, pretend = 0, frame = 0
 213              		@ frame_needed = 0, uses_anonymous_args = 0
 135:quantum/rgblight.c **** 
 214              		.loc 1 135 70 view .LVU47
 135:quantum/rgblight.c **** 
 215              		.loc 1 135 68 is_stmt 0 view .LVU48
 216 0000 10B5     		push	{r4, lr}
 217              		.cfi_def_cfa_offset 8
 218              		.cfi_offset 4, -8
 219              		.cfi_offset 14, -4
 135:quantum/rgblight.c **** 
 220              		.loc 1 135 70 view .LVU49
 221 0002 FFF7FEFF 		bl	sethsv_raw
 222              	.LVL11:
 135:quantum/rgblight.c **** 
 223              		.loc 1 135 1 view .LVU50
 224              		@ sp needed
 225 0006 10BD     		pop	{r4, pc}
 226              		.cfi_endproc
 227              	.LFE262:
 229              		.section	.text.setrgb,"ax",%progbits
 230              		.align	1
 231              		.global	setrgb
 232              		.syntax unified
 233              		.code	16
 234              		.thumb_func
 235              		.fpu softvfp
 237              	setrgb:
 238              	.LVL12:
 239              	.LFB263:
 137:quantum/rgblight.c ****     (*led1).r = r;
 240              		.loc 1 137 62 is_stmt 1 view -0
 241              		.cfi_startproc
 242              		@ args = 0, pretend = 0, frame = 0
 243              		@ frame_needed = 0, uses_anonymous_args = 0
 244              		@ link register save eliminated.
 138:quantum/rgblight.c ****     (*led1).g = g;
 245              		.loc 1 138 5 view .LVU52
 138:quantum/rgblight.c ****     (*led1).g = g;
 246              		.loc 1 138 15 is_stmt 0 view .LVU53
 247 0000 5870     		strb	r0, [r3, #1]
 139:quantum/rgblight.c ****     (*led1).b = b;
 248              		.loc 1 139 5 is_stmt 1 view .LVU54
 139:quantum/rgblight.c ****     (*led1).b = b;
 249              		.loc 1 139 15 is_stmt 0 view .LVU55
 250 0002 1970     		strb	r1, [r3]
 140:quantum/rgblight.c **** #ifdef RGBW
 251              		.loc 1 140 5 is_stmt 1 view .LVU56
 140:quantum/rgblight.c **** #ifdef RGBW
 252              		.loc 1 140 15 is_stmt 0 view .LVU57
 253 0004 9A70     		strb	r2, [r3, #2]
 144:quantum/rgblight.c **** 
 254              		.loc 1 144 1 view .LVU58
 255              		@ sp needed
 256 0006 7047     		bx	lr
 257              		.cfi_endproc
 258              	.LFE263:
 260              		.section	.text.rgblight_check_config,"ax",%progbits
 261              		.align	1
 262              		.global	rgblight_check_config
 263              		.syntax unified
 264              		.code	16
 265              		.thumb_func
 266              		.fpu softvfp
 268              	rgblight_check_config:
 269              	.LFB264:
 146:quantum/rgblight.c ****     /* Add some out of bound checks for RGB light config */
 270              		.loc 1 146 34 is_stmt 1 view -0
 271              		.cfi_startproc
 272              		@ args = 0, pretend = 0, frame = 0
 273              		@ frame_needed = 0, uses_anonymous_args = 0
 274              		@ link register save eliminated.
 149:quantum/rgblight.c ****         rgblight_config.mode = RGBLIGHT_MODE_STATIC_LIGHT;
 275              		.loc 1 149 5 view .LVU60
 149:quantum/rgblight.c ****         rgblight_config.mode = RGBLIGHT_MODE_STATIC_LIGHT;
 276              		.loc 1 149 30 is_stmt 0 view .LVU61
 277 0000 074A     		ldr	r2, .L16
 278 0002 0121     		movs	r1, #1
 279 0004 1378     		ldrb	r3, [r2]
 149:quantum/rgblight.c ****         rgblight_config.mode = RGBLIGHT_MODE_STATIC_LIGHT;
 280              		.loc 1 149 8 view .LVU62
 281 0006 1800     		movs	r0, r3
 282 0008 8843     		bics	r0, r1
 283 000a 04D1     		bne	.L13
 150:quantum/rgblight.c ****     } else if (rgblight_config.mode > RGBLIGHT_MODES) {
 284              		.loc 1 150 9 is_stmt 1 view .LVU63
 150:quantum/rgblight.c ****     } else if (rgblight_config.mode > RGBLIGHT_MODES) {
 285              		.loc 1 150 30 is_stmt 0 view .LVU64
 286 000c 0B40     		ands	r3, r1
 287 000e 4918     		adds	r1, r1, r1
 288              	.L15:
 289              	.LBB71:
 290              	.LBB72:
 152:quantum/rgblight.c ****     }
 291              		.loc 1 152 30 view .LVU65
 292 0010 0B43     		orrs	r3, r1
 293 0012 1370     		strb	r3, [r2]
 294              	.LBE72:
 295              	.LBE71:
 155:quantum/rgblight.c ****         rgblight_config.val = RGBLIGHT_LIMIT_VAL;
 296              		.loc 1 155 5 is_stmt 1 view .LVU66
 297              	.L12:
 158:quantum/rgblight.c **** 
 298              		.loc 1 158 1 is_stmt 0 view .LVU67
 299              		@ sp needed
 300 0014 7047     		bx	lr
 301              	.L13:
 302              	.LBB74:
 303              	.LBI71:
 146:quantum/rgblight.c ****     /* Add some out of bound checks for RGB light config */
 304              		.loc 1 146 6 is_stmt 1 view .LVU68
 305              	.LBB73:
 151:quantum/rgblight.c ****         rgblight_config.mode = RGBLIGHT_MODES;
 306              		.loc 1 151 12 view .LVU69
 151:quantum/rgblight.c ****         rgblight_config.mode = RGBLIGHT_MODES;
 307              		.loc 1 151 15 is_stmt 0 view .LVU70
 308 0016 492B     		cmp	r3, #73
 309 0018 FCD9     		bls	.L12
 152:quantum/rgblight.c ****     }
 310              		.loc 1 152 9 is_stmt 1 view .LVU71
 152:quantum/rgblight.c ****     }
 311              		.loc 1 152 30 is_stmt 0 view .LVU72
 312 001a 0B40     		ands	r3, r1
 313 001c 4821     		movs	r1, #72
 314 001e F7E7     		b	.L15
 315              	.L17:
 316              		.align	2
 317              	.L16:
 318 0020 00000000 		.word	.LANCHOR5
 319              	.LBE73:
 320              	.LBE74:
 321              		.cfi_endproc
 322              	.LFE264:
 324              		.section	.text.eeconfig_read_rgblight,"ax",%progbits
 325              		.align	1
 326              		.global	eeconfig_read_rgblight
 327              		.syntax unified
 328              		.code	16
 329              		.thumb_func
 330              		.fpu softvfp
 332              	eeconfig_read_rgblight:
 333              	.LFB265:
 160:quantum/rgblight.c **** #ifdef EEPROM_ENABLE
 334              		.loc 1 160 39 is_stmt 1 view -0
 335              		.cfi_startproc
 336              		@ args = 0, pretend = 0, frame = 0
 337              		@ frame_needed = 0, uses_anonymous_args = 0
 162:quantum/rgblight.c **** #else
 338              		.loc 1 162 5 view .LVU74
 160:quantum/rgblight.c **** #ifdef EEPROM_ENABLE
 339              		.loc 1 160 39 is_stmt 0 view .LVU75
 340 0000 10B5     		push	{r4, lr}
 341              		.cfi_def_cfa_offset 8
 342              		.cfi_offset 4, -8
 343              		.cfi_offset 14, -4
 162:quantum/rgblight.c **** #else
 344              		.loc 1 162 12 view .LVU76
 345 0002 0820     		movs	r0, #8
 346 0004 FFF7FEFF 		bl	eeprom_read_dword
 347              	.LVL13:
 166:quantum/rgblight.c **** 
 348              		.loc 1 166 1 view .LVU77
 349              		@ sp needed
 350 0008 10BD     		pop	{r4, pc}
 351              		.cfi_endproc
 352              	.LFE265:
 354              		.section	.text.eeconfig_update_rgblight,"ax",%progbits
 355              		.align	1
 356              		.global	eeconfig_update_rgblight
 357              		.syntax unified
 358              		.code	16
 359              		.thumb_func
 360              		.fpu softvfp
 362              	eeconfig_update_rgblight:
 363              	.LVL14:
 364              	.LFB266:
 168:quantum/rgblight.c **** #ifdef EEPROM_ENABLE
 365              		.loc 1 168 45 is_stmt 1 view -0
 366              		.cfi_startproc
 367              		@ args = 0, pretend = 0, frame = 0
 368              		@ frame_needed = 0, uses_anonymous_args = 0
 170:quantum/rgblight.c ****     eeprom_update_dword(EECONFIG_RGBLIGHT, val);
 369              		.loc 1 170 5 view .LVU79
 168:quantum/rgblight.c **** #ifdef EEPROM_ENABLE
 370              		.loc 1 168 45 is_stmt 0 view .LVU80
 371 0000 10B5     		push	{r4, lr}
 372              		.cfi_def_cfa_offset 8
 373              		.cfi_offset 4, -8
 374              		.cfi_offset 14, -4
 168:quantum/rgblight.c **** #ifdef EEPROM_ENABLE
 375              		.loc 1 168 45 view .LVU81
 376 0002 0400     		movs	r4, r0
 170:quantum/rgblight.c ****     eeprom_update_dword(EECONFIG_RGBLIGHT, val);
 377              		.loc 1 170 5 view .LVU82
 378 0004 FFF7FEFF 		bl	rgblight_check_config
 379              	.LVL15:
 171:quantum/rgblight.c **** #endif
 380              		.loc 1 171 5 is_stmt 1 view .LVU83
 381 0008 2100     		movs	r1, r4
 382 000a 0820     		movs	r0, #8
 383 000c FFF7FEFF 		bl	eeprom_update_dword
 384              	.LVL16:
 173:quantum/rgblight.c **** 
 385              		.loc 1 173 1 is_stmt 0 view .LVU84
 386              		@ sp needed
 387              	.LVL17:
 173:quantum/rgblight.c **** 
 388              		.loc 1 173 1 view .LVU85
 389 0010 10BD     		pop	{r4, pc}
 390              		.cfi_endproc
 391              	.LFE266:
 393              		.section	.text.eeconfig_update_rgblight_current,"ax",%progbits
 394              		.align	1
 395              		.global	eeconfig_update_rgblight_current
 396              		.syntax unified
 397              		.code	16
 398              		.thumb_func
 399              		.fpu softvfp
 401              	eeconfig_update_rgblight_current:
 402              	.LFB267:
 175:quantum/rgblight.c **** 
 403              		.loc 1 175 45 is_stmt 1 view -0
 404              		.cfi_startproc
 405              		@ args = 0, pretend = 0, frame = 0
 406              		@ frame_needed = 0, uses_anonymous_args = 0
 175:quantum/rgblight.c **** 
 407              		.loc 1 175 47 view .LVU87
 175:quantum/rgblight.c **** 
 408              		.loc 1 175 45 is_stmt 0 view .LVU88
 409 0000 10B5     		push	{r4, lr}
 410              		.cfi_def_cfa_offset 8
 411              		.cfi_offset 4, -8
 412              		.cfi_offset 14, -4
 175:quantum/rgblight.c **** 
 413              		.loc 1 175 47 view .LVU89
 414 0002 024B     		ldr	r3, .L21
 175:quantum/rgblight.c **** 
 415              		.loc 1 175 1 view .LVU90
 416              		@ sp needed
 175:quantum/rgblight.c **** 
 417              		.loc 1 175 47 view .LVU91
 418 0004 1868     		ldr	r0, [r3]
 419 0006 FFF7FEFF 		bl	eeconfig_update_rgblight
 420              	.LVL18:
 175:quantum/rgblight.c **** 
 421              		.loc 1 175 1 view .LVU92
 422 000a 10BD     		pop	{r4, pc}
 423              	.L22:
 424              		.align	2
 425              	.L21:
 426 000c 00000000 		.word	.LANCHOR5
 427              		.cfi_endproc
 428              	.LFE267:
 430              		.section	.text.eeconfig_update_rgblight_default,"ax",%progbits
 431              		.align	1
 432              		.global	eeconfig_update_rgblight_default
 433              		.syntax unified
 434              		.code	16
 435              		.thumb_func
 436              		.fpu softvfp
 438              	eeconfig_update_rgblight_default:
 439              	.LFB268:
 177:quantum/rgblight.c ****     rgblight_config.enable = 1;
 440              		.loc 1 177 45 is_stmt 1 view -0
 441              		.cfi_startproc
 442              		@ args = 0, pretend = 0, frame = 0
 443              		@ frame_needed = 0, uses_anonymous_args = 0
 178:quantum/rgblight.c ****     rgblight_config.mode   = RGBLIGHT_MODE_STATIC_LIGHT;
 444              		.loc 1 178 5 view .LVU94
 179:quantum/rgblight.c ****     rgblight_config.hue    = 0;
 445              		.loc 1 179 5 view .LVU95
 180:quantum/rgblight.c ****     rgblight_config.sat    = UINT8_MAX;
 446              		.loc 1 180 5 view .LVU96
 181:quantum/rgblight.c ****     rgblight_config.val    = RGBLIGHT_LIMIT_VAL;
 447              		.loc 1 181 5 view .LVU97
 182:quantum/rgblight.c ****     rgblight_config.speed  = 0;
 448              		.loc 1 182 5 view .LVU98
 183:quantum/rgblight.c ****     RGBLIGHT_SPLIT_SET_CHANGE_MODEHSVS;
 449              		.loc 1 183 5 view .LVU99
 183:quantum/rgblight.c ****     RGBLIGHT_SPLIT_SET_CHANGE_MODEHSVS;
 450              		.loc 1 183 28 is_stmt 0 view .LVU100
 451 0000 0022     		movs	r2, #0
 177:quantum/rgblight.c ****     rgblight_config.enable = 1;
 452              		.loc 1 177 45 view .LVU101
 453 0002 10B5     		push	{r4, lr}
 454              		.cfi_def_cfa_offset 8
 455              		.cfi_offset 4, -8
 456              		.cfi_offset 14, -4
 178:quantum/rgblight.c ****     rgblight_config.mode   = RGBLIGHT_MODE_STATIC_LIGHT;
 457              		.loc 1 178 28 view .LVU102
 458 0004 034B     		ldr	r3, .L24
 459 0006 0448     		ldr	r0, .L24+4
 183:quantum/rgblight.c ****     RGBLIGHT_SPLIT_SET_CHANGE_MODEHSVS;
 460              		.loc 1 183 28 view .LVU103
 461 0008 1A71     		strb	r2, [r3, #4]
 184:quantum/rgblight.c ****     eeconfig_update_rgblight(rgblight_config.raw);
 462              		.loc 1 184 39 is_stmt 1 view .LVU104
 185:quantum/rgblight.c **** }
 463              		.loc 1 185 5 view .LVU105
 178:quantum/rgblight.c ****     rgblight_config.mode   = RGBLIGHT_MODE_STATIC_LIGHT;
 464              		.loc 1 178 28 is_stmt 0 view .LVU106
 465 000a 1860     		str	r0, [r3]
 185:quantum/rgblight.c **** }
 466              		.loc 1 185 5 view .LVU107
 467 000c FFF7FEFF 		bl	eeconfig_update_rgblight
 468              	.LVL19:
 186:quantum/rgblight.c **** 
 469              		.loc 1 186 1 view .LVU108
 470              		@ sp needed
 471 0010 10BD     		pop	{r4, pc}
 472              	.L25:
 473 0012 C046     		.align	2
 474              	.L24:
 475 0014 00000000 		.word	.LANCHOR5
 476 0018 0300FFFF 		.word	-65533
 477              		.cfi_endproc
 478              	.LFE268:
 480              		.section	.text.eeconfig_debug_rgblight,"ax",%progbits
 481              		.align	1
 482              		.global	eeconfig_debug_rgblight
 483              		.syntax unified
 484              		.code	16
 485              		.thumb_func
 486              		.fpu softvfp
 488              	eeconfig_debug_rgblight:
 489              	.LFB269:
 188:quantum/rgblight.c ****     dprintf("rgblight_config EEPROM:\n");
 490              		.loc 1 188 36 is_stmt 1 view -0
 491              		.cfi_startproc
 492              		@ args = 0, pretend = 0, frame = 0
 493              		@ frame_needed = 0, uses_anonymous_args = 0
 189:quantum/rgblight.c ****     dprintf("rgblight_config.enable = %d\n", rgblight_config.enable);
 494              		.loc 1 189 5 view .LVU110
 189:quantum/rgblight.c ****     dprintf("rgblight_config.enable = %d\n", rgblight_config.enable);
 495              		.loc 1 189 5 view .LVU111
 188:quantum/rgblight.c ****     dprintf("rgblight_config EEPROM:\n");
 496              		.loc 1 188 36 is_stmt 0 view .LVU112
 497 0000 70B5     		push	{r4, r5, r6, lr}
 498              		.cfi_def_cfa_offset 16
 499              		.cfi_offset 4, -16
 500              		.cfi_offset 5, -12
 501              		.cfi_offset 6, -8
 502              		.cfi_offset 14, -4
 189:quantum/rgblight.c ****     dprintf("rgblight_config.enable = %d\n", rgblight_config.enable);
 503              		.loc 1 189 5 view .LVU113
 504 0002 0124     		movs	r4, #1
 505 0004 1A4D     		ldr	r5, .L55
 506 0006 2B78     		ldrb	r3, [r5]
 507 0008 2342     		tst	r3, r4
 508 000a 30D0     		beq	.L26
 189:quantum/rgblight.c ****     dprintf("rgblight_config.enable = %d\n", rgblight_config.enable);
 509              		.loc 1 189 5 is_stmt 1 discriminator 1 view .LVU114
 510 000c 1948     		ldr	r0, .L55+4
 511 000e FFF7FEFF 		bl	tfp_printf
 512              	.LVL20:
 190:quantum/rgblight.c ****     dprintf("rghlight_config.mode = %d\n", rgblight_config.mode);
 513              		.loc 1 190 5 discriminator 1 view .LVU115
 190:quantum/rgblight.c ****     dprintf("rghlight_config.mode = %d\n", rgblight_config.mode);
 514              		.loc 1 190 5 discriminator 1 view .LVU116
 515 0012 2B78     		ldrb	r3, [r5]
 516 0014 2342     		tst	r3, r4
 517 0016 2AD0     		beq	.L26
 190:quantum/rgblight.c ****     dprintf("rghlight_config.mode = %d\n", rgblight_config.mode);
 518              		.loc 1 190 5 discriminator 1 view .LVU117
 519 0018 174E     		ldr	r6, .L55+8
 520 001a 1848     		ldr	r0, .L55+12
 521 001c 3178     		ldrb	r1, [r6]
 522 001e C907     		lsls	r1, r1, #31
 523 0020 C90F     		lsrs	r1, r1, #31
 524 0022 FFF7FEFF 		bl	tfp_printf
 525              	.LVL21:
 191:quantum/rgblight.c ****     dprintf("rgblight_config.hue = %d\n", rgblight_config.hue);
 526              		.loc 1 191 5 discriminator 1 view .LVU118
 191:quantum/rgblight.c ****     dprintf("rgblight_config.hue = %d\n", rgblight_config.hue);
 527              		.loc 1 191 5 discriminator 1 view .LVU119
 528 0026 2B78     		ldrb	r3, [r5]
 529 0028 2342     		tst	r3, r4
 530 002a 20D0     		beq	.L26
 191:quantum/rgblight.c ****     dprintf("rgblight_config.hue = %d\n", rgblight_config.hue);
 531              		.loc 1 191 5 discriminator 1 view .LVU120
 532 002c 3178     		ldrb	r1, [r6]
 533 002e 1448     		ldr	r0, .L55+16
 534 0030 E140     		lsrs	r1, r1, r4
 535 0032 FFF7FEFF 		bl	tfp_printf
 536              	.LVL22:
 192:quantum/rgblight.c ****     dprintf("rgblight_config.sat = %d\n", rgblight_config.sat);
 537              		.loc 1 192 5 discriminator 1 view .LVU121
 192:quantum/rgblight.c ****     dprintf("rgblight_config.sat = %d\n", rgblight_config.sat);
 538              		.loc 1 192 5 discriminator 1 view .LVU122
 539 0036 2B78     		ldrb	r3, [r5]
 540 0038 2342     		tst	r3, r4
 541 003a 18D0     		beq	.L26
 192:quantum/rgblight.c ****     dprintf("rgblight_config.sat = %d\n", rgblight_config.sat);
 542              		.loc 1 192 5 discriminator 1 view .LVU123
 543 003c 7178     		ldrb	r1, [r6, #1]
 544 003e 1148     		ldr	r0, .L55+20
 545 0040 FFF7FEFF 		bl	tfp_printf
 546              	.LVL23:
 193:quantum/rgblight.c ****     dprintf("rgblight_config.val = %d\n", rgblight_config.val);
 547              		.loc 1 193 5 discriminator 1 view .LVU124
 193:quantum/rgblight.c ****     dprintf("rgblight_config.val = %d\n", rgblight_config.val);
 548              		.loc 1 193 5 discriminator 1 view .LVU125
 549 0044 2B78     		ldrb	r3, [r5]
 550 0046 2342     		tst	r3, r4
 551 0048 11D0     		beq	.L26
 193:quantum/rgblight.c ****     dprintf("rgblight_config.val = %d\n", rgblight_config.val);
 552              		.loc 1 193 5 discriminator 1 view .LVU126
 553 004a B178     		ldrb	r1, [r6, #2]
 554 004c 0E48     		ldr	r0, .L55+24
 555 004e FFF7FEFF 		bl	tfp_printf
 556              	.LVL24:
 194:quantum/rgblight.c ****     dprintf("rgblight_config.speed = %d\n", rgblight_config.speed);
 557              		.loc 1 194 5 discriminator 1 view .LVU127
 194:quantum/rgblight.c ****     dprintf("rgblight_config.speed = %d\n", rgblight_config.speed);
 558              		.loc 1 194 5 discriminator 1 view .LVU128
 559 0052 2B78     		ldrb	r3, [r5]
 560 0054 2342     		tst	r3, r4
 561 0056 0AD0     		beq	.L26
 194:quantum/rgblight.c ****     dprintf("rgblight_config.speed = %d\n", rgblight_config.speed);
 562              		.loc 1 194 5 discriminator 1 view .LVU129
 563 0058 F178     		ldrb	r1, [r6, #3]
 564 005a 0C48     		ldr	r0, .L55+28
 565 005c FFF7FEFF 		bl	tfp_printf
 566              	.LVL25:
 195:quantum/rgblight.c **** }
 567              		.loc 1 195 5 discriminator 1 view .LVU130
 195:quantum/rgblight.c **** }
 568              		.loc 1 195 5 discriminator 1 view .LVU131
 569 0060 2B78     		ldrb	r3, [r5]
 570 0062 2342     		tst	r3, r4
 571 0064 03D0     		beq	.L26
 195:quantum/rgblight.c **** }
 572              		.loc 1 195 5 discriminator 1 view .LVU132
 573 0066 3179     		ldrb	r1, [r6, #4]
 574 0068 0948     		ldr	r0, .L55+32
 575 006a FFF7FEFF 		bl	tfp_printf
 576              	.LVL26:
 577              	.L26:
 196:quantum/rgblight.c **** 
 578              		.loc 1 196 1 is_stmt 0 view .LVU133
 579              		@ sp needed
 580 006e 70BD     		pop	{r4, r5, r6, pc}
 581              	.L56:
 582              		.align	2
 583              	.L55:
 584 0070 00000000 		.word	debug_config
 585 0074 00000000 		.word	.LC9
 586 0078 00000000 		.word	.LANCHOR5
 587 007c 19000000 		.word	.LC12
 588 0080 36000000 		.word	.LC14
 589 0084 51000000 		.word	.LC16
 590 0088 6B000000 		.word	.LC18
 591 008c 85000000 		.word	.LC20
 592 0090 9F000000 		.word	.LC22
 593              		.cfi_endproc
 594              	.LFE269:
 596              		.section	.text.rgblight_read_dword,"ax",%progbits
 597              		.align	1
 598              		.global	rgblight_read_dword
 599              		.syntax unified
 600              		.code	16
 601              		.thumb_func
 602              		.fpu softvfp
 604              	rgblight_read_dword:
 605              	.LFB271:
 233:quantum/rgblight.c **** 
 606              		.loc 1 233 36 is_stmt 1 view -0
 607              		.cfi_startproc
 608              		@ args = 0, pretend = 0, frame = 0
 609              		@ frame_needed = 0, uses_anonymous_args = 0
 610              		@ link register save eliminated.
 233:quantum/rgblight.c **** 
 611              		.loc 1 233 38 view .LVU135
 233:quantum/rgblight.c **** 
 612              		.loc 1 233 60 is_stmt 0 view .LVU136
 613 0000 014B     		ldr	r3, .L58
 233:quantum/rgblight.c **** 
 614              		.loc 1 233 1 view .LVU137
 615              		@ sp needed
 233:quantum/rgblight.c **** 
 616              		.loc 1 233 60 view .LVU138
 617 0002 1868     		ldr	r0, [r3]
 233:quantum/rgblight.c **** 
 618              		.loc 1 233 1 view .LVU139
 619 0004 7047     		bx	lr
 620              	.L59:
 621 0006 C046     		.align	2
 622              	.L58:
 623 0008 00000000 		.word	.LANCHOR5
 624              		.cfi_endproc
 625              	.LFE271:
 627              		.section	.text.rgblight_get_mode,"ax",%progbits
 628              		.align	1
 629              		.global	rgblight_get_mode
 630              		.syntax unified
 631              		.code	16
 632              		.thumb_func
 633              		.fpu softvfp
 635              	rgblight_get_mode:
 636              	.LFB281:
 282:quantum/rgblight.c ****     if (!rgblight_config.enable) {
 637              		.loc 1 282 33 is_stmt 1 view -0
 638              		.cfi_startproc
 639              		@ args = 0, pretend = 0, frame = 0
 640              		@ frame_needed = 0, uses_anonymous_args = 0
 641              		@ link register save eliminated.
 283:quantum/rgblight.c ****         return false;
 642              		.loc 1 283 5 view .LVU141
 283:quantum/rgblight.c ****         return false;
 643              		.loc 1 283 25 is_stmt 0 view .LVU142
 644 0000 034B     		ldr	r3, .L63
 645 0002 1A78     		ldrb	r2, [r3]
 646 0004 D307     		lsls	r3, r2, #31
 283:quantum/rgblight.c ****         return false;
 647              		.loc 1 283 8 view .LVU143
 648 0006 DB0F     		lsrs	r3, r3, #31
 284:quantum/rgblight.c ****     }
 649              		.loc 1 284 16 view .LVU144
 650 0008 181E     		subs	r0, r3, #0
 283:quantum/rgblight.c ****         return false;
 651              		.loc 1 283 8 view .LVU145
 652 000a 00D0     		beq	.L61
 287:quantum/rgblight.c **** }
 653              		.loc 1 287 5 is_stmt 1 view .LVU146
 287:quantum/rgblight.c **** }
 654              		.loc 1 287 27 is_stmt 0 view .LVU147
 655 000c 5008     		lsrs	r0, r2, #1
 656              	.L61:
 288:quantum/rgblight.c **** 
 657              		.loc 1 288 1 view .LVU148
 658              		@ sp needed
 659 000e 7047     		bx	lr
 660              	.L64:
 661              		.align	2
 662              	.L63:
 663 0010 00000000 		.word	.LANCHOR5
 664              		.cfi_endproc
 665              	.LFE281:
 667              		.section	.text.rgblight_increase_speed,"ax",%progbits
 668              		.align	1
 669              		.global	rgblight_increase_speed
 670              		.syntax unified
 671              		.code	16
 672              		.thumb_func
 673              		.fpu softvfp
 675              	rgblight_increase_speed:
 676              	.LFB309:
 410:quantum/rgblight.c ****     if (rgblight_config.speed < 3) rgblight_config.speed++;
 677              		.loc 1 410 36 is_stmt 1 view -0
 678              		.cfi_startproc
 679              		@ args = 0, pretend = 0, frame = 0
 680              		@ frame_needed = 0, uses_anonymous_args = 0
 411:quantum/rgblight.c ****     // RGBLIGHT_SPLIT_SET_CHANGE_HSVS; // NEED?
 681              		.loc 1 411 5 view .LVU150
 410:quantum/rgblight.c ****     if (rgblight_config.speed < 3) rgblight_config.speed++;
 682              		.loc 1 410 36 is_stmt 0 view .LVU151
 683 0000 10B5     		push	{r4, lr}
 684              		.cfi_def_cfa_offset 8
 685              		.cfi_offset 4, -8
 686              		.cfi_offset 14, -4
 411:quantum/rgblight.c ****     // RGBLIGHT_SPLIT_SET_CHANGE_HSVS; // NEED?
 687              		.loc 1 411 24 view .LVU152
 688 0002 054A     		ldr	r2, .L67
 689 0004 1379     		ldrb	r3, [r2, #4]
 411:quantum/rgblight.c ****     // RGBLIGHT_SPLIT_SET_CHANGE_HSVS; // NEED?
 690              		.loc 1 411 8 view .LVU153
 691 0006 022B     		cmp	r3, #2
 692 0008 01D8     		bhi	.L66
 411:quantum/rgblight.c ****     // RGBLIGHT_SPLIT_SET_CHANGE_HSVS; // NEED?
 693              		.loc 1 411 36 is_stmt 1 discriminator 1 view .LVU154
 411:quantum/rgblight.c ****     // RGBLIGHT_SPLIT_SET_CHANGE_HSVS; // NEED?
 694              		.loc 1 411 57 is_stmt 0 discriminator 1 view .LVU155
 695 000a 0133     		adds	r3, r3, #1
 696 000c 1371     		strb	r3, [r2, #4]
 697              	.L66:
 413:quantum/rgblight.c **** }
 698              		.loc 1 413 5 is_stmt 1 view .LVU156
 699 000e 1068     		ldr	r0, [r2]
 700 0010 FFF7FEFF 		bl	eeconfig_update_rgblight
 701              	.LVL27:
 414:quantum/rgblight.c **** 
 702              		.loc 1 414 1 is_stmt 0 view .LVU157
 703              		@ sp needed
 704 0014 10BD     		pop	{r4, pc}
 705              	.L68:
 706 0016 C046     		.align	2
 707              	.L67:
 708 0018 00000000 		.word	.LANCHOR5
 709              		.cfi_endproc
 710              	.LFE309:
 712              		.section	.text.rgblight_decrease_speed,"ax",%progbits
 713              		.align	1
 714              		.global	rgblight_decrease_speed
 715              		.syntax unified
 716              		.code	16
 717              		.thumb_func
 718              		.fpu softvfp
 720              	rgblight_decrease_speed:
 721              	.LFB310:
 416:quantum/rgblight.c ****     if (rgblight_config.speed > 0) rgblight_config.speed--;
 722              		.loc 1 416 36 is_stmt 1 view -0
 723              		.cfi_startproc
 724              		@ args = 0, pretend = 0, frame = 0
 725              		@ frame_needed = 0, uses_anonymous_args = 0
 417:quantum/rgblight.c ****     // RGBLIGHT_SPLIT_SET_CHANGE_HSVS; // NEED??
 726              		.loc 1 417 5 view .LVU159
 416:quantum/rgblight.c ****     if (rgblight_config.speed > 0) rgblight_config.speed--;
 727              		.loc 1 416 36 is_stmt 0 view .LVU160
 728 0000 10B5     		push	{r4, lr}
 729              		.cfi_def_cfa_offset 8
 730              		.cfi_offset 4, -8
 731              		.cfi_offset 14, -4
 417:quantum/rgblight.c ****     // RGBLIGHT_SPLIT_SET_CHANGE_HSVS; // NEED??
 732              		.loc 1 417 24 view .LVU161
 733 0002 054A     		ldr	r2, .L74
 734 0004 1379     		ldrb	r3, [r2, #4]
 417:quantum/rgblight.c ****     // RGBLIGHT_SPLIT_SET_CHANGE_HSVS; // NEED??
 735              		.loc 1 417 8 view .LVU162
 736 0006 002B     		cmp	r3, #0
 737 0008 01D0     		beq	.L70
 417:quantum/rgblight.c ****     // RGBLIGHT_SPLIT_SET_CHANGE_HSVS; // NEED??
 738              		.loc 1 417 36 is_stmt 1 discriminator 1 view .LVU163
 417:quantum/rgblight.c ****     // RGBLIGHT_SPLIT_SET_CHANGE_HSVS; // NEED??
 739              		.loc 1 417 57 is_stmt 0 discriminator 1 view .LVU164
 740 000a 013B     		subs	r3, r3, #1
 741 000c 1371     		strb	r3, [r2, #4]
 742              	.L70:
 419:quantum/rgblight.c **** }
 743              		.loc 1 419 5 is_stmt 1 view .LVU165
 744 000e 1068     		ldr	r0, [r2]
 745 0010 FFF7FEFF 		bl	eeconfig_update_rgblight
 746              	.LVL28:
 420:quantum/rgblight.c **** 
 747              		.loc 1 420 1 is_stmt 0 view .LVU166
 748              		@ sp needed
 749 0014 10BD     		pop	{r4, pc}
 750              	.L75:
 751 0016 C046     		.align	2
 752              	.L74:
 753 0018 00000000 		.word	.LANCHOR5
 754              		.cfi_endproc
 755              	.LFE310:
 757              		.section	.text.rgblight_get_speed,"ax",%progbits
 758              		.align	1
 759              		.global	rgblight_get_speed
 760              		.syntax unified
 761              		.code	16
 762              		.thumb_func
 763              		.fpu softvfp
 765              	rgblight_get_speed:
 766              	.LFB315:
 506:quantum/rgblight.c **** 
 767              		.loc 1 506 34 is_stmt 1 view -0
 768              		.cfi_startproc
 769              		@ args = 0, pretend = 0, frame = 0
 770              		@ frame_needed = 0, uses_anonymous_args = 0
 771              		@ link register save eliminated.
 506:quantum/rgblight.c **** 
 772              		.loc 1 506 36 view .LVU168
 506:quantum/rgblight.c **** 
 773              		.loc 1 506 58 is_stmt 0 view .LVU169
 774 0000 014B     		ldr	r3, .L77
 506:quantum/rgblight.c **** 
 775              		.loc 1 506 1 view .LVU170
 776              		@ sp needed
 506:quantum/rgblight.c **** 
 777              		.loc 1 506 58 view .LVU171
 778 0002 1879     		ldrb	r0, [r3, #4]
 506:quantum/rgblight.c **** 
 779              		.loc 1 506 1 view .LVU172
 780 0004 7047     		bx	lr
 781              	.L78:
 782 0006 C046     		.align	2
 783              	.L77:
 784 0008 00000000 		.word	.LANCHOR5
 785              		.cfi_endproc
 786              	.LFE315:
 788              		.section	.text.rgblight_set_speed_eeprom_helper,"ax",%progbits
 789              		.align	1
 790              		.global	rgblight_set_speed_eeprom_helper
 791              		.syntax unified
 792              		.code	16
 793              		.thumb_func
 794              		.fpu softvfp
 796              	rgblight_set_speed_eeprom_helper:
 797              	.LVL29:
 798              	.LFB316:
 508:quantum/rgblight.c ****     rgblight_config.speed = speed;
 799              		.loc 1 508 76 is_stmt 1 view -0
 800              		.cfi_startproc
 801              		@ args = 0, pretend = 0, frame = 0
 802              		@ frame_needed = 0, uses_anonymous_args = 0
 509:quantum/rgblight.c ****     if (write_to_eeprom) {
 803              		.loc 1 509 5 view .LVU174
 508:quantum/rgblight.c ****     rgblight_config.speed = speed;
 804              		.loc 1 508 76 is_stmt 0 view .LVU175
 805 0000 70B5     		push	{r4, r5, r6, lr}
 806              		.cfi_def_cfa_offset 16
 807              		.cfi_offset 4, -16
 808              		.cfi_offset 5, -12
 809              		.cfi_offset 6, -8
 810              		.cfi_offset 14, -4
 509:quantum/rgblight.c ****     if (write_to_eeprom) {
 811              		.loc 1 509 27 view .LVU176
 812 0002 0B4C     		ldr	r4, .L88
 813 0004 0B4D     		ldr	r5, .L88+4
 814 0006 2071     		strb	r0, [r4, #4]
 510:quantum/rgblight.c ****         eeconfig_update_rgblight(rgblight_config.raw);  // EECONFIG needs to be increased to suppor
 815              		.loc 1 510 5 is_stmt 1 view .LVU177
 510:quantum/rgblight.c ****         eeconfig_update_rgblight(rgblight_config.raw);  // EECONFIG needs to be increased to suppor
 816              		.loc 1 510 8 is_stmt 0 view .LVU178
 817 0008 0029     		cmp	r1, #0
 818 000a 0AD0     		beq	.L80
 511:quantum/rgblight.c ****         dprintf("rgblight set speed [EEPROM]: %u\n", rgblight_config.speed);
 819              		.loc 1 511 9 is_stmt 1 view .LVU179
 820 000c 2068     		ldr	r0, [r4]
 821              	.LVL30:
 511:quantum/rgblight.c ****         dprintf("rgblight set speed [EEPROM]: %u\n", rgblight_config.speed);
 822              		.loc 1 511 9 is_stmt 0 view .LVU180
 823 000e FFF7FEFF 		bl	eeconfig_update_rgblight
 824              	.LVL31:
 512:quantum/rgblight.c ****     } else {
 825              		.loc 1 512 9 is_stmt 1 view .LVU181
 512:quantum/rgblight.c ****     } else {
 826              		.loc 1 512 9 view .LVU182
 827 0012 2B78     		ldrb	r3, [r5]
 828 0014 DB07     		lsls	r3, r3, #31
 829 0016 03D5     		bpl	.L79
 830              	.LBB77:
 831              	.LBI77:
 508:quantum/rgblight.c ****     rgblight_config.speed = speed;
 832              		.loc 1 508 6 view .LVU183
 833              	.LVL32:
 834              	.LBB78:
 512:quantum/rgblight.c ****     } else {
 835              		.loc 1 512 9 view .LVU184
 836 0018 2179     		ldrb	r1, [r4, #4]
 837 001a 0748     		ldr	r0, .L88+8
 838              	.LVL33:
 839              	.L87:
 512:quantum/rgblight.c ****     } else {
 840              		.loc 1 512 9 is_stmt 0 view .LVU185
 841              	.LBE78:
 842              	.LBE77:
 514:quantum/rgblight.c ****     }
 843              		.loc 1 514 9 discriminator 1 view .LVU186
 844 001c FFF7FEFF 		bl	tfp_printf
 845              	.LVL34:
 846              	.L79:
 516:quantum/rgblight.c **** 
 847              		.loc 1 516 1 view .LVU187
 848              		@ sp needed
 849 0020 70BD     		pop	{r4, r5, r6, pc}
 850              	.LVL35:
 851              	.L80:
 514:quantum/rgblight.c ****     }
 852              		.loc 1 514 9 is_stmt 1 view .LVU188
 514:quantum/rgblight.c ****     }
 853              		.loc 1 514 9 view .LVU189
 854 0022 2B78     		ldrb	r3, [r5]
 855 0024 DB07     		lsls	r3, r3, #31
 856 0026 FBD5     		bpl	.L79
 514:quantum/rgblight.c ****     }
 857              		.loc 1 514 9 discriminator 1 view .LVU190
 858 0028 0100     		movs	r1, r0
 859              	.LVL36:
 514:quantum/rgblight.c ****     }
 860              		.loc 1 514 9 is_stmt 0 discriminator 1 view .LVU191
 861 002a 0448     		ldr	r0, .L88+12
 862              	.LVL37:
 514:quantum/rgblight.c ****     }
 863              		.loc 1 514 9 discriminator 1 view .LVU192
 864 002c F6E7     		b	.L87
 865              	.L89:
 866 002e C046     		.align	2
 867              	.L88:
 868 0030 00000000 		.word	.LANCHOR5
 869 0034 00000000 		.word	debug_config
 870 0038 00000000 		.word	.LC31
 871 003c 21000000 		.word	.LC33
 872              		.cfi_endproc
 873              	.LFE316:
 875              		.section	.text.rgblight_set_speed,"ax",%progbits
 876              		.align	1
 877              		.global	rgblight_set_speed
 878              		.syntax unified
 879              		.code	16
 880              		.thumb_func
 881              		.fpu softvfp
 883              	rgblight_set_speed:
 884              	.LVL38:
 885              	.LFB317:
 518:quantum/rgblight.c **** 
 886              		.loc 1 518 40 is_stmt 1 view -0
 887              		.cfi_startproc
 888              		@ args = 0, pretend = 0, frame = 0
 889              		@ frame_needed = 0, uses_anonymous_args = 0
 518:quantum/rgblight.c **** 
 890              		.loc 1 518 42 view .LVU194
 518:quantum/rgblight.c **** 
 891              		.loc 1 518 40 is_stmt 0 view .LVU195
 892 0000 10B5     		push	{r4, lr}
 893              		.cfi_def_cfa_offset 8
 894              		.cfi_offset 4, -8
 895              		.cfi_offset 14, -4
 518:quantum/rgblight.c **** 
 896              		.loc 1 518 42 view .LVU196
 897 0002 0121     		movs	r1, #1
 898 0004 FFF7FEFF 		bl	rgblight_set_speed_eeprom_helper
 899              	.LVL39:
 518:quantum/rgblight.c **** 
 900              		.loc 1 518 1 view .LVU197
 901              		@ sp needed
 902 0008 10BD     		pop	{r4, pc}
 903              		.cfi_endproc
 904              	.LFE317:
 906              		.section	.text.rgblight_set_speed_noeeprom,"ax",%progbits
 907              		.align	1
 908              		.global	rgblight_set_speed_noeeprom
 909              		.syntax unified
 910              		.code	16
 911              		.thumb_func
 912              		.fpu softvfp
 914              	rgblight_set_speed_noeeprom:
 915              	.LVL40:
 916              	.LFB318:
 520:quantum/rgblight.c **** 
 917              		.loc 1 520 49 is_stmt 1 view -0
 918              		.cfi_startproc
 919              		@ args = 0, pretend = 0, frame = 0
 920              		@ frame_needed = 0, uses_anonymous_args = 0
 520:quantum/rgblight.c **** 
 921              		.loc 1 520 51 view .LVU199
 520:quantum/rgblight.c **** 
 922              		.loc 1 520 49 is_stmt 0 view .LVU200
 923 0000 10B5     		push	{r4, lr}
 924              		.cfi_def_cfa_offset 8
 925              		.cfi_offset 4, -8
 926              		.cfi_offset 14, -4
 520:quantum/rgblight.c **** 
 927              		.loc 1 520 51 view .LVU201
 928 0002 0021     		movs	r1, #0
 929 0004 FFF7FEFF 		bl	rgblight_set_speed_eeprom_helper
 930              	.LVL41:
 520:quantum/rgblight.c **** 
 931              		.loc 1 520 1 view .LVU202
 932              		@ sp needed
 933 0008 10BD     		pop	{r4, pc}
 934              		.cfi_endproc
 935              	.LFE318:
 937              		.section	.text.rgblight_get_hue,"ax",%progbits
 938              		.align	1
 939              		.global	rgblight_get_hue
 940              		.syntax unified
 941              		.code	16
 942              		.thumb_func
 943              		.fpu softvfp
 945              	rgblight_get_hue:
 946              	.LFB319:
 522:quantum/rgblight.c **** 
 947              		.loc 1 522 32 is_stmt 1 view -0
 948              		.cfi_startproc
 949              		@ args = 0, pretend = 0, frame = 0
 950              		@ frame_needed = 0, uses_anonymous_args = 0
 951              		@ link register save eliminated.
 522:quantum/rgblight.c **** 
 952              		.loc 1 522 34 view .LVU204
 522:quantum/rgblight.c **** 
 953              		.loc 1 522 56 is_stmt 0 view .LVU205
 954 0000 014B     		ldr	r3, .L93
 522:quantum/rgblight.c **** 
 955              		.loc 1 522 1 view .LVU206
 956              		@ sp needed
 522:quantum/rgblight.c **** 
 957              		.loc 1 522 56 view .LVU207
 958 0002 5878     		ldrb	r0, [r3, #1]
 522:quantum/rgblight.c **** 
 959              		.loc 1 522 1 view .LVU208
 960 0004 7047     		bx	lr
 961              	.L94:
 962 0006 C046     		.align	2
 963              	.L93:
 964 0008 00000000 		.word	.LANCHOR5
 965              		.cfi_endproc
 966              	.LFE319:
 968              		.section	.text.rgblight_get_sat,"ax",%progbits
 969              		.align	1
 970              		.global	rgblight_get_sat
 971              		.syntax unified
 972              		.code	16
 973              		.thumb_func
 974              		.fpu softvfp
 976              	rgblight_get_sat:
 977              	.LFB320:
 524:quantum/rgblight.c **** 
 978              		.loc 1 524 32 is_stmt 1 view -0
 979              		.cfi_startproc
 980              		@ args = 0, pretend = 0, frame = 0
 981              		@ frame_needed = 0, uses_anonymous_args = 0
 982              		@ link register save eliminated.
 524:quantum/rgblight.c **** 
 983              		.loc 1 524 34 view .LVU210
 524:quantum/rgblight.c **** 
 984              		.loc 1 524 56 is_stmt 0 view .LVU211
 985 0000 014B     		ldr	r3, .L96
 524:quantum/rgblight.c **** 
 986              		.loc 1 524 1 view .LVU212
 987              		@ sp needed
 524:quantum/rgblight.c **** 
 988              		.loc 1 524 56 view .LVU213
 989 0002 9878     		ldrb	r0, [r3, #2]
 524:quantum/rgblight.c **** 
 990              		.loc 1 524 1 view .LVU214
 991 0004 7047     		bx	lr
 992              	.L97:
 993 0006 C046     		.align	2
 994              	.L96:
 995 0008 00000000 		.word	.LANCHOR5
 996              		.cfi_endproc
 997              	.LFE320:
 999              		.section	.text.rgblight_get_val,"ax",%progbits
 1000              		.align	1
 1001              		.global	rgblight_get_val
 1002              		.syntax unified
 1003              		.code	16
 1004              		.thumb_func
 1005              		.fpu softvfp
 1007              	rgblight_get_val:
 1008              	.LFB321:
 526:quantum/rgblight.c **** 
 1009              		.loc 1 526 32 is_stmt 1 view -0
 1010              		.cfi_startproc
 1011              		@ args = 0, pretend = 0, frame = 0
 1012              		@ frame_needed = 0, uses_anonymous_args = 0
 1013              		@ link register save eliminated.
 526:quantum/rgblight.c **** 
 1014              		.loc 1 526 34 view .LVU216
 526:quantum/rgblight.c **** 
 1015              		.loc 1 526 56 is_stmt 0 view .LVU217
 1016 0000 014B     		ldr	r3, .L99
 526:quantum/rgblight.c **** 
 1017              		.loc 1 526 1 view .LVU218
 1018              		@ sp needed
 526:quantum/rgblight.c **** 
 1019              		.loc 1 526 56 view .LVU219
 1020 0002 D878     		ldrb	r0, [r3, #3]
 526:quantum/rgblight.c **** 
 1021              		.loc 1 526 1 view .LVU220
 1022 0004 7047     		bx	lr
 1023              	.L100:
 1024 0006 C046     		.align	2
 1025              	.L99:
 1026 0008 00000000 		.word	.LANCHOR5
 1027              		.cfi_endproc
 1028              	.LFE321:
 1030              		.section	.text.rgblight_set,"ax",%progbits
 1031              		.align	1
 1032              		.global	rgblight_set
 1033              		.syntax unified
 1034              		.code	16
 1035              		.thumb_func
 1036              		.fpu softvfp
 1038              	rgblight_set:
 1039              	.LFB332:
 668:quantum/rgblight.c ****     LED_TYPE *start_led;
 1040              		.loc 1 668 25 is_stmt 1 view -0
 1041              		.cfi_startproc
 1042              		@ args = 0, pretend = 0, frame = 0
 1043              		@ frame_needed = 0, uses_anonymous_args = 0
 669:quantum/rgblight.c ****     uint16_t  num_leds = clipping_num_leds;
 1044              		.loc 1 669 5 view .LVU222
 670:quantum/rgblight.c **** 
 1045              		.loc 1 670 5 view .LVU223
 668:quantum/rgblight.c ****     LED_TYPE *start_led;
 1046              		.loc 1 668 25 is_stmt 0 view .LVU224
 1047 0000 70B5     		push	{r4, r5, r6, lr}
 1048              		.cfi_def_cfa_offset 16
 1049              		.cfi_offset 4, -16
 1050              		.cfi_offset 5, -12
 1051              		.cfi_offset 6, -8
 1052              		.cfi_offset 14, -4
 670:quantum/rgblight.c **** 
 1053              		.loc 1 670 15 view .LVU225
 1054 0002 104B     		ldr	r3, .L107
 1055 0004 104C     		ldr	r4, .L107+4
 1056 0006 1978     		ldrb	r1, [r3]
 1057              	.LVL42:
 678:quantum/rgblight.c ****         for (uint8_t i = effect_start_pos; i < effect_end_pos; i++) {
 1058              		.loc 1 678 5 is_stmt 1 view .LVU226
 678:quantum/rgblight.c ****         for (uint8_t i = effect_start_pos; i < effect_end_pos; i++) {
 1059              		.loc 1 678 25 is_stmt 0 view .LVU227
 1060 0008 104B     		ldr	r3, .L107+8
 1061 000a 1A78     		ldrb	r2, [r3]
 1062 000c D207     		lsls	r2, r2, #31
 678:quantum/rgblight.c ****         for (uint8_t i = effect_start_pos; i < effect_end_pos; i++) {
 1063              		.loc 1 678 8 view .LVU228
 1064 000e D20F     		lsrs	r2, r2, #31
 1065 0010 07D0     		beq	.L102
 1066              	.L105:
 696:quantum/rgblight.c **** #    endif
 1067              		.loc 1 696 5 is_stmt 1 view .LVU229
 1068              	.LVL43:
 704:quantum/rgblight.c **** }
 1069              		.loc 1 704 5 view .LVU230
 696:quantum/rgblight.c **** #    endif
 1070              		.loc 1 696 21 is_stmt 0 view .LVU231
 1071 0012 0320     		movs	r0, #3
 1072 0014 0E4B     		ldr	r3, .L107+12
 705:quantum/rgblight.c **** #endif
 1073              		.loc 1 705 1 view .LVU232
 1074              		@ sp needed
 696:quantum/rgblight.c **** #    endif
 1075              		.loc 1 696 21 view .LVU233
 1076 0016 1B78     		ldrb	r3, [r3]
 1077 0018 5843     		muls	r0, r3
 696:quantum/rgblight.c **** #    endif
 1078              		.loc 1 696 15 view .LVU234
 1079 001a 2018     		adds	r0, r4, r0
 704:quantum/rgblight.c **** }
 1080              		.loc 1 704 5 view .LVU235
 1081 001c FFF7FEFF 		bl	ws2812_setleds
 1082              	.LVL44:
 705:quantum/rgblight.c **** #endif
 1083              		.loc 1 705 1 view .LVU236
 1084 0020 70BD     		pop	{r4, r5, r6, pc}
 1085              	.LVL45:
 1086              	.L102:
 679:quantum/rgblight.c ****             led[i].r = 0;
 1087              		.loc 1 679 9 is_stmt 1 view .LVU237
 1088              	.LBB79:
 679:quantum/rgblight.c ****             led[i].r = 0;
 1089              		.loc 1 679 14 view .LVU238
 679:quantum/rgblight.c ****             led[i].r = 0;
 1090              		.loc 1 679 22 is_stmt 0 view .LVU239
 1091 0022 0C4B     		ldr	r3, .L107+16
 1092 0024 1878     		ldrb	r0, [r3]
 1093              	.LVL46:
 679:quantum/rgblight.c ****             led[i].r = 0;
 1094              		.loc 1 679 46 view .LVU240
 1095 0026 0C4B     		ldr	r3, .L107+20
 1096 0028 1D78     		ldrb	r5, [r3]
 1097 002a 0323     		movs	r3, #3
 1098 002c 4343     		muls	r3, r0
 1099 002e E318     		adds	r3, r4, r3
 1100              	.L103:
 679:quantum/rgblight.c ****             led[i].r = 0;
 1101              		.loc 1 679 9 discriminator 1 view .LVU241
 1102 0030 8542     		cmp	r5, r0
 1103 0032 EED9     		bls	.L105
 680:quantum/rgblight.c ****             led[i].g = 0;
 1104              		.loc 1 680 13 is_stmt 1 discriminator 3 view .LVU242
 679:quantum/rgblight.c ****             led[i].r = 0;
 1105              		.loc 1 679 65 is_stmt 0 discriminator 3 view .LVU243
 1106 0034 0130     		adds	r0, r0, #1
 1107              	.LVL47:
 680:quantum/rgblight.c ****             led[i].g = 0;
 1108              		.loc 1 680 22 discriminator 3 view .LVU244
 1109 0036 5A70     		strb	r2, [r3, #1]
 681:quantum/rgblight.c ****             led[i].b = 0;
 1110              		.loc 1 681 13 is_stmt 1 discriminator 3 view .LVU245
 681:quantum/rgblight.c ****             led[i].b = 0;
 1111              		.loc 1 681 22 is_stmt 0 discriminator 3 view .LVU246
 1112 0038 1A70     		strb	r2, [r3]
 682:quantum/rgblight.c **** #    ifdef RGBW
 1113              		.loc 1 682 13 is_stmt 1 discriminator 3 view .LVU247
 682:quantum/rgblight.c **** #    ifdef RGBW
 1114              		.loc 1 682 22 is_stmt 0 discriminator 3 view .LVU248
 1115 003a 9A70     		strb	r2, [r3, #2]
 679:quantum/rgblight.c ****             led[i].r = 0;
 1116              		.loc 1 679 65 discriminator 3 view .LVU249
 1117 003c C0B2     		uxtb	r0, r0
 1118              	.LVL48:
 679:quantum/rgblight.c ****             led[i].r = 0;
 1119              		.loc 1 679 65 discriminator 3 view .LVU250
 1120 003e 0333     		adds	r3, r3, #3
 1121 0040 F6E7     		b	.L103
 1122              	.L108:
 1123 0042 C046     		.align	2
 1124              	.L107:
 1125 0044 00000000 		.word	.LANCHOR1
 1126 0048 00000000 		.word	.LANCHOR6
 1127 004c 00000000 		.word	.LANCHOR5
 1128 0050 00000000 		.word	.LANCHOR0
 1129 0054 00000000 		.word	.LANCHOR2
 1130 0058 00000000 		.word	.LANCHOR3
 1131              	.LBE79:
 1132              		.cfi_endproc
 1133              	.LFE332:
 1135              		.section	.text.rgblight_setrgb,"ax",%progbits
 1136              		.align	1
 1137              		.global	rgblight_setrgb
 1138              		.syntax unified
 1139              		.code	16
 1140              		.thumb_func
 1141              		.fpu softvfp
 1143              	rgblight_setrgb:
 1144              	.LVL49:
 1145              	.LFB322:
 528:quantum/rgblight.c ****     if (!rgblight_config.enable) {
 1146              		.loc 1 528 55 is_stmt 1 view -0
 1147              		.cfi_startproc
 1148              		@ args = 0, pretend = 0, frame = 0
 1149              		@ frame_needed = 0, uses_anonymous_args = 0
 529:quantum/rgblight.c ****         return;
 1150              		.loc 1 529 5 view .LVU252
 529:quantum/rgblight.c ****         return;
 1151              		.loc 1 529 25 is_stmt 0 view .LVU253
 1152 0000 0C4B     		ldr	r3, .L116
 528:quantum/rgblight.c ****     if (!rgblight_config.enable) {
 1153              		.loc 1 528 55 view .LVU254
 1154 0002 70B5     		push	{r4, r5, r6, lr}
 1155              		.cfi_def_cfa_offset 16
 1156              		.cfi_offset 4, -16
 1157              		.cfi_offset 5, -12
 1158              		.cfi_offset 6, -8
 1159              		.cfi_offset 14, -4
 529:quantum/rgblight.c ****         return;
 1160              		.loc 1 529 25 view .LVU255
 1161 0004 1B78     		ldrb	r3, [r3]
 529:quantum/rgblight.c ****         return;
 1162              		.loc 1 529 8 view .LVU256
 1163 0006 DB07     		lsls	r3, r3, #31
 1164 0008 0BD5     		bpl	.L109
 1165              	.LVL50:
 1166              	.LBB83:
 1167              	.LBI83:
 528:quantum/rgblight.c ****     if (!rgblight_config.enable) {
 1168              		.loc 1 528 6 is_stmt 1 view .LVU257
 1169              	.LBB84:
 533:quantum/rgblight.c ****         led[i].r = r;
 1170              		.loc 1 533 5 view .LVU258
 1171              	.LBB85:
 533:quantum/rgblight.c ****         led[i].r = r;
 1172              		.loc 1 533 10 view .LVU259
 1173 000a 0325     		movs	r5, #3
 533:quantum/rgblight.c ****         led[i].r = r;
 1174              		.loc 1 533 18 is_stmt 0 view .LVU260
 1175 000c 0A4B     		ldr	r3, .L116+4
 1176 000e 1C78     		ldrb	r4, [r3]
 1177              	.LVL51:
 533:quantum/rgblight.c ****         led[i].r = r;
 1178              		.loc 1 533 42 view .LVU261
 1179 0010 0A4B     		ldr	r3, .L116+8
 1180 0012 6543     		muls	r5, r4
 1181 0014 1E78     		ldrb	r6, [r3]
 1182 0016 0A4B     		ldr	r3, .L116+12
 1183 0018 5B19     		adds	r3, r3, r5
 1184              	.L111:
 533:quantum/rgblight.c ****         led[i].r = r;
 1185              		.loc 1 533 5 view .LVU262
 1186 001a B442     		cmp	r4, r6
 1187 001c 02D3     		bcc	.L112
 533:quantum/rgblight.c ****         led[i].r = r;
 1188              		.loc 1 533 5 view .LVU263
 1189              	.LBE85:
 541:quantum/rgblight.c **** }
 1190              		.loc 1 541 5 is_stmt 1 view .LVU264
 1191 001e FFF7FEFF 		bl	rgblight_set
 1192              	.LVL52:
 1193              	.L109:
 541:quantum/rgblight.c **** }
 1194              		.loc 1 541 5 is_stmt 0 view .LVU265
 1195              	.LBE84:
 1196              	.LBE83:
 542:quantum/rgblight.c **** 
 1197              		.loc 1 542 1 view .LVU266
 1198              		@ sp needed
 1199 0022 70BD     		pop	{r4, r5, r6, pc}
 1200              	.LVL53:
 1201              	.L112:
 1202              	.LBB88:
 1203              	.LBB87:
 1204              	.LBB86:
 534:quantum/rgblight.c ****         led[i].g = g;
 1205              		.loc 1 534 9 is_stmt 1 view .LVU267
 533:quantum/rgblight.c ****         led[i].r = r;
 1206              		.loc 1 533 61 is_stmt 0 view .LVU268
 1207 0024 0134     		adds	r4, r4, #1
 1208              	.LVL54:
 534:quantum/rgblight.c ****         led[i].g = g;
 1209              		.loc 1 534 18 view .LVU269
 1210 0026 5870     		strb	r0, [r3, #1]
 535:quantum/rgblight.c ****         led[i].b = b;
 1211              		.loc 1 535 9 is_stmt 1 view .LVU270
 535:quantum/rgblight.c ****         led[i].b = b;
 1212              		.loc 1 535 18 is_stmt 0 view .LVU271
 1213 0028 1970     		strb	r1, [r3]
 536:quantum/rgblight.c **** #ifdef RGBW
 1214              		.loc 1 536 9 is_stmt 1 view .LVU272
 536:quantum/rgblight.c **** #ifdef RGBW
 1215              		.loc 1 536 18 is_stmt 0 view .LVU273
 1216 002a 9A70     		strb	r2, [r3, #2]
 533:quantum/rgblight.c ****         led[i].r = r;
 1217              		.loc 1 533 61 view .LVU274
 1218 002c E4B2     		uxtb	r4, r4
 1219              	.LVL55:
 533:quantum/rgblight.c ****         led[i].r = r;
 1220              		.loc 1 533 61 view .LVU275
 1221 002e 0333     		adds	r3, r3, #3
 1222 0030 F3E7     		b	.L111
 1223              	.L117:
 1224 0032 C046     		.align	2
 1225              	.L116:
 1226 0034 00000000 		.word	.LANCHOR5
 1227 0038 00000000 		.word	.LANCHOR2
 1228 003c 00000000 		.word	.LANCHOR3
 1229 0040 00000000 		.word	.LANCHOR6
 1230              	.LBE86:
 1231              	.LBE87:
 1232              	.LBE88:
 1233              		.cfi_endproc
 1234              	.LFE322:
 1236              		.section	.text.rgblight_sethsv_noeeprom_old,"ax",%progbits
 1237              		.align	1
 1238              		.global	rgblight_sethsv_noeeprom_old
 1239              		.syntax unified
 1240              		.code	16
 1241              		.thumb_func
 1242              		.fpu softvfp
 1244              	rgblight_sethsv_noeeprom_old:
 1245              	.LVL56:
 1246              	.LFB311:
 422:quantum/rgblight.c ****     if (rgblight_config.enable) {
 1247              		.loc 1 422 74 is_stmt 1 view -0
 1248              		.cfi_startproc
 1249              		@ args = 0, pretend = 0, frame = 8
 1250              		@ frame_needed = 0, uses_anonymous_args = 0
 423:quantum/rgblight.c ****         LED_TYPE tmp_led;
 1251              		.loc 1 423 5 view .LVU277
 423:quantum/rgblight.c ****         LED_TYPE tmp_led;
 1252              		.loc 1 423 9 is_stmt 0 view .LVU278
 1253 0000 074B     		ldr	r3, .L123
 422:quantum/rgblight.c ****     if (rgblight_config.enable) {
 1254              		.loc 1 422 74 view .LVU279
 1255 0002 13B5     		push	{r0, r1, r4, lr}
 1256              		.cfi_def_cfa_offset 16
 1257              		.cfi_offset 0, -16
 1258              		.cfi_offset 1, -12
 1259              		.cfi_offset 4, -8
 1260              		.cfi_offset 14, -4
 423:quantum/rgblight.c ****         LED_TYPE tmp_led;
 1261              		.loc 1 423 9 view .LVU280
 1262 0004 1B78     		ldrb	r3, [r3]
 423:quantum/rgblight.c ****         LED_TYPE tmp_led;
 1263              		.loc 1 423 8 view .LVU281
 1264 0006 DB07     		lsls	r3, r3, #31
 1265 0008 08D5     		bpl	.L118
 1266              	.LVL57:
 1267              	.LBB94:
 1268              	.LBI94:
 422:quantum/rgblight.c ****     if (rgblight_config.enable) {
 1269              		.loc 1 422 6 is_stmt 1 view .LVU282
 1270              	.LBB95:
 424:quantum/rgblight.c ****         sethsv(hue, sat, val, &tmp_led);
 1271              		.loc 1 424 9 view .LVU283
 425:quantum/rgblight.c ****         rgblight_setrgb(tmp_led.r, tmp_led.g, tmp_led.b);
 1272              		.loc 1 425 9 view .LVU284
 1273              	.LBB96:
 1274              	.LBI96:
 135:quantum/rgblight.c **** 
 1275              		.loc 1 135 6 view .LVU285
 1276              	.LBB97:
 135:quantum/rgblight.c **** 
 1277              		.loc 1 135 70 view .LVU286
 1278 000a 01AC     		add	r4, sp, #4
 1279              	.LVL58:
 135:quantum/rgblight.c **** 
 1280              		.loc 1 135 70 is_stmt 0 view .LVU287
 1281 000c 2300     		movs	r3, r4
 1282 000e FFF7FEFF 		bl	sethsv_raw
 1283              	.LVL59:
 135:quantum/rgblight.c **** 
 1284              		.loc 1 135 70 view .LVU288
 1285              	.LBE97:
 1286              	.LBE96:
 426:quantum/rgblight.c ****     }
 1287              		.loc 1 426 9 is_stmt 1 view .LVU289
 1288 0012 A278     		ldrb	r2, [r4, #2]
 1289 0014 2178     		ldrb	r1, [r4]
 1290 0016 6078     		ldrb	r0, [r4, #1]
 1291 0018 FFF7FEFF 		bl	rgblight_setrgb
 1292              	.LVL60:
 1293              	.L118:
 426:quantum/rgblight.c ****     }
 1294              		.loc 1 426 9 is_stmt 0 view .LVU290
 1295              	.LBE95:
 1296              	.LBE94:
 428:quantum/rgblight.c **** 
 1297              		.loc 1 428 1 view .LVU291
 1298              		@ sp needed
 1299 001c 13BD     		pop	{r0, r1, r4, pc}
 1300              	.L124:
 1301 001e C046     		.align	2
 1302              	.L123:
 1303 0020 00000000 		.word	.LANCHOR5
 1304              		.cfi_endproc
 1305              	.LFE311:
 1307              		.section	.text.rgblight_effect_breathing,"ax",%progbits
 1308              		.align	1
 1309              		.global	rgblight_effect_breathing
 1310              		.syntax unified
 1311              		.code	16
 1312              		.thumb_func
 1313              		.fpu softvfp
 1315              	rgblight_effect_breathing:
 1316              	.LVL61:
 1317              	.LFB340:
 819:quantum/rgblight.c **** 
 820:quantum/rgblight.c **** void rgblight_task(void) {
 821:quantum/rgblight.c ****     if (rgblight_status.timer_enabled) {
 822:quantum/rgblight.c ****         effect_func_t effect_func   = rgblight_effect_dummy;
 823:quantum/rgblight.c ****         uint16_t      interval_time = 2000;  // dummy interval
 824:quantum/rgblight.c ****         uint8_t       delta         = rgblight_config.mode - rgblight_status.base_mode;
 825:quantum/rgblight.c ****         animation_status.delta      = delta;
 826:quantum/rgblight.c **** 
 827:quantum/rgblight.c ****         // static light mode, do nothing here
 828:quantum/rgblight.c ****         if (1 == 0) {  // dummy
 829:quantum/rgblight.c ****         }
 830:quantum/rgblight.c **** #    ifdef RGBLIGHT_EFFECT_BREATHING
 831:quantum/rgblight.c ****         else if (rgblight_status.base_mode == RGBLIGHT_MODE_BREATHING) {
 832:quantum/rgblight.c ****             // breathing mode
 833:quantum/rgblight.c ****             interval_time = get_interval_time(&RGBLED_BREATHING_INTERVALS[delta], 1, 100);
 834:quantum/rgblight.c ****             effect_func   = rgblight_effect_breathing;
 835:quantum/rgblight.c ****         }
 836:quantum/rgblight.c **** #    endif
 837:quantum/rgblight.c **** #    ifdef RGBLIGHT_EFFECT_RAINBOW_MOOD
 838:quantum/rgblight.c ****         else if (rgblight_status.base_mode == RGBLIGHT_MODE_RAINBOW_MOOD) {
 839:quantum/rgblight.c ****             // rainbow mood mode
 840:quantum/rgblight.c ****             interval_time = get_interval_time(&RGBLED_RAINBOW_MOOD_INTERVALS[delta], 5, 100);
 841:quantum/rgblight.c ****             effect_func   = rgblight_effect_rainbow_mood;
 842:quantum/rgblight.c ****         }
 843:quantum/rgblight.c **** #    endif
 844:quantum/rgblight.c **** #    ifdef RGBLIGHT_EFFECT_RAINBOW_SWIRL
 845:quantum/rgblight.c ****         else if (rgblight_status.base_mode == RGBLIGHT_MODE_RAINBOW_SWIRL) {
 846:quantum/rgblight.c ****             // rainbow swirl mode
 847:quantum/rgblight.c ****             interval_time = get_interval_time(&RGBLED_RAINBOW_SWIRL_INTERVALS[delta / 2], 1, 100);
 848:quantum/rgblight.c ****             effect_func   = rgblight_effect_rainbow_swirl;
 849:quantum/rgblight.c ****         }
 850:quantum/rgblight.c **** #    endif
 851:quantum/rgblight.c **** #    ifdef RGBLIGHT_EFFECT_SNAKE
 852:quantum/rgblight.c ****         else if (rgblight_status.base_mode == RGBLIGHT_MODE_SNAKE) {
 853:quantum/rgblight.c ****             // snake mode
 854:quantum/rgblight.c ****             interval_time = get_interval_time(&RGBLED_SNAKE_INTERVALS[delta / 2], 1, 200);
 855:quantum/rgblight.c ****             effect_func   = rgblight_effect_snake;
 856:quantum/rgblight.c ****         }
 857:quantum/rgblight.c **** #    endif
 858:quantum/rgblight.c **** #    ifdef RGBLIGHT_EFFECT_KNIGHT
 859:quantum/rgblight.c ****         else if (rgblight_status.base_mode == RGBLIGHT_MODE_KNIGHT) {
 860:quantum/rgblight.c ****             // knight mode
 861:quantum/rgblight.c ****             interval_time = get_interval_time(&RGBLED_KNIGHT_INTERVALS[delta], 5, 100);
 862:quantum/rgblight.c ****             effect_func   = rgblight_effect_knight;
 863:quantum/rgblight.c ****         }
 864:quantum/rgblight.c **** #    endif
 865:quantum/rgblight.c **** #    ifdef RGBLIGHT_EFFECT_CHRISTMAS
 866:quantum/rgblight.c ****         else if (rgblight_status.base_mode == RGBLIGHT_MODE_CHRISTMAS) {
 867:quantum/rgblight.c ****             // christmas mode
 868:quantum/rgblight.c ****             interval_time = RGBLIGHT_EFFECT_CHRISTMAS_INTERVAL;
 869:quantum/rgblight.c ****             effect_func   = (effect_func_t)rgblight_effect_christmas;
 870:quantum/rgblight.c ****         }
 871:quantum/rgblight.c **** #    endif
 872:quantum/rgblight.c **** #    ifdef RGBLIGHT_EFFECT_RGB_TEST
 873:quantum/rgblight.c ****         else if (rgblight_status.base_mode == RGBLIGHT_MODE_RGB_TEST) {
 874:quantum/rgblight.c ****             // RGB test mode
 875:quantum/rgblight.c ****             interval_time = pgm_read_word(&RGBLED_RGBTEST_INTERVALS[0]);
 876:quantum/rgblight.c ****             effect_func   = (effect_func_t)rgblight_effect_rgbtest;
 877:quantum/rgblight.c ****         }
 878:quantum/rgblight.c **** #    endif
 879:quantum/rgblight.c **** #    ifdef RGBLIGHT_EFFECT_ALTERNATING
 880:quantum/rgblight.c ****         else if (rgblight_status.base_mode == RGBLIGHT_MODE_ALTERNATING) {
 881:quantum/rgblight.c ****             interval_time = 500;
 882:quantum/rgblight.c ****             effect_func   = (effect_func_t)rgblight_effect_alternating;
 883:quantum/rgblight.c ****         }
 884:quantum/rgblight.c **** #    endif
 885:quantum/rgblight.c ****         if (animation_status.restart) {
 886:quantum/rgblight.c ****             animation_status.restart    = false;
 887:quantum/rgblight.c ****             animation_status.last_timer = timer_read() - interval_time - 1;
 888:quantum/rgblight.c ****             animation_status.pos16      = 0;  // restart signal to local each effect
 889:quantum/rgblight.c ****         }
 890:quantum/rgblight.c ****         if (timer_elapsed(animation_status.last_timer) >= interval_time) {
 891:quantum/rgblight.c **** #    if defined(RGBLIGHT_SPLIT) && !defined(RGBLIGHT_SPLIT_NO_ANIMATION_SYNC)
 892:quantum/rgblight.c ****             static uint16_t report_last_timer = 0;
 893:quantum/rgblight.c ****             static bool     tick_flag         = false;
 894:quantum/rgblight.c ****             uint16_t        oldpos16;
 895:quantum/rgblight.c ****             if (tick_flag) {
 896:quantum/rgblight.c ****                 tick_flag = false;
 897:quantum/rgblight.c ****                 if (timer_elapsed(report_last_timer) >= 30000) {
 898:quantum/rgblight.c ****                     report_last_timer = timer_read();
 899:quantum/rgblight.c ****                     dprintf("rgblight animation tick report to slave\n");
 900:quantum/rgblight.c ****                     RGBLIGHT_SPLIT_ANIMATION_TICK;
 901:quantum/rgblight.c ****                 }
 902:quantum/rgblight.c ****             }
 903:quantum/rgblight.c ****             oldpos16 = animation_status.pos16;
 904:quantum/rgblight.c **** #    endif
 905:quantum/rgblight.c ****             animation_status.last_timer += interval_time;
 906:quantum/rgblight.c ****             effect_func(&animation_status);
 907:quantum/rgblight.c **** #    if defined(RGBLIGHT_SPLIT) && !defined(RGBLIGHT_SPLIT_NO_ANIMATION_SYNC)
 908:quantum/rgblight.c ****             if (animation_status.pos16 == 0 && oldpos16 != 0) {
 909:quantum/rgblight.c ****                 tick_flag = true;
 910:quantum/rgblight.c ****             }
 911:quantum/rgblight.c **** #    endif
 912:quantum/rgblight.c ****         }
 913:quantum/rgblight.c ****     }
 914:quantum/rgblight.c **** }
 915:quantum/rgblight.c **** 
 916:quantum/rgblight.c **** #endif /* RGBLIGHT_USE_TIMER */
 917:quantum/rgblight.c **** 
 918:quantum/rgblight.c **** // Effects
 919:quantum/rgblight.c **** #ifdef RGBLIGHT_EFFECT_BREATHING
 920:quantum/rgblight.c **** 
 921:quantum/rgblight.c **** #    ifndef RGBLIGHT_EFFECT_BREATHE_CENTER
 922:quantum/rgblight.c **** #        ifndef RGBLIGHT_BREATHE_TABLE_SIZE
 923:quantum/rgblight.c **** #            define RGBLIGHT_BREATHE_TABLE_SIZE 256  // 256 or 128 or 64
 924:quantum/rgblight.c **** #        endif
 925:quantum/rgblight.c **** #        include <rgblight_breathe_table.h>
 926:quantum/rgblight.c **** #    endif
 927:quantum/rgblight.c **** 
 928:quantum/rgblight.c **** __attribute__((weak)) const uint8_t RGBLED_BREATHING_INTERVALS[] PROGMEM = {30, 20, 10, 5};
 929:quantum/rgblight.c **** 
 930:quantum/rgblight.c **** void rgblight_effect_breathing(animation_status_t *anim) {
 1318              		.loc 1 930 58 is_stmt 1 view -0
 1319              		.cfi_startproc
 1320              		@ args = 0, pretend = 0, frame = 0
 1321              		@ frame_needed = 0, uses_anonymous_args = 0
 931:quantum/rgblight.c ****     float val;
 1322              		.loc 1 931 5 view .LVU293
 932:quantum/rgblight.c **** 
 933:quantum/rgblight.c ****     // http://sean.voisen.org/blog/2011/10/breathing-led-with-arduino/
 934:quantum/rgblight.c **** #    ifdef RGBLIGHT_EFFECT_BREATHE_TABLE
 935:quantum/rgblight.c ****     val = pgm_read_byte(&rgblight_effect_breathe_table[anim->pos / table_scale]);
 1323              		.loc 1 935 5 view .LVU294
 936:quantum/rgblight.c **** #    else
 937:quantum/rgblight.c ****     val = (exp(sin((anim->pos / 255.0) * M_PI)) - RGBLIGHT_EFFECT_BREATHE_CENTER / M_E) * (RGBLIGHT
 938:quantum/rgblight.c **** #    endif
 939:quantum/rgblight.c ****     rgblight_sethsv_noeeprom_old(rgblight_config.hue, rgblight_config.sat, val);
 1324              		.loc 1 939 5 view .LVU295
 930:quantum/rgblight.c ****     float val;
 1325              		.loc 1 930 58 is_stmt 0 view .LVU296
 1326 0000 10B5     		push	{r4, lr}
 1327              		.cfi_def_cfa_offset 8
 1328              		.cfi_offset 4, -8
 1329              		.cfi_offset 14, -4
 930:quantum/rgblight.c ****     float val;
 1330              		.loc 1 930 58 view .LVU297
 1331 0002 0400     		movs	r4, r0
 935:quantum/rgblight.c **** #    else
 1332              		.loc 1 935 11 view .LVU298
 1333 0004 0379     		ldrb	r3, [r0, #4]
 1334              		.loc 1 939 5 view .LVU299
 1335 0006 054A     		ldr	r2, .L126
 940:quantum/rgblight.c ****     anim->pos = (anim->pos + 1);
 941:quantum/rgblight.c **** }
 1336              		.loc 1 941 1 view .LVU300
 1337              		@ sp needed
 939:quantum/rgblight.c ****     anim->pos = (anim->pos + 1);
 1338              		.loc 1 939 5 view .LVU301
 1339 0008 D25C     		ldrb	r2, [r2, r3]
 1340 000a 054B     		ldr	r3, .L126+4
 1341 000c 9978     		ldrb	r1, [r3, #2]
 1342 000e 5878     		ldrb	r0, [r3, #1]
 1343              	.LVL62:
 939:quantum/rgblight.c ****     anim->pos = (anim->pos + 1);
 1344              		.loc 1 939 5 view .LVU302
 1345 0010 FFF7FEFF 		bl	rgblight_sethsv_noeeprom_old
 1346              	.LVL63:
 940:quantum/rgblight.c ****     anim->pos = (anim->pos + 1);
 1347              		.loc 1 940 5 is_stmt 1 view .LVU303
 940:quantum/rgblight.c ****     anim->pos = (anim->pos + 1);
 1348              		.loc 1 940 28 is_stmt 0 view .LVU304
 1349 0014 2379     		ldrb	r3, [r4, #4]
 1350 0016 0133     		adds	r3, r3, #1
 940:quantum/rgblight.c ****     anim->pos = (anim->pos + 1);
 1351              		.loc 1 940 15 view .LVU305
 1352 0018 2371     		strb	r3, [r4, #4]
 1353              	.LVL64:
 1354              		.loc 1 941 1 view .LVU306
 1355 001a 10BD     		pop	{r4, pc}
 1356              	.L127:
 1357              		.align	2
 1358              	.L126:
 1359 001c 00000000 		.word	rgblight_effect_breathe_table
 1360 0020 00000000 		.word	.LANCHOR5
 1361              		.cfi_endproc
 1362              	.LFE340:
 1364              		.section	.text.rgblight_effect_rainbow_mood,"ax",%progbits
 1365              		.align	1
 1366              		.global	rgblight_effect_rainbow_mood
 1367              		.syntax unified
 1368              		.code	16
 1369              		.thumb_func
 1370              		.fpu softvfp
 1372              	rgblight_effect_rainbow_mood:
 1373              	.LVL65:
 1374              	.LFB341:
 942:quantum/rgblight.c **** #endif
 943:quantum/rgblight.c **** 
 944:quantum/rgblight.c **** #ifdef RGBLIGHT_EFFECT_RAINBOW_MOOD
 945:quantum/rgblight.c **** __attribute__((weak)) const uint8_t RGBLED_RAINBOW_MOOD_INTERVALS[] PROGMEM = {120, 60, 30};
 946:quantum/rgblight.c **** 
 947:quantum/rgblight.c **** void rgblight_effect_rainbow_mood(animation_status_t *anim) {
 1375              		.loc 1 947 61 is_stmt 1 view -0
 1376              		.cfi_startproc
 1377              		@ args = 0, pretend = 0, frame = 0
 1378              		@ frame_needed = 0, uses_anonymous_args = 0
 948:quantum/rgblight.c ****     rgblight_sethsv_noeeprom_old(anim->current_hue, rgblight_config.sat, rgblight_config.val);
 1379              		.loc 1 948 5 view .LVU308
 947:quantum/rgblight.c ****     rgblight_sethsv_noeeprom_old(anim->current_hue, rgblight_config.sat, rgblight_config.val);
 1380              		.loc 1 947 61 is_stmt 0 view .LVU309
 1381 0000 10B5     		push	{r4, lr}
 1382              		.cfi_def_cfa_offset 8
 1383              		.cfi_offset 4, -8
 1384              		.cfi_offset 14, -4
 947:quantum/rgblight.c ****     rgblight_sethsv_noeeprom_old(anim->current_hue, rgblight_config.sat, rgblight_config.val);
 1385              		.loc 1 947 61 view .LVU310
 1386 0002 0400     		movs	r4, r0
 1387              		.loc 1 948 5 view .LVU311
 1388 0004 044B     		ldr	r3, .L129
 1389 0006 0079     		ldrb	r0, [r0, #4]
 1390              	.LVL66:
 1391              		.loc 1 948 5 view .LVU312
 1392 0008 DA78     		ldrb	r2, [r3, #3]
 1393 000a 9978     		ldrb	r1, [r3, #2]
 1394 000c FFF7FEFF 		bl	rgblight_sethsv_noeeprom_old
 1395              	.LVL67:
 949:quantum/rgblight.c ****     anim->current_hue++;
 1396              		.loc 1 949 5 is_stmt 1 view .LVU313
 1397              		.loc 1 949 22 is_stmt 0 view .LVU314
 1398 0010 2379     		ldrb	r3, [r4, #4]
 950:quantum/rgblight.c **** }
 1399              		.loc 1 950 1 view .LVU315
 1400              		@ sp needed
 949:quantum/rgblight.c ****     anim->current_hue++;
 1401              		.loc 1 949 22 view .LVU316
 1402 0012 0133     		adds	r3, r3, #1
 1403 0014 2371     		strb	r3, [r4, #4]
 1404              	.LVL68:
 1405              		.loc 1 950 1 view .LVU317
 1406 0016 10BD     		pop	{r4, pc}
 1407              	.L130:
 1408              		.align	2
 1409              	.L129:
 1410 0018 00000000 		.word	.LANCHOR5
 1411              		.cfi_endproc
 1412              	.LFE341:
 1414              		.global	__aeabi_uidivmod
 1415              		.global	__aeabi_idivmod
 1416              		.section	.text.rgblight_effect_rgbtest,"ax",%progbits
 1417              		.align	1
 1418              		.global	rgblight_effect_rgbtest
 1419              		.syntax unified
 1420              		.code	16
 1421              		.thumb_func
 1422              		.fpu softvfp
 1424              	rgblight_effect_rgbtest:
 1425              	.LVL69:
 1426              	.LFB346:
 951:quantum/rgblight.c **** #endif
 952:quantum/rgblight.c **** 
 953:quantum/rgblight.c **** #ifdef RGBLIGHT_EFFECT_RAINBOW_SWIRL
 954:quantum/rgblight.c **** #    ifndef RGBLIGHT_RAINBOW_SWIRL_RANGE
 955:quantum/rgblight.c **** #        define RGBLIGHT_RAINBOW_SWIRL_RANGE 255
 956:quantum/rgblight.c **** #    endif
 957:quantum/rgblight.c **** 
 958:quantum/rgblight.c **** __attribute__((weak)) const uint8_t RGBLED_RAINBOW_SWIRL_INTERVALS[] PROGMEM = {100, 50, 20};
 959:quantum/rgblight.c **** 
 960:quantum/rgblight.c **** void rgblight_effect_rainbow_swirl(animation_status_t *anim) {
 961:quantum/rgblight.c ****     uint8_t hue;
 962:quantum/rgblight.c ****     uint8_t i;
 963:quantum/rgblight.c **** 
 964:quantum/rgblight.c ****     for (i = 0; i < effect_num_leds; i++) {
 965:quantum/rgblight.c ****         hue = (RGBLIGHT_RAINBOW_SWIRL_RANGE / effect_num_leds * i + anim->current_hue);
 966:quantum/rgblight.c ****         sethsv(hue, rgblight_config.sat, rgblight_config.val, (LED_TYPE *)&led[i + effect_start_pos
 967:quantum/rgblight.c ****     }
 968:quantum/rgblight.c ****     rgblight_set();
 969:quantum/rgblight.c **** 
 970:quantum/rgblight.c ****     if (anim->delta % 2) {
 971:quantum/rgblight.c ****         anim->current_hue++;
 972:quantum/rgblight.c ****     } else {
 973:quantum/rgblight.c ****         anim->current_hue--;
 974:quantum/rgblight.c ****     }
 975:quantum/rgblight.c **** }
 976:quantum/rgblight.c **** #endif
 977:quantum/rgblight.c **** 
 978:quantum/rgblight.c **** #ifdef RGBLIGHT_EFFECT_SNAKE
 979:quantum/rgblight.c **** __attribute__((weak)) const uint8_t RGBLED_SNAKE_INTERVALS[] PROGMEM = {100, 50, 20};
 980:quantum/rgblight.c **** 
 981:quantum/rgblight.c **** void rgblight_effect_snake(animation_status_t *anim) {
 982:quantum/rgblight.c ****     static uint8_t pos = 0;
 983:quantum/rgblight.c ****     uint8_t        i, j;
 984:quantum/rgblight.c ****     int8_t         k;
 985:quantum/rgblight.c ****     int8_t         increment = 1;
 986:quantum/rgblight.c **** 
 987:quantum/rgblight.c ****     if (anim->delta % 2) {
 988:quantum/rgblight.c ****         increment = -1;
 989:quantum/rgblight.c ****     }
 990:quantum/rgblight.c **** 
 991:quantum/rgblight.c **** #    if defined(RGBLIGHT_SPLIT) && !defined(RGBLIGHT_SPLIT_NO_ANIMATION_SYNC)
 992:quantum/rgblight.c ****     if (anim->pos == 0) {  // restart signal
 993:quantum/rgblight.c ****         if (increment == 1) {
 994:quantum/rgblight.c ****             pos = effect_num_leds - 1;
 995:quantum/rgblight.c ****         } else {
 996:quantum/rgblight.c ****             pos = 0;
 997:quantum/rgblight.c ****         }
 998:quantum/rgblight.c ****         anim->pos = 1;
 999:quantum/rgblight.c ****     }
1000:quantum/rgblight.c **** #    endif
1001:quantum/rgblight.c **** 
1002:quantum/rgblight.c ****     for (i = 0; i < effect_num_leds; i++) {
1003:quantum/rgblight.c ****         LED_TYPE *ledp = led + i + effect_start_pos;
1004:quantum/rgblight.c ****         ledp->r        = 0;
1005:quantum/rgblight.c ****         ledp->g        = 0;
1006:quantum/rgblight.c ****         ledp->b        = 0;
1007:quantum/rgblight.c **** #    ifdef RGBW
1008:quantum/rgblight.c ****         ledp->w = 0;
1009:quantum/rgblight.c **** #    endif
1010:quantum/rgblight.c ****         for (j = 0; j < RGBLIGHT_EFFECT_SNAKE_LENGTH; j++) {
1011:quantum/rgblight.c ****             k = pos + j * increment;
1012:quantum/rgblight.c ****             if (k > RGBLED_NUM) {
1013:quantum/rgblight.c ****                 k = k % RGBLED_NUM;
1014:quantum/rgblight.c ****             }
1015:quantum/rgblight.c ****             if (k < 0) {
1016:quantum/rgblight.c ****                 k = k + effect_num_leds;
1017:quantum/rgblight.c ****             }
1018:quantum/rgblight.c ****             if (i == k) {
1019:quantum/rgblight.c ****                 sethsv(rgblight_config.hue, rgblight_config.sat, (uint8_t)(rgblight_config.val * (R
1020:quantum/rgblight.c ****             }
1021:quantum/rgblight.c ****         }
1022:quantum/rgblight.c ****     }
1023:quantum/rgblight.c ****     rgblight_set();
1024:quantum/rgblight.c ****     if (increment == 1) {
1025:quantum/rgblight.c ****         if (pos - 1 < 0) {
1026:quantum/rgblight.c ****             pos = effect_num_leds - 1;
1027:quantum/rgblight.c **** #    if defined(RGBLIGHT_SPLIT) && !defined(RGBLIGHT_SPLIT_NO_ANIMATION_SYNC)
1028:quantum/rgblight.c ****             anim->pos = 0;
1029:quantum/rgblight.c **** #    endif
1030:quantum/rgblight.c ****         } else {
1031:quantum/rgblight.c ****             pos -= 1;
1032:quantum/rgblight.c **** #    if defined(RGBLIGHT_SPLIT) && !defined(RGBLIGHT_SPLIT_NO_ANIMATION_SYNC)
1033:quantum/rgblight.c ****             anim->pos = 1;
1034:quantum/rgblight.c **** #    endif
1035:quantum/rgblight.c ****         }
1036:quantum/rgblight.c ****     } else {
1037:quantum/rgblight.c ****         pos = (pos + 1) % effect_num_leds;
1038:quantum/rgblight.c **** #    if defined(RGBLIGHT_SPLIT) && !defined(RGBLIGHT_SPLIT_NO_ANIMATION_SYNC)
1039:quantum/rgblight.c ****         anim->pos = pos;
1040:quantum/rgblight.c **** #    endif
1041:quantum/rgblight.c ****     }
1042:quantum/rgblight.c **** }
1043:quantum/rgblight.c **** #endif
1044:quantum/rgblight.c **** 
1045:quantum/rgblight.c **** #ifdef RGBLIGHT_EFFECT_KNIGHT
1046:quantum/rgblight.c **** __attribute__((weak)) const uint8_t RGBLED_KNIGHT_INTERVALS[] PROGMEM = {127, 63, 31};
1047:quantum/rgblight.c **** 
1048:quantum/rgblight.c **** void rgblight_effect_knight(animation_status_t *anim) {
1049:quantum/rgblight.c ****     static int8_t low_bound  = 0;
1050:quantum/rgblight.c ****     static int8_t high_bound = RGBLIGHT_EFFECT_KNIGHT_LENGTH - 1;
1051:quantum/rgblight.c ****     static int8_t increment  = 1;
1052:quantum/rgblight.c ****     uint8_t       i, cur;
1053:quantum/rgblight.c **** 
1054:quantum/rgblight.c **** #    if defined(RGBLIGHT_SPLIT) && !defined(RGBLIGHT_SPLIT_NO_ANIMATION_SYNC)
1055:quantum/rgblight.c ****     if (anim->pos == 0) {  // restart signal
1056:quantum/rgblight.c ****         anim->pos  = 1;
1057:quantum/rgblight.c ****         low_bound  = 0;
1058:quantum/rgblight.c ****         high_bound = RGBLIGHT_EFFECT_KNIGHT_LENGTH - 1;
1059:quantum/rgblight.c ****         increment  = 1;
1060:quantum/rgblight.c ****     }
1061:quantum/rgblight.c **** #    endif
1062:quantum/rgblight.c ****     // Set all the LEDs to 0
1063:quantum/rgblight.c ****     for (i = effect_start_pos; i < effect_end_pos; i++) {
1064:quantum/rgblight.c ****         led[i].r = 0;
1065:quantum/rgblight.c ****         led[i].g = 0;
1066:quantum/rgblight.c ****         led[i].b = 0;
1067:quantum/rgblight.c **** #    ifdef RGBW
1068:quantum/rgblight.c ****         led[i].w = 0;
1069:quantum/rgblight.c **** #    endif
1070:quantum/rgblight.c ****     }
1071:quantum/rgblight.c ****     // Determine which LEDs should be lit up
1072:quantum/rgblight.c ****     for (i = 0; i < RGBLIGHT_EFFECT_KNIGHT_LED_NUM; i++) {
1073:quantum/rgblight.c ****         cur = (i + RGBLIGHT_EFFECT_KNIGHT_OFFSET) % effect_num_leds + effect_start_pos;
1074:quantum/rgblight.c **** 
1075:quantum/rgblight.c ****         if (i >= low_bound && i <= high_bound) {
1076:quantum/rgblight.c ****             sethsv(rgblight_config.hue, rgblight_config.sat, rgblight_config.val, (LED_TYPE *)&led[
1077:quantum/rgblight.c ****         } else {
1078:quantum/rgblight.c ****             led[cur].r = 0;
1079:quantum/rgblight.c ****             led[cur].g = 0;
1080:quantum/rgblight.c ****             led[cur].b = 0;
1081:quantum/rgblight.c **** #    ifdef RGBW
1082:quantum/rgblight.c ****             led[cur].w = 0;
1083:quantum/rgblight.c **** #    endif
1084:quantum/rgblight.c ****         }
1085:quantum/rgblight.c ****     }
1086:quantum/rgblight.c ****     rgblight_set();
1087:quantum/rgblight.c **** 
1088:quantum/rgblight.c ****     // Move from low_bound to high_bound changing the direction we increment each
1089:quantum/rgblight.c ****     // time a boundary is hit.
1090:quantum/rgblight.c ****     low_bound += increment;
1091:quantum/rgblight.c ****     high_bound += increment;
1092:quantum/rgblight.c **** 
1093:quantum/rgblight.c ****     if (high_bound <= 0 || low_bound >= RGBLIGHT_EFFECT_KNIGHT_LED_NUM - 1) {
1094:quantum/rgblight.c ****         increment = -increment;
1095:quantum/rgblight.c **** #    if defined(RGBLIGHT_SPLIT) && !defined(RGBLIGHT_SPLIT_NO_ANIMATION_SYNC)
1096:quantum/rgblight.c ****         if (increment == 1) {
1097:quantum/rgblight.c ****             anim->pos = 0;
1098:quantum/rgblight.c ****         }
1099:quantum/rgblight.c **** #    endif
1100:quantum/rgblight.c ****     }
1101:quantum/rgblight.c **** }
1102:quantum/rgblight.c **** #endif
1103:quantum/rgblight.c **** 
1104:quantum/rgblight.c **** #ifdef RGBLIGHT_EFFECT_CHRISTMAS
1105:quantum/rgblight.c **** void rgblight_effect_christmas(animation_status_t *anim) {
1106:quantum/rgblight.c ****     uint8_t hue;
1107:quantum/rgblight.c ****     uint8_t i;
1108:quantum/rgblight.c **** 
1109:quantum/rgblight.c ****     anim->current_offset = (anim->current_offset + 1) % 2;
1110:quantum/rgblight.c ****     for (i = 0; i < effect_num_leds; i++) {
1111:quantum/rgblight.c ****         hue = 0 + ((i / RGBLIGHT_EFFECT_CHRISTMAS_STEP + anim->current_offset) % 2) * 85;
1112:quantum/rgblight.c ****         sethsv(hue, rgblight_config.sat, rgblight_config.val, (LED_TYPE *)&led[i + effect_start_pos
1113:quantum/rgblight.c ****     }
1114:quantum/rgblight.c ****     rgblight_set();
1115:quantum/rgblight.c **** }
1116:quantum/rgblight.c **** #endif
1117:quantum/rgblight.c **** 
1118:quantum/rgblight.c **** #ifdef RGBLIGHT_EFFECT_RGB_TEST
1119:quantum/rgblight.c **** __attribute__((weak)) const uint16_t RGBLED_RGBTEST_INTERVALS[] PROGMEM = {1024};
1120:quantum/rgblight.c **** 
1121:quantum/rgblight.c **** void rgblight_effect_rgbtest(animation_status_t *anim) {
 1427              		.loc 1 1121 56 is_stmt 1 view -0
 1428              		.cfi_startproc
 1429              		@ args = 0, pretend = 0, frame = 8
 1430              		@ frame_needed = 0, uses_anonymous_args = 0
1122:quantum/rgblight.c ****     static uint8_t maxval = 0;
 1431              		.loc 1 1122 5 view .LVU319
1123:quantum/rgblight.c ****     uint8_t        g;
 1432              		.loc 1 1123 5 view .LVU320
1124:quantum/rgblight.c ****     uint8_t        r;
 1433              		.loc 1 1124 5 view .LVU321
1125:quantum/rgblight.c ****     uint8_t        b;
 1434              		.loc 1 1125 5 view .LVU322
1126:quantum/rgblight.c **** 
1127:quantum/rgblight.c ****     if (maxval == 0) {
 1435              		.loc 1 1127 5 view .LVU323
1121:quantum/rgblight.c ****     static uint8_t maxval = 0;
 1436              		.loc 1 1121 56 is_stmt 0 view .LVU324
 1437 0000 73B5     		push	{r0, r1, r4, r5, r6, lr}
 1438              		.cfi_def_cfa_offset 24
 1439              		.cfi_offset 0, -24
 1440              		.cfi_offset 1, -20
 1441              		.cfi_offset 4, -16
 1442              		.cfi_offset 5, -12
 1443              		.cfi_offset 6, -8
 1444              		.cfi_offset 14, -4
 1445              		.loc 1 1127 16 view .LVU325
 1446 0002 154D     		ldr	r5, .L137
1121:quantum/rgblight.c ****     static uint8_t maxval = 0;
 1447              		.loc 1 1121 56 view .LVU326
 1448 0004 0400     		movs	r4, r0
 1449              		.loc 1 1127 8 view .LVU327
 1450 0006 2878     		ldrb	r0, [r5]
 1451              	.LVL70:
 1452              		.loc 1 1127 8 view .LVU328
 1453 0008 0028     		cmp	r0, #0
 1454 000a 07D1     		bne	.L132
 1455              	.LBB98:
1128:quantum/rgblight.c ****         LED_TYPE tmp_led;
 1456              		.loc 1 1128 9 is_stmt 1 view .LVU329
1129:quantum/rgblight.c ****         sethsv(0, 255, RGBLIGHT_LIMIT_VAL, &tmp_led);
 1457              		.loc 1 1129 9 view .LVU330
 1458              	.LVL71:
 1459              	.LBB99:
 1460              	.LBI99:
 135:quantum/rgblight.c **** 
 1461              		.loc 1 135 6 view .LVU331
 1462              	.LBB100:
 135:quantum/rgblight.c **** 
 1463              		.loc 1 135 70 view .LVU332
 1464 000c FF22     		movs	r2, #255
 1465 000e 01AE     		add	r6, sp, #4
 1466              	.LVL72:
 135:quantum/rgblight.c **** 
 1467              		.loc 1 135 70 is_stmt 0 view .LVU333
 1468 0010 3300     		movs	r3, r6
 1469 0012 1100     		movs	r1, r2
 1470 0014 FFF7FEFF 		bl	sethsv_raw
 1471              	.LVL73:
 135:quantum/rgblight.c **** 
 1472              		.loc 1 135 70 view .LVU334
 1473              	.LBE100:
 1474              	.LBE99:
1130:quantum/rgblight.c ****         maxval = tmp_led.r;
 1475              		.loc 1 1130 9 is_stmt 1 view .LVU335
 1476              		.loc 1 1130 16 is_stmt 0 view .LVU336
 1477 0018 7378     		ldrb	r3, [r6, #1]
 1478 001a 2B70     		strb	r3, [r5]
 1479              	.L132:
 1480              	.LBE98:
1131:quantum/rgblight.c ****     }
1132:quantum/rgblight.c ****     g = r = b = 0;
 1481              		.loc 1 1132 5 is_stmt 1 view .LVU337
 1482              	.LVL74:
1133:quantum/rgblight.c ****     switch (anim->pos) {
 1483              		.loc 1 1133 5 view .LVU338
 1484              		.loc 1 1133 17 is_stmt 0 view .LVU339
 1485 001c 2179     		ldrb	r1, [r4, #4]
 1486              		.loc 1 1133 5 view .LVU340
 1487 001e 0129     		cmp	r1, #1
 1488 0020 12D0     		beq	.L133
 1489 0022 0029     		cmp	r1, #0
 1490 0024 0DD0     		beq	.L134
 1491 0026 0229     		cmp	r1, #2
 1492 0028 12D0     		beq	.L135
1132:quantum/rgblight.c ****     switch (anim->pos) {
 1493              		.loc 1 1132 15 view .LVU341
 1494 002a 0022     		movs	r2, #0
1132:quantum/rgblight.c ****     switch (anim->pos) {
 1495              		.loc 1 1132 11 view .LVU342
 1496 002c 1000     		movs	r0, r2
1132:quantum/rgblight.c ****     switch (anim->pos) {
 1497              		.loc 1 1132 7 view .LVU343
 1498 002e 1100     		movs	r1, r2
 1499              	.LVL75:
 1500              	.L136:
1134:quantum/rgblight.c ****         case 0:
1135:quantum/rgblight.c ****             r = maxval;
1136:quantum/rgblight.c ****             break;
1137:quantum/rgblight.c ****         case 1:
1138:quantum/rgblight.c ****             g = maxval;
1139:quantum/rgblight.c ****             break;
1140:quantum/rgblight.c ****         case 2:
1141:quantum/rgblight.c ****             b = maxval;
1142:quantum/rgblight.c ****             break;
1143:quantum/rgblight.c ****     }
1144:quantum/rgblight.c ****     rgblight_setrgb(r, g, b);
 1501              		.loc 1 1144 5 is_stmt 1 view .LVU344
 1502 0030 FFF7FEFF 		bl	rgblight_setrgb
 1503              	.LVL76:
1145:quantum/rgblight.c ****     anim->pos = (anim->pos + 1) % 3;
 1504              		.loc 1 1145 5 view .LVU345
 1505              		.loc 1 1145 22 is_stmt 0 view .LVU346
 1506 0034 2079     		ldrb	r0, [r4, #4]
 1507              		.loc 1 1145 33 view .LVU347
 1508 0036 0321     		movs	r1, #3
 1509              		.loc 1 1145 28 view .LVU348
 1510 0038 0130     		adds	r0, r0, #1
 1511              		.loc 1 1145 33 view .LVU349
 1512 003a FFF7FEFF 		bl	__aeabi_idivmod
 1513              	.LVL77:
1146:quantum/rgblight.c **** }
 1514              		.loc 1 1146 1 view .LVU350
 1515              		@ sp needed
1145:quantum/rgblight.c ****     anim->pos = (anim->pos + 1) % 3;
 1516              		.loc 1 1145 15 view .LVU351
 1517 003e 2171     		strb	r1, [r4, #4]
 1518              	.LVL78:
 1519              		.loc 1 1146 1 view .LVU352
 1520 0040 73BD     		pop	{r0, r1, r4, r5, r6, pc}
 1521              	.LVL79:
 1522              	.L134:
1135:quantum/rgblight.c ****             break;
 1523              		.loc 1 1135 13 is_stmt 1 view .LVU353
1135:quantum/rgblight.c ****             break;
 1524              		.loc 1 1135 15 is_stmt 0 view .LVU354
 1525 0042 2878     		ldrb	r0, [r5]
 1526              	.LVL80:
1136:quantum/rgblight.c ****         case 1:
 1527              		.loc 1 1136 13 is_stmt 1 view .LVU355
1132:quantum/rgblight.c ****     switch (anim->pos) {
 1528              		.loc 1 1132 15 is_stmt 0 view .LVU356
 1529 0044 0A00     		movs	r2, r1
1136:quantum/rgblight.c ****         case 1:
 1530              		.loc 1 1136 13 view .LVU357
 1531 0046 F3E7     		b	.L136
 1532              	.LVL81:
 1533              	.L133:
1138:quantum/rgblight.c ****             break;
 1534              		.loc 1 1138 13 is_stmt 1 view .LVU358
1132:quantum/rgblight.c ****     switch (anim->pos) {
 1535              		.loc 1 1132 15 is_stmt 0 view .LVU359
 1536 0048 0022     		movs	r2, #0
1138:quantum/rgblight.c ****             break;
 1537              		.loc 1 1138 15 view .LVU360
 1538 004a 2978     		ldrb	r1, [r5]
 1539              	.LVL82:
1139:quantum/rgblight.c ****         case 2:
 1540              		.loc 1 1139 13 is_stmt 1 view .LVU361
1132:quantum/rgblight.c ****     switch (anim->pos) {
 1541              		.loc 1 1132 11 is_stmt 0 view .LVU362
 1542 004c 1000     		movs	r0, r2
1139:quantum/rgblight.c ****         case 2:
 1543              		.loc 1 1139 13 view .LVU363
 1544 004e EFE7     		b	.L136
 1545              	.LVL83:
 1546              	.L135:
1141:quantum/rgblight.c ****             break;
 1547              		.loc 1 1141 13 is_stmt 1 view .LVU364
1132:quantum/rgblight.c ****     switch (anim->pos) {
 1548              		.loc 1 1132 11 is_stmt 0 view .LVU365
 1549 0050 0020     		movs	r0, #0
1141:quantum/rgblight.c ****             break;
 1550              		.loc 1 1141 15 view .LVU366
 1551 0052 2A78     		ldrb	r2, [r5]
 1552              	.LVL84:
1142:quantum/rgblight.c ****     }
 1553              		.loc 1 1142 13 is_stmt 1 view .LVU367
1132:quantum/rgblight.c ****     switch (anim->pos) {
 1554              		.loc 1 1132 7 is_stmt 0 view .LVU368
 1555 0054 0100     		movs	r1, r0
1142:quantum/rgblight.c ****     }
 1556              		.loc 1 1142 13 view .LVU369
 1557 0056 EBE7     		b	.L136
 1558              	.L138:
 1559              		.align	2
 1560              	.L137:
 1561 0058 00000000 		.word	.LANCHOR7
 1562              		.cfi_endproc
 1563              	.LFE346:
 1565              		.global	__aeabi_uidiv
 1566              		.global	__aeabi_idiv
 1567              		.section	.text.rgblight_sethsv_eeprom_helper,"ax",%progbits
 1568              		.align	1
 1569              		.global	rgblight_sethsv_eeprom_helper
 1570              		.syntax unified
 1571              		.code	16
 1572              		.thumb_func
 1573              		.fpu softvfp
 1575              	rgblight_sethsv_eeprom_helper:
 1576              	.LVL85:
 1577              	.LFB312:
 430:quantum/rgblight.c ****     if (rgblight_config.enable) {
 1578              		.loc 1 430 97 is_stmt 1 view -0
 1579              		.cfi_startproc
 1580              		@ args = 0, pretend = 0, frame = 32
 1581              		@ frame_needed = 0, uses_anonymous_args = 0
 431:quantum/rgblight.c ****         rgblight_status.base_mode = mode_base_table[rgblight_config.mode];
 1582              		.loc 1 431 5 view .LVU371
 430:quantum/rgblight.c ****     if (rgblight_config.enable) {
 1583              		.loc 1 430 97 is_stmt 0 view .LVU372
 1584 0000 F0B5     		push	{r4, r5, r6, r7, lr}
 1585              		.cfi_def_cfa_offset 20
 1586              		.cfi_offset 4, -20
 1587              		.cfi_offset 5, -16
 1588              		.cfi_offset 6, -12
 1589              		.cfi_offset 7, -8
 1590              		.cfi_offset 14, -4
 1591 0002 1600     		movs	r6, r2
 431:quantum/rgblight.c ****         rgblight_status.base_mode = mode_base_table[rgblight_config.mode];
 1592              		.loc 1 431 9 view .LVU373
 1593 0004 0122     		movs	r2, #1
 1594              	.LVL86:
 431:quantum/rgblight.c ****         rgblight_status.base_mode = mode_base_table[rgblight_config.mode];
 1595              		.loc 1 431 9 view .LVU374
 1596 0006 424C     		ldr	r4, .L167
 430:quantum/rgblight.c ****     if (rgblight_config.enable) {
 1597              		.loc 1 430 97 view .LVU375
 1598 0008 0500     		movs	r5, r0
 431:quantum/rgblight.c ****         rgblight_status.base_mode = mode_base_table[rgblight_config.mode];
 1599              		.loc 1 431 9 view .LVU376
 1600 000a 2078     		ldrb	r0, [r4]
 1601              	.LVL87:
 430:quantum/rgblight.c ****     if (rgblight_config.enable) {
 1602              		.loc 1 430 97 view .LVU377
 1603 000c 8BB0     		sub	sp, sp, #44
 1604              		.cfi_def_cfa_offset 64
 430:quantum/rgblight.c ****     if (rgblight_config.enable) {
 1605              		.loc 1 430 97 view .LVU378
 1606 000e 0291     		str	r1, [sp, #8]
 1607 0010 0693     		str	r3, [sp, #24]
 431:quantum/rgblight.c ****         rgblight_status.base_mode = mode_base_table[rgblight_config.mode];
 1608              		.loc 1 431 8 view .LVU379
 1609 0012 1042     		tst	r0, r2
 1610 0014 28D0     		beq	.L139
 432:quantum/rgblight.c ****         if (rgblight_config.mode == RGBLIGHT_MODE_STATIC_LIGHT) {
 1611              		.loc 1 432 9 is_stmt 1 view .LVU380
 432:quantum/rgblight.c ****         if (rgblight_config.mode == RGBLIGHT_MODE_STATIC_LIGHT) {
 1612              		.loc 1 432 52 is_stmt 0 view .LVU381
 1613 0016 3F49     		ldr	r1, .L167+4
 1614              	.LVL88:
 432:quantum/rgblight.c ****         if (rgblight_config.mode == RGBLIGHT_MODE_STATIC_LIGHT) {
 1615              		.loc 1 432 68 view .LVU382
 1616 0018 4308     		lsrs	r3, r0, #1
 1617              	.LVL89:
 432:quantum/rgblight.c ****         if (rgblight_config.mode == RGBLIGHT_MODE_STATIC_LIGHT) {
 1618              		.loc 1 432 52 view .LVU383
 1619 001a C95C     		ldrb	r1, [r1, r3]
 432:quantum/rgblight.c ****         if (rgblight_config.mode == RGBLIGHT_MODE_STATIC_LIGHT) {
 1620              		.loc 1 432 35 view .LVU384
 1621 001c 3E4F     		ldr	r7, .L167+8
 433:quantum/rgblight.c ****             // same static color
 1622              		.loc 1 433 12 view .LVU385
 1623 001e 9043     		bics	r0, r2
 432:quantum/rgblight.c ****         if (rgblight_config.mode == RGBLIGHT_MODE_STATIC_LIGHT) {
 1624              		.loc 1 432 35 view .LVU386
 1625 0020 3970     		strb	r1, [r7]
 433:quantum/rgblight.c ****             // same static color
 1626              		.loc 1 433 9 is_stmt 1 view .LVU387
 433:quantum/rgblight.c ****             // same static color
 1627              		.loc 1 433 12 is_stmt 0 view .LVU388
 1628 0022 0228     		cmp	r0, #2
 1629 0024 22D1     		bne	.L142
 1630              	.LBB101:
 435:quantum/rgblight.c ****             sethsv(hue, sat, val, &tmp_led);
 1631              		.loc 1 435 13 is_stmt 1 view .LVU389
 436:quantum/rgblight.c ****             rgblight_setrgb(tmp_led.r, tmp_led.g, tmp_led.b);
 1632              		.loc 1 436 13 view .LVU390
 1633              	.LVL90:
 1634              	.LBB102:
 1635              	.LBI102:
 135:quantum/rgblight.c **** 
 1636              		.loc 1 135 6 view .LVU391
 1637              	.LBB103:
 135:quantum/rgblight.c **** 
 1638              		.loc 1 135 70 view .LVU392
 1639 0026 09AC     		add	r4, sp, #36
 1640              	.LVL91:
 135:quantum/rgblight.c **** 
 1641              		.loc 1 135 70 is_stmt 0 view .LVU393
 1642 0028 3200     		movs	r2, r6
 1643 002a 0299     		ldr	r1, [sp, #8]
 1644 002c 2800     		movs	r0, r5
 1645 002e 2300     		movs	r3, r4
 1646 0030 FFF7FEFF 		bl	sethsv_raw
 1647              	.LVL92:
 135:quantum/rgblight.c **** 
 1648              		.loc 1 135 70 view .LVU394
 1649              	.LBE103:
 1650              	.LBE102:
 437:quantum/rgblight.c ****         } else {
 1651              		.loc 1 437 13 is_stmt 1 view .LVU395
 1652 0034 A278     		ldrb	r2, [r4, #2]
 1653 0036 2178     		ldrb	r1, [r4]
 1654 0038 6078     		ldrb	r0, [r4, #1]
 1655 003a FFF7FEFF 		bl	rgblight_setrgb
 1656              	.LVL93:
 1657              	.L143:
 437:quantum/rgblight.c ****         } else {
 1658              		.loc 1 437 13 is_stmt 0 view .LVU396
 1659              	.LBE101:
 490:quantum/rgblight.c ****         rgblight_config.sat = sat;
 1660              		.loc 1 490 9 is_stmt 1 view .LVU397
 490:quantum/rgblight.c ****         rgblight_config.sat = sat;
 1661              		.loc 1 490 29 is_stmt 0 view .LVU398
 1662 003e 344C     		ldr	r4, .L167
 491:quantum/rgblight.c ****         rgblight_config.val = val;
 1663              		.loc 1 491 29 view .LVU399
 1664 0040 029B     		ldr	r3, [sp, #8]
 490:quantum/rgblight.c ****         rgblight_config.sat = sat;
 1665              		.loc 1 490 29 view .LVU400
 1666 0042 6570     		strb	r5, [r4, #1]
 491:quantum/rgblight.c ****         rgblight_config.val = val;
 1667              		.loc 1 491 9 is_stmt 1 view .LVU401
 491:quantum/rgblight.c ****         rgblight_config.val = val;
 1668              		.loc 1 491 29 is_stmt 0 view .LVU402
 1669 0044 A370     		strb	r3, [r4, #2]
 492:quantum/rgblight.c ****         if (write_to_eeprom) {
 1670              		.loc 1 492 9 is_stmt 1 view .LVU403
 493:quantum/rgblight.c ****             eeconfig_update_rgblight(rgblight_config.raw);
 1671              		.loc 1 493 12 is_stmt 0 view .LVU404
 1672 0046 069B     		ldr	r3, [sp, #24]
 492:quantum/rgblight.c ****         if (write_to_eeprom) {
 1673              		.loc 1 492 29 view .LVU405
 1674 0048 E670     		strb	r6, [r4, #3]
 493:quantum/rgblight.c ****             eeconfig_update_rgblight(rgblight_config.raw);
 1675              		.loc 1 493 9 is_stmt 1 view .LVU406
 1676 004a 344F     		ldr	r7, .L167+12
 493:quantum/rgblight.c ****             eeconfig_update_rgblight(rgblight_config.raw);
 1677              		.loc 1 493 12 is_stmt 0 view .LVU407
 1678 004c 002B     		cmp	r3, #0
 1679 004e 57D0     		beq	.L152
 494:quantum/rgblight.c ****             dprintf("rgblight set hsv [EEPROM]: %u,%u,%u\n", rgblight_config.hue, rgblight_config.s
 1680              		.loc 1 494 13 is_stmt 1 view .LVU408
 1681 0050 2068     		ldr	r0, [r4]
 1682 0052 FFF7FEFF 		bl	eeconfig_update_rgblight
 1683              	.LVL94:
 495:quantum/rgblight.c ****         } else {
 1684              		.loc 1 495 13 view .LVU409
 495:quantum/rgblight.c ****         } else {
 1685              		.loc 1 495 13 view .LVU410
 1686 0056 3B78     		ldrb	r3, [r7]
 1687 0058 DB07     		lsls	r3, r3, #31
 1688 005a 05D5     		bpl	.L139
 495:quantum/rgblight.c ****         } else {
 1689              		.loc 1 495 13 discriminator 1 view .LVU411
 1690 005c E378     		ldrb	r3, [r4, #3]
 1691 005e A278     		ldrb	r2, [r4, #2]
 1692 0060 6178     		ldrb	r1, [r4, #1]
 1693 0062 2F48     		ldr	r0, .L167+16
 1694              	.L166:
 497:quantum/rgblight.c ****         }
 1695              		.loc 1 497 13 is_stmt 0 discriminator 1 view .LVU412
 1696 0064 FFF7FEFF 		bl	tfp_printf
 1697              	.LVL95:
 1698              	.L139:
 500:quantum/rgblight.c **** 
 1699              		.loc 1 500 1 view .LVU413
 1700 0068 0BB0     		add	sp, sp, #44
 1701              		@ sp needed
 1702 006a F0BD     		pop	{r4, r5, r6, r7, pc}
 1703              	.LVL96:
 1704              	.L142:
 440:quantum/rgblight.c ****             }
 1705              		.loc 1 440 13 is_stmt 1 view .LVU414
 443:quantum/rgblight.c ****                 // breathing mode, ignore the change of val, use in memory value instead
 1706              		.loc 1 443 18 view .LVU415
 443:quantum/rgblight.c ****                 // breathing mode, ignore the change of val, use in memory value instead
 1707              		.loc 1 443 21 is_stmt 0 view .LVU416
 1708 006c 0229     		cmp	r1, #2
 1709 006e 01D1     		bne	.L144
 445:quantum/rgblight.c ****             }
 1710              		.loc 1 445 17 is_stmt 1 view .LVU417
 445:quantum/rgblight.c ****             }
 1711              		.loc 1 445 21 is_stmt 0 view .LVU418
 1712 0070 E678     		ldrb	r6, [r4, #3]
 1713              	.LVL97:
 445:quantum/rgblight.c ****             }
 1714              		.loc 1 445 21 view .LVU419
 1715 0072 E4E7     		b	.L143
 1716              	.LVL98:
 1717              	.L144:
 449:quantum/rgblight.c ****                 // rainbow mood, ignore the change of hue
 1718              		.loc 1 449 18 is_stmt 1 view .LVU420
 449:quantum/rgblight.c ****                 // rainbow mood, ignore the change of hue
 1719              		.loc 1 449 21 is_stmt 0 view .LVU421
 1720 0074 0629     		cmp	r1, #6
 1721 0076 02D1     		bne	.L145
 1722              	.L146:
 451:quantum/rgblight.c ****             }
 1723              		.loc 1 451 17 is_stmt 1 view .LVU422
 451:quantum/rgblight.c ****             }
 1724              		.loc 1 451 21 is_stmt 0 view .LVU423
 1725 0078 254B     		ldr	r3, .L167
 1726 007a 5D78     		ldrb	r5, [r3, #1]
 1727              	.LVL99:
 451:quantum/rgblight.c ****             }
 1728              		.loc 1 451 21 view .LVU424
 1729 007c DFE7     		b	.L143
 1730              	.LVL100:
 1731              	.L145:
 455:quantum/rgblight.c ****                 // rainbow swirl, ignore the change of hue
 1732              		.loc 1 455 18 is_stmt 1 view .LVU425
 455:quantum/rgblight.c ****                 // rainbow swirl, ignore the change of hue
 1733              		.loc 1 455 21 is_stmt 0 view .LVU426
 1734 007e 0929     		cmp	r1, #9
 1735 0080 FAD0     		beq	.L146
 461:quantum/rgblight.c ****                 // static gradient
 1736              		.loc 1 461 18 is_stmt 1 view .LVU427
 461:quantum/rgblight.c ****                 // static gradient
 1737              		.loc 1 461 21 is_stmt 0 view .LVU428
 1738 0082 1929     		cmp	r1, #25
 1739 0084 DBD1     		bne	.L143
 1740              	.LBB104:
 463:quantum/rgblight.c ****                 bool    direction = (delta % 2) == 0;
 1741              		.loc 1 463 17 is_stmt 1 view .LVU429
 463:quantum/rgblight.c ****                 bool    direction = (delta % 2) == 0;
 1742              		.loc 1 463 25 is_stmt 0 view .LVU430
 1743 0086 193B     		subs	r3, r3, #25
 1744 0088 DBB2     		uxtb	r3, r3
 1745              	.LVL101:
 464:quantum/rgblight.c **** #    ifdef __AVR__
 1746              		.loc 1 464 17 is_stmt 1 view .LVU431
 464:quantum/rgblight.c **** #    ifdef __AVR__
 1747              		.loc 1 464 49 is_stmt 0 view .LVU432
 1748 008a 1900     		movs	r1, r3
 1749 008c 1140     		ands	r1, r2
 1750 008e 0491     		str	r1, [sp, #16]
 1751 0090 1100     		movs	r1, r2
 1752              	.LBB105:
 471:quantum/rgblight.c ****                     uint8_t _hue = ((uint16_t)i * (uint16_t)range) / effect_num_leds;
 1753              		.loc 1 471 30 view .LVU433
 1754 0092 0024     		movs	r4, #0
 1755 0094 9943     		bics	r1, r3
 1756 0096 0591     		str	r1, [sp, #20]
 1757              	.LVL102:
 471:quantum/rgblight.c ****                     uint8_t _hue = ((uint16_t)i * (uint16_t)range) / effect_num_leds;
 1758              		.loc 1 471 30 view .LVU434
 1759              	.LBE105:
 469:quantum/rgblight.c **** #    endif
 1760              		.loc 1 469 17 is_stmt 1 view .LVU435
 469:quantum/rgblight.c **** #    endif
 1761              		.loc 1 469 25 is_stmt 0 view .LVU436
 1762 0098 2249     		ldr	r1, .L167+20
 469:quantum/rgblight.c **** #    endif
 1763              		.loc 1 469 62 view .LVU437
 1764 009a 5B08     		lsrs	r3, r3, #1
 1765              	.LVL103:
 469:quantum/rgblight.c **** #    endif
 1766              		.loc 1 469 25 view .LVU438
 1767 009c CB5C     		ldrb	r3, [r1, r3]
 1768              	.LBB117:
 1769              	.LBB106:
 478:quantum/rgblight.c ****                     sethsv(_hue, sat, val, (LED_TYPE *)&led[i + effect_start_pos]);
 1770              		.loc 1 478 21 view .LVU439
 1771 009e 0792     		str	r2, [sp, #28]
 1772              	.LBE106:
 1773              	.LBE117:
 469:quantum/rgblight.c **** #    endif
 1774              		.loc 1 469 25 view .LVU440
 1775 00a0 0393     		str	r3, [sp, #12]
 1776              	.LVL104:
 471:quantum/rgblight.c ****                     uint8_t _hue = ((uint16_t)i * (uint16_t)range) / effect_num_leds;
 1777              		.loc 1 471 17 is_stmt 1 view .LVU441
 1778              	.LBB118:
 471:quantum/rgblight.c ****                     uint8_t _hue = ((uint16_t)i * (uint16_t)range) / effect_num_leds;
 1779              		.loc 1 471 22 view .LVU442
 1780              	.L147:
 471:quantum/rgblight.c ****                     uint8_t _hue = ((uint16_t)i * (uint16_t)range) / effect_num_leds;
 1781              		.loc 1 471 39 is_stmt 0 discriminator 1 view .LVU443
 1782 00a2 214B     		ldr	r3, .L167+24
 1783 00a4 1978     		ldrb	r1, [r3]
 471:quantum/rgblight.c ****                     uint8_t _hue = ((uint16_t)i * (uint16_t)range) / effect_num_leds;
 1784              		.loc 1 471 17 discriminator 1 view .LVU444
 1785 00a6 A142     		cmp	r1, r4
 1786 00a8 02D8     		bhi	.L151
 1787              	.LBE118:
 481:quantum/rgblight.c ****             }
 1788              		.loc 1 481 17 is_stmt 1 view .LVU445
 1789 00aa FFF7FEFF 		bl	rgblight_set
 1790              	.LVL105:
 1791 00ae C6E7     		b	.L143
 1792              	.L151:
 1793              	.LBB119:
 1794              	.LBB115:
 472:quantum/rgblight.c ****                     if (direction) {
 1795              		.loc 1 472 21 view .LVU446
 472:quantum/rgblight.c ****                     if (direction) {
 1796              		.loc 1 472 68 is_stmt 0 view .LVU447
 1797 00b0 0398     		ldr	r0, [sp, #12]
 1798 00b2 6043     		muls	r0, r4
 1799 00b4 FFF7FEFF 		bl	__aeabi_idiv
 1800              	.LVL106:
 473:quantum/rgblight.c ****                         _hue = hue + _hue;
 1801              		.loc 1 473 24 view .LVU448
 1802 00b8 049B     		ldr	r3, [sp, #16]
 472:quantum/rgblight.c ****                     if (direction) {
 1803              		.loc 1 472 29 view .LVU449
 1804 00ba C0B2     		uxtb	r0, r0
 1805              	.LVL107:
 473:quantum/rgblight.c ****                         _hue = hue + _hue;
 1806              		.loc 1 473 21 is_stmt 1 view .LVU450
 476:quantum/rgblight.c ****                     }
 1807              		.loc 1 476 30 is_stmt 0 view .LVU451
 1808 00bc 2F1A     		subs	r7, r5, r0
 1809 00be FFB2     		uxtb	r7, r7
 473:quantum/rgblight.c ****                         _hue = hue + _hue;
 1810              		.loc 1 473 24 view .LVU452
 1811 00c0 002B     		cmp	r3, #0
 1812 00c2 01D1     		bne	.L149
 474:quantum/rgblight.c ****                     } else {
 1813              		.loc 1 474 25 is_stmt 1 view .LVU453
 474:quantum/rgblight.c ****                     } else {
 1814              		.loc 1 474 30 is_stmt 0 view .LVU454
 1815 00c4 2818     		adds	r0, r5, r0
 1816              	.LVL108:
 474:quantum/rgblight.c ****                     } else {
 1817              		.loc 1 474 30 view .LVU455
 1818 00c6 C7B2     		uxtb	r7, r0
 1819              	.LVL109:
 1820              	.L149:
 478:quantum/rgblight.c ****                     sethsv(_hue, sat, val, (LED_TYPE *)&led[i + effect_start_pos]);
 1821              		.loc 1 478 21 is_stmt 1 view .LVU456
 478:quantum/rgblight.c ****                     sethsv(_hue, sat, val, (LED_TYPE *)&led[i + effect_start_pos]);
 1822              		.loc 1 478 21 view .LVU457
 1823 00c8 144B     		ldr	r3, .L167+12
 1824 00ca 079A     		ldr	r2, [sp, #28]
 1825 00cc 1B78     		ldrb	r3, [r3]
 1826 00ce 1342     		tst	r3, r2
 1827 00d0 07D0     		beq	.L150
 478:quantum/rgblight.c ****                     sethsv(_hue, sat, val, (LED_TYPE *)&led[i + effect_start_pos]);
 1828              		.loc 1 478 21 discriminator 1 view .LVU458
 1829 00d2 039B     		ldr	r3, [sp, #12]
 1830 00d4 3A00     		movs	r2, r7
 1831 00d6 0093     		str	r3, [sp]
 1832 00d8 2100     		movs	r1, r4
 1833 00da 059B     		ldr	r3, [sp, #20]
 1834 00dc 1348     		ldr	r0, .L167+28
 1835 00de FFF7FEFF 		bl	tfp_printf
 1836              	.LVL110:
 1837              	.L150:
 479:quantum/rgblight.c ****                 }
 1838              		.loc 1 479 21 discriminator 2 view .LVU459
 1839              	.LBB107:
 1840              	.LBI107:
 135:quantum/rgblight.c **** 
 1841              		.loc 1 135 6 discriminator 2 view .LVU460
 1842              	.LBB108:
 135:quantum/rgblight.c **** 
 1843              		.loc 1 135 70 discriminator 2 view .LVU461
 1844              	.LBE108:
 1845              	.LBE107:
 479:quantum/rgblight.c ****                 }
 1846              		.loc 1 479 21 is_stmt 0 discriminator 2 view .LVU462
 1847 00e2 0322     		movs	r2, #3
 479:quantum/rgblight.c ****                 }
 1848              		.loc 1 479 63 discriminator 2 view .LVU463
 1849 00e4 124B     		ldr	r3, .L167+32
 1850              	.LBB112:
 1851              	.LBB109:
 135:quantum/rgblight.c **** 
 1852              		.loc 1 135 70 discriminator 2 view .LVU464
 1853 00e6 0299     		ldr	r1, [sp, #8]
 1854              	.LBE109:
 1855              	.LBE112:
 479:quantum/rgblight.c ****                 }
 1856              		.loc 1 479 63 discriminator 2 view .LVU465
 1857 00e8 1B78     		ldrb	r3, [r3]
 1858              	.LBB113:
 1859              	.LBB110:
 135:quantum/rgblight.c **** 
 1860              		.loc 1 135 70 discriminator 2 view .LVU466
 1861 00ea 3800     		movs	r0, r7
 1862              	.LBE110:
 1863              	.LBE113:
 479:quantum/rgblight.c ****                 }
 1864              		.loc 1 479 63 discriminator 2 view .LVU467
 1865 00ec 1B19     		adds	r3, r3, r4
 479:quantum/rgblight.c ****                 }
 1866              		.loc 1 479 21 discriminator 2 view .LVU468
 1867 00ee 5343     		muls	r3, r2
 1868 00f0 104A     		ldr	r2, .L167+36
 1869              	.LBE115:
 471:quantum/rgblight.c ****                     uint8_t _hue = ((uint16_t)i * (uint16_t)range) / effect_num_leds;
 1870              		.loc 1 471 59 discriminator 2 view .LVU469
 1871 00f2 0134     		adds	r4, r4, #1
 1872              	.LVL111:
 1873              	.LBB116:
 479:quantum/rgblight.c ****                 }
 1874              		.loc 1 479 21 discriminator 2 view .LVU470
 1875 00f4 D318     		adds	r3, r2, r3
 1876              	.LBB114:
 1877              	.LBB111:
 135:quantum/rgblight.c **** 
 1878              		.loc 1 135 70 discriminator 2 view .LVU471
 1879 00f6 3200     		movs	r2, r6
 1880 00f8 FFF7FEFF 		bl	sethsv_raw
 1881              	.LVL112:
 135:quantum/rgblight.c **** 
 1882              		.loc 1 135 70 discriminator 2 view .LVU472
 1883              	.LBE111:
 1884              	.LBE114:
 1885              	.LBE116:
 471:quantum/rgblight.c ****                     uint8_t _hue = ((uint16_t)i * (uint16_t)range) / effect_num_leds;
 1886              		.loc 1 471 59 discriminator 2 view .LVU473
 1887 00fc E4B2     		uxtb	r4, r4
 1888              	.LVL113:
 471:quantum/rgblight.c ****                     uint8_t _hue = ((uint16_t)i * (uint16_t)range) / effect_num_leds;
 1889              		.loc 1 471 59 discriminator 2 view .LVU474
 1890 00fe D0E7     		b	.L147
 1891              	.LVL114:
 1892              	.L152:
 471:quantum/rgblight.c ****                     uint8_t _hue = ((uint16_t)i * (uint16_t)range) / effect_num_leds;
 1893              		.loc 1 471 59 discriminator 2 view .LVU475
 1894              	.LBE119:
 1895              	.LBE104:
 497:quantum/rgblight.c ****         }
 1896              		.loc 1 497 13 is_stmt 1 view .LVU476
 497:quantum/rgblight.c ****         }
 1897              		.loc 1 497 13 view .LVU477
 1898 0100 3B78     		ldrb	r3, [r7]
 1899 0102 DB07     		lsls	r3, r3, #31
 1900 0104 B0D5     		bpl	.L139
 497:quantum/rgblight.c ****         }
 1901              		.loc 1 497 13 discriminator 1 view .LVU478
 1902 0106 3300     		movs	r3, r6
 1903 0108 029A     		ldr	r2, [sp, #8]
 1904 010a 2900     		movs	r1, r5
 1905 010c 0A48     		ldr	r0, .L167+40
 1906 010e A9E7     		b	.L166
 1907              	.L168:
 1908              		.align	2
 1909              	.L167:
 1910 0110 00000000 		.word	.LANCHOR5
 1911 0114 00000000 		.word	.LANCHOR8
 1912 0118 00000000 		.word	.LANCHOR9
 1913 011c 00000000 		.word	debug_config
 1914 0120 27000000 		.word	.LC63
 1915 0124 00000000 		.word	RGBLED_GRADIENT_RANGES
 1916 0128 00000000 		.word	.LANCHOR4
 1917 012c 00000000 		.word	.LC58
 1918 0130 00000000 		.word	.LANCHOR2
 1919 0134 00000000 		.word	.LANCHOR6
 1920 0138 4C000000 		.word	.LC65
 1921              		.cfi_endproc
 1922              	.LFE312:
 1924              		.section	.text.rgblight_increase_hue_helper,"ax",%progbits
 1925              		.align	1
 1926              		.global	rgblight_increase_hue_helper
 1927              		.syntax unified
 1928              		.code	16
 1929              		.thumb_func
 1930              		.fpu softvfp
 1932              	rgblight_increase_hue_helper:
 1933              	.LVL115:
 1934              	.LFB291:
 374:quantum/rgblight.c ****     uint8_t hue = rgblight_config.hue + RGBLIGHT_HUE_STEP;
 1935              		.loc 1 374 57 view -0
 1936              		.cfi_startproc
 1937              		@ args = 0, pretend = 0, frame = 0
 1938              		@ frame_needed = 0, uses_anonymous_args = 0
 375:quantum/rgblight.c ****     rgblight_sethsv_eeprom_helper(hue, rgblight_config.sat, rgblight_config.val, write_to_eeprom);
 1939              		.loc 1 375 5 view .LVU480
 376:quantum/rgblight.c **** }
 1940              		.loc 1 376 5 view .LVU481
 374:quantum/rgblight.c ****     uint8_t hue = rgblight_config.hue + RGBLIGHT_HUE_STEP;
 1941              		.loc 1 374 57 is_stmt 0 view .LVU482
 1942 0000 10B5     		push	{r4, lr}
 1943              		.cfi_def_cfa_offset 8
 1944              		.cfi_offset 4, -8
 1945              		.cfi_offset 14, -4
 376:quantum/rgblight.c **** }
 1946              		.loc 1 376 5 view .LVU483
 1947 0002 054C     		ldr	r4, .L170
 374:quantum/rgblight.c ****     uint8_t hue = rgblight_config.hue + RGBLIGHT_HUE_STEP;
 1948              		.loc 1 374 57 view .LVU484
 1949 0004 0300     		movs	r3, r0
 376:quantum/rgblight.c **** }
 1950              		.loc 1 376 5 view .LVU485
 1951 0006 E278     		ldrb	r2, [r4, #3]
 1952 0008 A178     		ldrb	r1, [r4, #2]
 375:quantum/rgblight.c ****     rgblight_sethsv_eeprom_helper(hue, rgblight_config.sat, rgblight_config.val, write_to_eeprom);
 1953              		.loc 1 375 13 view .LVU486
 1954 000a 6478     		ldrb	r4, [r4, #1]
 377:quantum/rgblight.c **** void rgblight_increase_hue_noeeprom(void) { rgblight_increase_hue_helper(false); }
 1955              		.loc 1 377 1 view .LVU487
 1956              		@ sp needed
 375:quantum/rgblight.c ****     rgblight_sethsv_eeprom_helper(hue, rgblight_config.sat, rgblight_config.val, write_to_eeprom);
 1957              		.loc 1 375 13 view .LVU488
 1958 000c 0834     		adds	r4, r4, #8
 376:quantum/rgblight.c **** }
 1959              		.loc 1 376 5 view .LVU489
 1960 000e E0B2     		uxtb	r0, r4
 1961              	.LVL116:
 376:quantum/rgblight.c **** }
 1962              		.loc 1 376 5 view .LVU490
 1963 0010 FFF7FEFF 		bl	rgblight_sethsv_eeprom_helper
 1964              	.LVL117:
 377:quantum/rgblight.c **** void rgblight_increase_hue_noeeprom(void) { rgblight_increase_hue_helper(false); }
 1965              		.loc 1 377 1 view .LVU491
 1966 0014 10BD     		pop	{r4, pc}
 1967              	.L171:
 1968 0016 C046     		.align	2
 1969              	.L170:
 1970 0018 00000000 		.word	.LANCHOR5
 1971              		.cfi_endproc
 1972              	.LFE291:
 1974              		.section	.text.rgblight_increase_hue_noeeprom,"ax",%progbits
 1975              		.align	1
 1976              		.global	rgblight_increase_hue_noeeprom
 1977              		.syntax unified
 1978              		.code	16
 1979              		.thumb_func
 1980              		.fpu softvfp
 1982              	rgblight_increase_hue_noeeprom:
 1983              	.LFB292:
 378:quantum/rgblight.c **** void rgblight_increase_hue(void) { rgblight_increase_hue_helper(true); }
 1984              		.loc 1 378 43 is_stmt 1 view -0
 1985              		.cfi_startproc
 1986              		@ args = 0, pretend = 0, frame = 0
 1987              		@ frame_needed = 0, uses_anonymous_args = 0
 378:quantum/rgblight.c **** void rgblight_increase_hue(void) { rgblight_increase_hue_helper(true); }
 1988              		.loc 1 378 45 view .LVU493
 378:quantum/rgblight.c **** void rgblight_increase_hue(void) { rgblight_increase_hue_helper(true); }
 1989              		.loc 1 378 43 is_stmt 0 view .LVU494
 1990 0000 10B5     		push	{r4, lr}
 1991              		.cfi_def_cfa_offset 8
 1992              		.cfi_offset 4, -8
 1993              		.cfi_offset 14, -4
 378:quantum/rgblight.c **** void rgblight_increase_hue(void) { rgblight_increase_hue_helper(true); }
 1994              		.loc 1 378 45 view .LVU495
 1995 0002 0020     		movs	r0, #0
 1996 0004 FFF7FEFF 		bl	rgblight_increase_hue_helper
 1997              	.LVL118:
 378:quantum/rgblight.c **** void rgblight_increase_hue(void) { rgblight_increase_hue_helper(true); }
 1998              		.loc 1 378 1 view .LVU496
 1999              		@ sp needed
 2000 0008 10BD     		pop	{r4, pc}
 2001              		.cfi_endproc
 2002              	.LFE292:
 2004              		.section	.text.rgblight_increase_hue,"ax",%progbits
 2005              		.align	1
 2006              		.global	rgblight_increase_hue
 2007              		.syntax unified
 2008              		.code	16
 2009              		.thumb_func
 2010              		.fpu softvfp
 2012              	rgblight_increase_hue:
 2013              	.LFB293:
 379:quantum/rgblight.c **** void rgblight_decrease_hue_helper(bool write_to_eeprom) {
 2014              		.loc 1 379 34 is_stmt 1 view -0
 2015              		.cfi_startproc
 2016              		@ args = 0, pretend = 0, frame = 0
 2017              		@ frame_needed = 0, uses_anonymous_args = 0
 379:quantum/rgblight.c **** void rgblight_decrease_hue_helper(bool write_to_eeprom) {
 2018              		.loc 1 379 36 view .LVU498
 379:quantum/rgblight.c **** void rgblight_decrease_hue_helper(bool write_to_eeprom) {
 2019              		.loc 1 379 34 is_stmt 0 view .LVU499
 2020 0000 10B5     		push	{r4, lr}
 2021              		.cfi_def_cfa_offset 8
 2022              		.cfi_offset 4, -8
 2023              		.cfi_offset 14, -4
 379:quantum/rgblight.c **** void rgblight_decrease_hue_helper(bool write_to_eeprom) {
 2024              		.loc 1 379 36 view .LVU500
 2025 0002 0120     		movs	r0, #1
 2026 0004 FFF7FEFF 		bl	rgblight_increase_hue_helper
 2027              	.LVL119:
 379:quantum/rgblight.c **** void rgblight_decrease_hue_helper(bool write_to_eeprom) {
 2028              		.loc 1 379 1 view .LVU501
 2029              		@ sp needed
 2030 0008 10BD     		pop	{r4, pc}
 2031              		.cfi_endproc
 2032              	.LFE293:
 2034              		.section	.text.rgblight_decrease_hue_helper,"ax",%progbits
 2035              		.align	1
 2036              		.global	rgblight_decrease_hue_helper
 2037              		.syntax unified
 2038              		.code	16
 2039              		.thumb_func
 2040              		.fpu softvfp
 2042              	rgblight_decrease_hue_helper:
 2043              	.LVL120:
 2044              	.LFB294:
 380:quantum/rgblight.c ****     uint8_t hue = rgblight_config.hue - RGBLIGHT_HUE_STEP;
 2045              		.loc 1 380 57 is_stmt 1 view -0
 2046              		.cfi_startproc
 2047              		@ args = 0, pretend = 0, frame = 0
 2048              		@ frame_needed = 0, uses_anonymous_args = 0
 381:quantum/rgblight.c ****     rgblight_sethsv_eeprom_helper(hue, rgblight_config.sat, rgblight_config.val, write_to_eeprom);
 2049              		.loc 1 381 5 view .LVU503
 382:quantum/rgblight.c **** }
 2050              		.loc 1 382 5 view .LVU504
 380:quantum/rgblight.c ****     uint8_t hue = rgblight_config.hue - RGBLIGHT_HUE_STEP;
 2051              		.loc 1 380 57 is_stmt 0 view .LVU505
 2052 0000 10B5     		push	{r4, lr}
 2053              		.cfi_def_cfa_offset 8
 2054              		.cfi_offset 4, -8
 2055              		.cfi_offset 14, -4
 382:quantum/rgblight.c **** }
 2056              		.loc 1 382 5 view .LVU506
 2057 0002 054C     		ldr	r4, .L175
 380:quantum/rgblight.c ****     uint8_t hue = rgblight_config.hue - RGBLIGHT_HUE_STEP;
 2058              		.loc 1 380 57 view .LVU507
 2059 0004 0300     		movs	r3, r0
 382:quantum/rgblight.c **** }
 2060              		.loc 1 382 5 view .LVU508
 2061 0006 E278     		ldrb	r2, [r4, #3]
 2062 0008 A178     		ldrb	r1, [r4, #2]
 381:quantum/rgblight.c ****     rgblight_sethsv_eeprom_helper(hue, rgblight_config.sat, rgblight_config.val, write_to_eeprom);
 2063              		.loc 1 381 13 view .LVU509
 2064 000a 6478     		ldrb	r4, [r4, #1]
 383:quantum/rgblight.c **** void rgblight_decrease_hue_noeeprom(void) { rgblight_decrease_hue_helper(false); }
 2065              		.loc 1 383 1 view .LVU510
 2066              		@ sp needed
 381:quantum/rgblight.c ****     rgblight_sethsv_eeprom_helper(hue, rgblight_config.sat, rgblight_config.val, write_to_eeprom);
 2067              		.loc 1 381 13 view .LVU511
 2068 000c 083C     		subs	r4, r4, #8
 382:quantum/rgblight.c **** }
 2069              		.loc 1 382 5 view .LVU512
 2070 000e E0B2     		uxtb	r0, r4
 2071              	.LVL121:
 382:quantum/rgblight.c **** }
 2072              		.loc 1 382 5 view .LVU513
 2073 0010 FFF7FEFF 		bl	rgblight_sethsv_eeprom_helper
 2074              	.LVL122:
 383:quantum/rgblight.c **** void rgblight_decrease_hue_noeeprom(void) { rgblight_decrease_hue_helper(false); }
 2075              		.loc 1 383 1 view .LVU514
 2076 0014 10BD     		pop	{r4, pc}
 2077              	.L176:
 2078 0016 C046     		.align	2
 2079              	.L175:
 2080 0018 00000000 		.word	.LANCHOR5
 2081              		.cfi_endproc
 2082              	.LFE294:
 2084              		.section	.text.rgblight_decrease_hue_noeeprom,"ax",%progbits
 2085              		.align	1
 2086              		.global	rgblight_decrease_hue_noeeprom
 2087              		.syntax unified
 2088              		.code	16
 2089              		.thumb_func
 2090              		.fpu softvfp
 2092              	rgblight_decrease_hue_noeeprom:
 2093              	.LFB295:
 384:quantum/rgblight.c **** void rgblight_decrease_hue(void) { rgblight_decrease_hue_helper(true); }
 2094              		.loc 1 384 43 is_stmt 1 view -0
 2095              		.cfi_startproc
 2096              		@ args = 0, pretend = 0, frame = 0
 2097              		@ frame_needed = 0, uses_anonymous_args = 0
 384:quantum/rgblight.c **** void rgblight_decrease_hue(void) { rgblight_decrease_hue_helper(true); }
 2098              		.loc 1 384 45 view .LVU516
 384:quantum/rgblight.c **** void rgblight_decrease_hue(void) { rgblight_decrease_hue_helper(true); }
 2099              		.loc 1 384 43 is_stmt 0 view .LVU517
 2100 0000 10B5     		push	{r4, lr}
 2101              		.cfi_def_cfa_offset 8
 2102              		.cfi_offset 4, -8
 2103              		.cfi_offset 14, -4
 384:quantum/rgblight.c **** void rgblight_decrease_hue(void) { rgblight_decrease_hue_helper(true); }
 2104              		.loc 1 384 45 view .LVU518
 2105 0002 0020     		movs	r0, #0
 2106 0004 FFF7FEFF 		bl	rgblight_decrease_hue_helper
 2107              	.LVL123:
 384:quantum/rgblight.c **** void rgblight_decrease_hue(void) { rgblight_decrease_hue_helper(true); }
 2108              		.loc 1 384 1 view .LVU519
 2109              		@ sp needed
 2110 0008 10BD     		pop	{r4, pc}
 2111              		.cfi_endproc
 2112              	.LFE295:
 2114              		.section	.text.rgblight_decrease_hue,"ax",%progbits
 2115              		.align	1
 2116              		.global	rgblight_decrease_hue
 2117              		.syntax unified
 2118              		.code	16
 2119              		.thumb_func
 2120              		.fpu softvfp
 2122              	rgblight_decrease_hue:
 2123              	.LFB296:
 385:quantum/rgblight.c **** void rgblight_increase_sat_helper(bool write_to_eeprom) {
 2124              		.loc 1 385 34 is_stmt 1 view -0
 2125              		.cfi_startproc
 2126              		@ args = 0, pretend = 0, frame = 0
 2127              		@ frame_needed = 0, uses_anonymous_args = 0
 385:quantum/rgblight.c **** void rgblight_increase_sat_helper(bool write_to_eeprom) {
 2128              		.loc 1 385 36 view .LVU521
 385:quantum/rgblight.c **** void rgblight_increase_sat_helper(bool write_to_eeprom) {
 2129              		.loc 1 385 34 is_stmt 0 view .LVU522
 2130 0000 10B5     		push	{r4, lr}
 2131              		.cfi_def_cfa_offset 8
 2132              		.cfi_offset 4, -8
 2133              		.cfi_offset 14, -4
 385:quantum/rgblight.c **** void rgblight_increase_sat_helper(bool write_to_eeprom) {
 2134              		.loc 1 385 36 view .LVU523
 2135 0002 0120     		movs	r0, #1
 2136 0004 FFF7FEFF 		bl	rgblight_decrease_hue_helper
 2137              	.LVL124:
 385:quantum/rgblight.c **** void rgblight_increase_sat_helper(bool write_to_eeprom) {
 2138              		.loc 1 385 1 view .LVU524
 2139              		@ sp needed
 2140 0008 10BD     		pop	{r4, pc}
 2141              		.cfi_endproc
 2142              	.LFE296:
 2144              		.section	.text.rgblight_increase_sat_helper,"ax",%progbits
 2145              		.align	1
 2146              		.global	rgblight_increase_sat_helper
 2147              		.syntax unified
 2148              		.code	16
 2149              		.thumb_func
 2150              		.fpu softvfp
 2152              	rgblight_increase_sat_helper:
 2153              	.LVL125:
 2154              	.LFB297:
 386:quantum/rgblight.c ****     uint8_t sat = qadd8(rgblight_config.sat, RGBLIGHT_SAT_STEP);
 2155              		.loc 1 386 57 is_stmt 1 view -0
 2156              		.cfi_startproc
 2157              		@ args = 0, pretend = 0, frame = 0
 2158              		@ frame_needed = 0, uses_anonymous_args = 0
 387:quantum/rgblight.c ****     rgblight_sethsv_eeprom_helper(rgblight_config.hue, sat, rgblight_config.val, write_to_eeprom);
 2159              		.loc 1 387 5 view .LVU526
 2160              	.LBB120:
 2161              	.LBI120:
 2162              		.file 2 "./lib/lib8tion/math8.h"
   1:./lib/lib8tion/math8.h **** #ifndef __INC_LIB8TION_MATH_H
   2:./lib/lib8tion/math8.h **** #define __INC_LIB8TION_MATH_H
   3:./lib/lib8tion/math8.h **** 
   4:./lib/lib8tion/math8.h **** #include "scale8.h"
   5:./lib/lib8tion/math8.h **** 
   6:./lib/lib8tion/math8.h **** ///@ingroup lib8tion
   7:./lib/lib8tion/math8.h **** 
   8:./lib/lib8tion/math8.h **** ///@defgroup Math Basic math operations
   9:./lib/lib8tion/math8.h **** /// Fast, efficient 8-bit math functions specifically
  10:./lib/lib8tion/math8.h **** /// designed for high-performance LED programming.
  11:./lib/lib8tion/math8.h **** ///
  12:./lib/lib8tion/math8.h **** /// Because of the AVR(Arduino) and ARM assembly language
  13:./lib/lib8tion/math8.h **** /// implementations provided, using these functions often
  14:./lib/lib8tion/math8.h **** /// results in smaller and faster code than the equivalent
  15:./lib/lib8tion/math8.h **** /// program using plain "C" arithmetic and logic.
  16:./lib/lib8tion/math8.h **** ///@{
  17:./lib/lib8tion/math8.h **** 
  18:./lib/lib8tion/math8.h **** 
  19:./lib/lib8tion/math8.h **** /// add one byte to another, saturating at 0xFF
  20:./lib/lib8tion/math8.h **** /// @param i - first byte to add
  21:./lib/lib8tion/math8.h **** /// @param j - second byte to add
  22:./lib/lib8tion/math8.h **** /// @returns the sum of i & j, capped at 0xFF
  23:./lib/lib8tion/math8.h **** LIB8STATIC_ALWAYS_INLINE uint8_t qadd8( uint8_t i, uint8_t j)
 2163              		.loc 2 23 34 view .LVU527
 2164              	.LBB121:
  24:./lib/lib8tion/math8.h **** {
  25:./lib/lib8tion/math8.h **** #if QADD8_C == 1
  26:./lib/lib8tion/math8.h ****     uint16_t t = i + j;
 2165              		.loc 2 26 5 view .LVU528
 2166              	.LBE121:
 2167              	.LBE120:
 386:quantum/rgblight.c ****     uint8_t sat = qadd8(rgblight_config.sat, RGBLIGHT_SAT_STEP);
 2168              		.loc 1 386 57 is_stmt 0 view .LVU529
 2169 0000 70B5     		push	{r4, r5, r6, lr}
 2170              		.cfi_def_cfa_offset 16
 2171              		.cfi_offset 4, -16
 2172              		.cfi_offset 5, -12
 2173              		.cfi_offset 6, -8
 2174              		.cfi_offset 14, -4
 387:quantum/rgblight.c ****     rgblight_sethsv_eeprom_helper(rgblight_config.hue, sat, rgblight_config.val, write_to_eeprom);
 2175              		.loc 1 387 19 view .LVU530
 2176 0002 074D     		ldr	r5, .L181
 386:quantum/rgblight.c ****     uint8_t sat = qadd8(rgblight_config.sat, RGBLIGHT_SAT_STEP);
 2177              		.loc 1 386 57 view .LVU531
 2178 0004 0300     		movs	r3, r0
 2179              	.LBB125:
 2180              	.LBB122:
 2181              		.loc 2 26 20 view .LVU532
 2182 0006 AC78     		ldrb	r4, [r5, #2]
 2183              	.LBE122:
 2184              	.LBE125:
 388:quantum/rgblight.c **** }
 2185              		.loc 1 388 5 view .LVU533
 2186 0008 EA78     		ldrb	r2, [r5, #3]
 2187              	.LBB126:
 2188              	.LBB123:
 2189              		.loc 2 26 14 view .LVU534
 2190 000a 1134     		adds	r4, r4, #17
 2191              	.LVL126:
  27:./lib/lib8tion/math8.h ****     if (t > 255) t = 255;
 2192              		.loc 2 27 5 is_stmt 1 view .LVU535
  28:./lib/lib8tion/math8.h ****     return t;
 2193              		.loc 2 28 5 view .LVU536
 2194              		.loc 2 28 5 is_stmt 0 view .LVU537
 2195              	.LBE123:
 2196              	.LBE126:
 388:quantum/rgblight.c **** }
 2197              		.loc 1 388 5 is_stmt 1 view .LVU538
 2198              	.LBB127:
 2199              	.LBB124:
 2200              		.loc 2 28 12 is_stmt 0 view .LVU539
 2201 000c 211C     		adds	r1, r4, #0
 2202 000e FF2C     		cmp	r4, #255
 2203 0010 00D9     		bls	.L180
 2204 0012 FF21     		movs	r1, #255
 2205              	.L180:
 2206              	.LBE124:
 2207              	.LBE127:
 388:quantum/rgblight.c **** }
 2208              		.loc 1 388 5 view .LVU540
 2209 0014 6878     		ldrb	r0, [r5, #1]
 2210              	.LVL127:
 388:quantum/rgblight.c **** }
 2211              		.loc 1 388 5 view .LVU541
 2212 0016 C9B2     		uxtb	r1, r1
 2213 0018 FFF7FEFF 		bl	rgblight_sethsv_eeprom_helper
 2214              	.LVL128:
 389:quantum/rgblight.c **** void rgblight_increase_sat_noeeprom(void) { rgblight_increase_sat_helper(false); }
 2215              		.loc 1 389 1 view .LVU542
 2216              		@ sp needed
 2217              	.LVL129:
 389:quantum/rgblight.c **** void rgblight_increase_sat_noeeprom(void) { rgblight_increase_sat_helper(false); }
 2218              		.loc 1 389 1 view .LVU543
 2219 001c 70BD     		pop	{r4, r5, r6, pc}
 2220              	.L182:
 2221 001e C046     		.align	2
 2222              	.L181:
 2223 0020 00000000 		.word	.LANCHOR5
 2224              		.cfi_endproc
 2225              	.LFE297:
 2227              		.section	.text.rgblight_increase_sat_noeeprom,"ax",%progbits
 2228              		.align	1
 2229              		.global	rgblight_increase_sat_noeeprom
 2230              		.syntax unified
 2231              		.code	16
 2232              		.thumb_func
 2233              		.fpu softvfp
 2235              	rgblight_increase_sat_noeeprom:
 2236              	.LFB298:
 390:quantum/rgblight.c **** void rgblight_increase_sat(void) { rgblight_increase_sat_helper(true); }
 2237              		.loc 1 390 43 is_stmt 1 view -0
 2238              		.cfi_startproc
 2239              		@ args = 0, pretend = 0, frame = 0
 2240              		@ frame_needed = 0, uses_anonymous_args = 0
 390:quantum/rgblight.c **** void rgblight_increase_sat(void) { rgblight_increase_sat_helper(true); }
 2241              		.loc 1 390 45 view .LVU545
 390:quantum/rgblight.c **** void rgblight_increase_sat(void) { rgblight_increase_sat_helper(true); }
 2242              		.loc 1 390 43 is_stmt 0 view .LVU546
 2243 0000 10B5     		push	{r4, lr}
 2244              		.cfi_def_cfa_offset 8
 2245              		.cfi_offset 4, -8
 2246              		.cfi_offset 14, -4
 390:quantum/rgblight.c **** void rgblight_increase_sat(void) { rgblight_increase_sat_helper(true); }
 2247              		.loc 1 390 45 view .LVU547
 2248 0002 0020     		movs	r0, #0
 2249 0004 FFF7FEFF 		bl	rgblight_increase_sat_helper
 2250              	.LVL130:
 390:quantum/rgblight.c **** void rgblight_increase_sat(void) { rgblight_increase_sat_helper(true); }
 2251              		.loc 1 390 1 view .LVU548
 2252              		@ sp needed
 2253 0008 10BD     		pop	{r4, pc}
 2254              		.cfi_endproc
 2255              	.LFE298:
 2257              		.section	.text.rgblight_increase_sat,"ax",%progbits
 2258              		.align	1
 2259              		.global	rgblight_increase_sat
 2260              		.syntax unified
 2261              		.code	16
 2262              		.thumb_func
 2263              		.fpu softvfp
 2265              	rgblight_increase_sat:
 2266              	.LFB299:
 391:quantum/rgblight.c **** void rgblight_decrease_sat_helper(bool write_to_eeprom) {
 2267              		.loc 1 391 34 is_stmt 1 view -0
 2268              		.cfi_startproc
 2269              		@ args = 0, pretend = 0, frame = 0
 2270              		@ frame_needed = 0, uses_anonymous_args = 0
 391:quantum/rgblight.c **** void rgblight_decrease_sat_helper(bool write_to_eeprom) {
 2271              		.loc 1 391 36 view .LVU550
 391:quantum/rgblight.c **** void rgblight_decrease_sat_helper(bool write_to_eeprom) {
 2272              		.loc 1 391 34 is_stmt 0 view .LVU551
 2273 0000 10B5     		push	{r4, lr}
 2274              		.cfi_def_cfa_offset 8
 2275              		.cfi_offset 4, -8
 2276              		.cfi_offset 14, -4
 391:quantum/rgblight.c **** void rgblight_decrease_sat_helper(bool write_to_eeprom) {
 2277              		.loc 1 391 36 view .LVU552
 2278 0002 0120     		movs	r0, #1
 2279 0004 FFF7FEFF 		bl	rgblight_increase_sat_helper
 2280              	.LVL131:
 391:quantum/rgblight.c **** void rgblight_decrease_sat_helper(bool write_to_eeprom) {
 2281              		.loc 1 391 1 view .LVU553
 2282              		@ sp needed
 2283 0008 10BD     		pop	{r4, pc}
 2284              		.cfi_endproc
 2285              	.LFE299:
 2287              		.section	.text.rgblight_decrease_sat_helper,"ax",%progbits
 2288              		.align	1
 2289              		.global	rgblight_decrease_sat_helper
 2290              		.syntax unified
 2291              		.code	16
 2292              		.thumb_func
 2293              		.fpu softvfp
 2295              	rgblight_decrease_sat_helper:
 2296              	.LVL132:
 2297              	.LFB300:
 392:quantum/rgblight.c ****     uint8_t sat = qsub8(rgblight_config.sat, RGBLIGHT_SAT_STEP);
 2298              		.loc 1 392 57 is_stmt 1 view -0
 2299              		.cfi_startproc
 2300              		@ args = 0, pretend = 0, frame = 0
 2301              		@ frame_needed = 0, uses_anonymous_args = 0
 393:quantum/rgblight.c ****     rgblight_sethsv_eeprom_helper(rgblight_config.hue, sat, rgblight_config.val, write_to_eeprom);
 2302              		.loc 1 393 5 view .LVU555
 2303              	.LBB128:
 2304              	.LBI128:
  29:./lib/lib8tion/math8.h **** #elif QADD8_AVRASM == 1
  30:./lib/lib8tion/math8.h ****     asm volatile(
  31:./lib/lib8tion/math8.h ****          /* First, add j to i, conditioning the C flag */
  32:./lib/lib8tion/math8.h ****          "add %0, %1    \n\t"
  33:./lib/lib8tion/math8.h **** 
  34:./lib/lib8tion/math8.h ****          /* Now test the C flag.
  35:./lib/lib8tion/math8.h ****            If C is clear, we branch around a load of 0xFF into i.
  36:./lib/lib8tion/math8.h ****            If C is set, we go ahead and load 0xFF into i.
  37:./lib/lib8tion/math8.h ****          */
  38:./lib/lib8tion/math8.h ****          "brcc L_%=     \n\t"
  39:./lib/lib8tion/math8.h ****          "ldi %0, 0xFF  \n\t"
  40:./lib/lib8tion/math8.h ****          "L_%=: "
  41:./lib/lib8tion/math8.h ****          : "+a" (i)
  42:./lib/lib8tion/math8.h ****          : "a"  (j) );
  43:./lib/lib8tion/math8.h ****     return i;
  44:./lib/lib8tion/math8.h **** #elif QADD8_ARM_DSP_ASM == 1
  45:./lib/lib8tion/math8.h ****     asm volatile( "uqadd8 %0, %0, %1" : "+r" (i) : "r" (j));
  46:./lib/lib8tion/math8.h ****     return i;
  47:./lib/lib8tion/math8.h **** #else
  48:./lib/lib8tion/math8.h **** #error "No implementation for qadd8 available."
  49:./lib/lib8tion/math8.h **** #endif
  50:./lib/lib8tion/math8.h **** }
  51:./lib/lib8tion/math8.h **** 
  52:./lib/lib8tion/math8.h **** /// Add one byte to another, saturating at 0x7F
  53:./lib/lib8tion/math8.h **** /// @param i - first byte to add
  54:./lib/lib8tion/math8.h **** /// @param j - second byte to add
  55:./lib/lib8tion/math8.h **** /// @returns the sum of i & j, capped at 0xFF
  56:./lib/lib8tion/math8.h **** LIB8STATIC_ALWAYS_INLINE int8_t qadd7( int8_t i, int8_t j)
  57:./lib/lib8tion/math8.h **** {
  58:./lib/lib8tion/math8.h **** #if QADD7_C == 1
  59:./lib/lib8tion/math8.h ****     int16_t t = i + j;
  60:./lib/lib8tion/math8.h ****     if (t > 127) t = 127;
  61:./lib/lib8tion/math8.h ****     return t;
  62:./lib/lib8tion/math8.h **** #elif QADD7_AVRASM == 1
  63:./lib/lib8tion/math8.h ****     asm volatile(
  64:./lib/lib8tion/math8.h ****          /* First, add j to i, conditioning the V flag */
  65:./lib/lib8tion/math8.h ****          "add %0, %1    \n\t"
  66:./lib/lib8tion/math8.h **** 
  67:./lib/lib8tion/math8.h ****          /* Now test the V flag.
  68:./lib/lib8tion/math8.h ****           If V is clear, we branch around a load of 0x7F into i.
  69:./lib/lib8tion/math8.h ****           If V is set, we go ahead and load 0x7F into i.
  70:./lib/lib8tion/math8.h ****           */
  71:./lib/lib8tion/math8.h ****          "brvc L_%=     \n\t"
  72:./lib/lib8tion/math8.h ****          "ldi %0, 0x7F  \n\t"
  73:./lib/lib8tion/math8.h ****          "L_%=: "
  74:./lib/lib8tion/math8.h ****          : "+a" (i)
  75:./lib/lib8tion/math8.h ****          : "a"  (j) );
  76:./lib/lib8tion/math8.h **** 
  77:./lib/lib8tion/math8.h ****     return i;
  78:./lib/lib8tion/math8.h **** #elif QADD7_ARM_DSP_ASM == 1
  79:./lib/lib8tion/math8.h ****     asm volatile( "qadd8 %0, %0, %1" : "+r" (i) : "r" (j));
  80:./lib/lib8tion/math8.h ****     return i;
  81:./lib/lib8tion/math8.h **** #else
  82:./lib/lib8tion/math8.h **** #error "No implementation for qadd7 available."
  83:./lib/lib8tion/math8.h **** #endif
  84:./lib/lib8tion/math8.h **** }
  85:./lib/lib8tion/math8.h **** 
  86:./lib/lib8tion/math8.h **** /// subtract one byte from another, saturating at 0x00
  87:./lib/lib8tion/math8.h **** /// @returns i - j with a floor of 0
  88:./lib/lib8tion/math8.h **** LIB8STATIC_ALWAYS_INLINE uint8_t qsub8( uint8_t i, uint8_t j)
 2305              		.loc 2 88 34 view .LVU556
 2306              	.LBB129:
  89:./lib/lib8tion/math8.h **** {
  90:./lib/lib8tion/math8.h **** #if QSUB8_C == 1
  91:./lib/lib8tion/math8.h ****     int16_t t = i - j;
 2307              		.loc 2 91 5 view .LVU557
 2308              	.LBE129:
 2309              	.LBE128:
 392:quantum/rgblight.c ****     uint8_t sat = qsub8(rgblight_config.sat, RGBLIGHT_SAT_STEP);
 2310              		.loc 1 392 57 is_stmt 0 view .LVU558
 2311 0000 70B5     		push	{r4, r5, r6, lr}
 2312              		.cfi_def_cfa_offset 16
 2313              		.cfi_offset 4, -16
 2314              		.cfi_offset 5, -12
 2315              		.cfi_offset 6, -8
 2316              		.cfi_offset 14, -4
 393:quantum/rgblight.c ****     rgblight_sethsv_eeprom_helper(rgblight_config.hue, sat, rgblight_config.val, write_to_eeprom);
 2317              		.loc 1 393 19 view .LVU559
 2318 0002 074D     		ldr	r5, .L187
 392:quantum/rgblight.c ****     uint8_t sat = qsub8(rgblight_config.sat, RGBLIGHT_SAT_STEP);
 2319              		.loc 1 392 57 view .LVU560
 2320 0004 0300     		movs	r3, r0
 2321              	.LBB133:
 2322              	.LBB130:
 2323              		.loc 2 91 19 view .LVU561
 2324 0006 AC78     		ldrb	r4, [r5, #2]
 2325              	.LBE130:
 2326              	.LBE133:
 394:quantum/rgblight.c **** }
 2327              		.loc 1 394 5 view .LVU562
 2328 0008 EA78     		ldrb	r2, [r5, #3]
 2329              	.LBB134:
 2330              	.LBB131:
 2331              		.loc 2 91 19 view .LVU563
 2332 000a 113C     		subs	r4, r4, #17
 2333              		.loc 2 91 13 view .LVU564
 2334 000c 24B2     		sxth	r4, r4
 2335              	.LVL133:
  92:./lib/lib8tion/math8.h ****     if (t < 0) t = 0;
 2336              		.loc 2 92 5 is_stmt 1 view .LVU565
  93:./lib/lib8tion/math8.h ****     return t;
 2337              		.loc 2 93 5 view .LVU566
 2338              		.loc 2 93 5 is_stmt 0 view .LVU567
 2339              	.LBE131:
 2340              	.LBE134:
 394:quantum/rgblight.c **** }
 2341              		.loc 1 394 5 is_stmt 1 view .LVU568
 2342              	.LBB135:
 2343              	.LBB132:
 2344              		.loc 2 93 12 is_stmt 0 view .LVU569
 2345 000e 211C     		adds	r1, r4, #0
 2346 0010 002C     		cmp	r4, #0
 2347 0012 00DA     		bge	.L186
 2348 0014 0021     		movs	r1, #0
 2349              	.L186:
 2350              	.LBE132:
 2351              	.LBE135:
 394:quantum/rgblight.c **** }
 2352              		.loc 1 394 5 view .LVU570
 2353 0016 6878     		ldrb	r0, [r5, #1]
 2354              	.LVL134:
 394:quantum/rgblight.c **** }
 2355              		.loc 1 394 5 view .LVU571
 2356 0018 C9B2     		uxtb	r1, r1
 2357 001a FFF7FEFF 		bl	rgblight_sethsv_eeprom_helper
 2358              	.LVL135:
 395:quantum/rgblight.c **** void rgblight_decrease_sat_noeeprom(void) { rgblight_decrease_sat_helper(false); }
 2359              		.loc 1 395 1 view .LVU572
 2360              		@ sp needed
 2361              	.LVL136:
 395:quantum/rgblight.c **** void rgblight_decrease_sat_noeeprom(void) { rgblight_decrease_sat_helper(false); }
 2362              		.loc 1 395 1 view .LVU573
 2363 001e 70BD     		pop	{r4, r5, r6, pc}
 2364              	.L188:
 2365              		.align	2
 2366              	.L187:
 2367 0020 00000000 		.word	.LANCHOR5
 2368              		.cfi_endproc
 2369              	.LFE300:
 2371              		.section	.text.rgblight_decrease_sat_noeeprom,"ax",%progbits
 2372              		.align	1
 2373              		.global	rgblight_decrease_sat_noeeprom
 2374              		.syntax unified
 2375              		.code	16
 2376              		.thumb_func
 2377              		.fpu softvfp
 2379              	rgblight_decrease_sat_noeeprom:
 2380              	.LFB301:
 396:quantum/rgblight.c **** void rgblight_decrease_sat(void) { rgblight_decrease_sat_helper(true); }
 2381              		.loc 1 396 43 is_stmt 1 view -0
 2382              		.cfi_startproc
 2383              		@ args = 0, pretend = 0, frame = 0
 2384              		@ frame_needed = 0, uses_anonymous_args = 0
 396:quantum/rgblight.c **** void rgblight_decrease_sat(void) { rgblight_decrease_sat_helper(true); }
 2385              		.loc 1 396 45 view .LVU575
 396:quantum/rgblight.c **** void rgblight_decrease_sat(void) { rgblight_decrease_sat_helper(true); }
 2386              		.loc 1 396 43 is_stmt 0 view .LVU576
 2387 0000 10B5     		push	{r4, lr}
 2388              		.cfi_def_cfa_offset 8
 2389              		.cfi_offset 4, -8
 2390              		.cfi_offset 14, -4
 396:quantum/rgblight.c **** void rgblight_decrease_sat(void) { rgblight_decrease_sat_helper(true); }
 2391              		.loc 1 396 45 view .LVU577
 2392 0002 0020     		movs	r0, #0
 2393 0004 FFF7FEFF 		bl	rgblight_decrease_sat_helper
 2394              	.LVL137:
 396:quantum/rgblight.c **** void rgblight_decrease_sat(void) { rgblight_decrease_sat_helper(true); }
 2395              		.loc 1 396 1 view .LVU578
 2396              		@ sp needed
 2397 0008 10BD     		pop	{r4, pc}
 2398              		.cfi_endproc
 2399              	.LFE301:
 2401              		.section	.text.rgblight_decrease_sat,"ax",%progbits
 2402              		.align	1
 2403              		.global	rgblight_decrease_sat
 2404              		.syntax unified
 2405              		.code	16
 2406              		.thumb_func
 2407              		.fpu softvfp
 2409              	rgblight_decrease_sat:
 2410              	.LFB302:
 397:quantum/rgblight.c **** void rgblight_increase_val_helper(bool write_to_eeprom) {
 2411              		.loc 1 397 34 is_stmt 1 view -0
 2412              		.cfi_startproc
 2413              		@ args = 0, pretend = 0, frame = 0
 2414              		@ frame_needed = 0, uses_anonymous_args = 0
 397:quantum/rgblight.c **** void rgblight_increase_val_helper(bool write_to_eeprom) {
 2415              		.loc 1 397 36 view .LVU580
 397:quantum/rgblight.c **** void rgblight_increase_val_helper(bool write_to_eeprom) {
 2416              		.loc 1 397 34 is_stmt 0 view .LVU581
 2417 0000 10B5     		push	{r4, lr}
 2418              		.cfi_def_cfa_offset 8
 2419              		.cfi_offset 4, -8
 2420              		.cfi_offset 14, -4
 397:quantum/rgblight.c **** void rgblight_increase_val_helper(bool write_to_eeprom) {
 2421              		.loc 1 397 36 view .LVU582
 2422 0002 0120     		movs	r0, #1
 2423 0004 FFF7FEFF 		bl	rgblight_decrease_sat_helper
 2424              	.LVL138:
 397:quantum/rgblight.c **** void rgblight_increase_val_helper(bool write_to_eeprom) {
 2425              		.loc 1 397 1 view .LVU583
 2426              		@ sp needed
 2427 0008 10BD     		pop	{r4, pc}
 2428              		.cfi_endproc
 2429              	.LFE302:
 2431              		.section	.text.rgblight_increase_val_helper,"ax",%progbits
 2432              		.align	1
 2433              		.global	rgblight_increase_val_helper
 2434              		.syntax unified
 2435              		.code	16
 2436              		.thumb_func
 2437              		.fpu softvfp
 2439              	rgblight_increase_val_helper:
 2440              	.LVL139:
 2441              	.LFB303:
 398:quantum/rgblight.c ****     uint8_t val = qadd8(rgblight_config.val, RGBLIGHT_VAL_STEP);
 2442              		.loc 1 398 57 is_stmt 1 view -0
 2443              		.cfi_startproc
 2444              		@ args = 0, pretend = 0, frame = 0
 2445              		@ frame_needed = 0, uses_anonymous_args = 0
 399:quantum/rgblight.c ****     rgblight_sethsv_eeprom_helper(rgblight_config.hue, rgblight_config.sat, val, write_to_eeprom);
 2446              		.loc 1 399 5 view .LVU585
 2447              	.LBB136:
 2448              	.LBI136:
  23:./lib/lib8tion/math8.h **** {
 2449              		.loc 2 23 34 view .LVU586
 2450              	.LBB137:
  26:./lib/lib8tion/math8.h ****     if (t > 255) t = 255;
 2451              		.loc 2 26 5 view .LVU587
 2452              	.LBE137:
 2453              	.LBE136:
 398:quantum/rgblight.c ****     uint8_t val = qadd8(rgblight_config.val, RGBLIGHT_VAL_STEP);
 2454              		.loc 1 398 57 is_stmt 0 view .LVU588
 2455 0000 10B5     		push	{r4, lr}
 2456              		.cfi_def_cfa_offset 8
 2457              		.cfi_offset 4, -8
 2458              		.cfi_offset 14, -4
 399:quantum/rgblight.c ****     rgblight_sethsv_eeprom_helper(rgblight_config.hue, rgblight_config.sat, val, write_to_eeprom);
 2459              		.loc 1 399 19 view .LVU589
 2460 0002 074C     		ldr	r4, .L193
 398:quantum/rgblight.c ****     uint8_t val = qadd8(rgblight_config.val, RGBLIGHT_VAL_STEP);
 2461              		.loc 1 398 57 view .LVU590
 2462 0004 0300     		movs	r3, r0
 2463              	.LBB140:
 2464              	.LBB138:
  26:./lib/lib8tion/math8.h ****     if (t > 255) t = 255;
 2465              		.loc 2 26 20 view .LVU591
 2466 0006 E178     		ldrb	r1, [r4, #3]
  26:./lib/lib8tion/math8.h ****     if (t > 255) t = 255;
 2467              		.loc 2 26 14 view .LVU592
 2468 0008 1131     		adds	r1, r1, #17
 2469              	.LVL140:
  27:./lib/lib8tion/math8.h ****     return t;
 2470              		.loc 2 27 5 is_stmt 1 view .LVU593
  28:./lib/lib8tion/math8.h **** #elif QADD8_AVRASM == 1
 2471              		.loc 2 28 5 view .LVU594
  28:./lib/lib8tion/math8.h **** #elif QADD8_AVRASM == 1
 2472              		.loc 2 28 5 is_stmt 0 view .LVU595
 2473              	.LBE138:
 2474              	.LBE140:
 400:quantum/rgblight.c **** }
 2475              		.loc 1 400 5 is_stmt 1 view .LVU596
 2476              	.LBB141:
 2477              	.LBB139:
  28:./lib/lib8tion/math8.h **** #elif QADD8_AVRASM == 1
 2478              		.loc 2 28 12 is_stmt 0 view .LVU597
 2479 000a 0A1C     		adds	r2, r1, #0
 2480 000c FF29     		cmp	r1, #255
 2481 000e 00D9     		bls	.L192
 2482 0010 FF22     		movs	r2, #255
 2483              	.L192:
 2484              	.LBE139:
 2485              	.LBE141:
 400:quantum/rgblight.c **** }
 2486              		.loc 1 400 5 view .LVU598
 2487 0012 D2B2     		uxtb	r2, r2
 2488 0014 A178     		ldrb	r1, [r4, #2]
 2489              	.LVL141:
 400:quantum/rgblight.c **** }
 2490              		.loc 1 400 5 view .LVU599
 2491 0016 6078     		ldrb	r0, [r4, #1]
 2492              	.LVL142:
 400:quantum/rgblight.c **** }
 2493              		.loc 1 400 5 view .LVU600
 2494 0018 FFF7FEFF 		bl	rgblight_sethsv_eeprom_helper
 2495              	.LVL143:
 401:quantum/rgblight.c **** void rgblight_increase_val_noeeprom(void) { rgblight_increase_val_helper(false); }
 2496              		.loc 1 401 1 view .LVU601
 2497              		@ sp needed
 2498 001c 10BD     		pop	{r4, pc}
 2499              	.L194:
 2500 001e C046     		.align	2
 2501              	.L193:
 2502 0020 00000000 		.word	.LANCHOR5
 2503              		.cfi_endproc
 2504              	.LFE303:
 2506              		.section	.text.rgblight_increase_val_noeeprom,"ax",%progbits
 2507              		.align	1
 2508              		.global	rgblight_increase_val_noeeprom
 2509              		.syntax unified
 2510              		.code	16
 2511              		.thumb_func
 2512              		.fpu softvfp
 2514              	rgblight_increase_val_noeeprom:
 2515              	.LFB304:
 402:quantum/rgblight.c **** void rgblight_increase_val(void) { rgblight_increase_val_helper(true); }
 2516              		.loc 1 402 43 is_stmt 1 view -0
 2517              		.cfi_startproc
 2518              		@ args = 0, pretend = 0, frame = 0
 2519              		@ frame_needed = 0, uses_anonymous_args = 0
 402:quantum/rgblight.c **** void rgblight_increase_val(void) { rgblight_increase_val_helper(true); }
 2520              		.loc 1 402 45 view .LVU603
 402:quantum/rgblight.c **** void rgblight_increase_val(void) { rgblight_increase_val_helper(true); }
 2521              		.loc 1 402 43 is_stmt 0 view .LVU604
 2522 0000 10B5     		push	{r4, lr}
 2523              		.cfi_def_cfa_offset 8
 2524              		.cfi_offset 4, -8
 2525              		.cfi_offset 14, -4
 402:quantum/rgblight.c **** void rgblight_increase_val(void) { rgblight_increase_val_helper(true); }
 2526              		.loc 1 402 45 view .LVU605
 2527 0002 0020     		movs	r0, #0
 2528 0004 FFF7FEFF 		bl	rgblight_increase_val_helper
 2529              	.LVL144:
 402:quantum/rgblight.c **** void rgblight_increase_val(void) { rgblight_increase_val_helper(true); }
 2530              		.loc 1 402 1 view .LVU606
 2531              		@ sp needed
 2532 0008 10BD     		pop	{r4, pc}
 2533              		.cfi_endproc
 2534              	.LFE304:
 2536              		.section	.text.rgblight_increase_val,"ax",%progbits
 2537              		.align	1
 2538              		.global	rgblight_increase_val
 2539              		.syntax unified
 2540              		.code	16
 2541              		.thumb_func
 2542              		.fpu softvfp
 2544              	rgblight_increase_val:
 2545              	.LFB305:
 403:quantum/rgblight.c **** void rgblight_decrease_val_helper(bool write_to_eeprom) {
 2546              		.loc 1 403 34 is_stmt 1 view -0
 2547              		.cfi_startproc
 2548              		@ args = 0, pretend = 0, frame = 0
 2549              		@ frame_needed = 0, uses_anonymous_args = 0
 403:quantum/rgblight.c **** void rgblight_decrease_val_helper(bool write_to_eeprom) {
 2550              		.loc 1 403 36 view .LVU608
 403:quantum/rgblight.c **** void rgblight_decrease_val_helper(bool write_to_eeprom) {
 2551              		.loc 1 403 34 is_stmt 0 view .LVU609
 2552 0000 10B5     		push	{r4, lr}
 2553              		.cfi_def_cfa_offset 8
 2554              		.cfi_offset 4, -8
 2555              		.cfi_offset 14, -4
 403:quantum/rgblight.c **** void rgblight_decrease_val_helper(bool write_to_eeprom) {
 2556              		.loc 1 403 36 view .LVU610
 2557 0002 0120     		movs	r0, #1
 2558 0004 FFF7FEFF 		bl	rgblight_increase_val_helper
 2559              	.LVL145:
 403:quantum/rgblight.c **** void rgblight_decrease_val_helper(bool write_to_eeprom) {
 2560              		.loc 1 403 1 view .LVU611
 2561              		@ sp needed
 2562 0008 10BD     		pop	{r4, pc}
 2563              		.cfi_endproc
 2564              	.LFE305:
 2566              		.section	.text.rgblight_decrease_val_helper,"ax",%progbits
 2567              		.align	1
 2568              		.global	rgblight_decrease_val_helper
 2569              		.syntax unified
 2570              		.code	16
 2571              		.thumb_func
 2572              		.fpu softvfp
 2574              	rgblight_decrease_val_helper:
 2575              	.LVL146:
 2576              	.LFB306:
 404:quantum/rgblight.c ****     uint8_t val = qsub8(rgblight_config.val, RGBLIGHT_VAL_STEP);
 2577              		.loc 1 404 57 is_stmt 1 view -0
 2578              		.cfi_startproc
 2579              		@ args = 0, pretend = 0, frame = 0
 2580              		@ frame_needed = 0, uses_anonymous_args = 0
 405:quantum/rgblight.c ****     rgblight_sethsv_eeprom_helper(rgblight_config.hue, rgblight_config.sat, val, write_to_eeprom);
 2581              		.loc 1 405 5 view .LVU613
 2582              	.LBB142:
 2583              	.LBI142:
  88:./lib/lib8tion/math8.h **** {
 2584              		.loc 2 88 34 view .LVU614
 2585              	.LBB143:
  91:./lib/lib8tion/math8.h ****     if (t < 0) t = 0;
 2586              		.loc 2 91 5 view .LVU615
 2587              	.LBE143:
 2588              	.LBE142:
 404:quantum/rgblight.c ****     uint8_t val = qsub8(rgblight_config.val, RGBLIGHT_VAL_STEP);
 2589              		.loc 1 404 57 is_stmt 0 view .LVU616
 2590 0000 10B5     		push	{r4, lr}
 2591              		.cfi_def_cfa_offset 8
 2592              		.cfi_offset 4, -8
 2593              		.cfi_offset 14, -4
 405:quantum/rgblight.c ****     rgblight_sethsv_eeprom_helper(rgblight_config.hue, rgblight_config.sat, val, write_to_eeprom);
 2594              		.loc 1 405 19 view .LVU617
 2595 0002 074C     		ldr	r4, .L199
 404:quantum/rgblight.c ****     uint8_t val = qsub8(rgblight_config.val, RGBLIGHT_VAL_STEP);
 2596              		.loc 1 404 57 view .LVU618
 2597 0004 0300     		movs	r3, r0
 2598              	.LBB146:
 2599              	.LBB144:
  91:./lib/lib8tion/math8.h ****     if (t < 0) t = 0;
 2600              		.loc 2 91 19 view .LVU619
 2601 0006 E178     		ldrb	r1, [r4, #3]
 2602 0008 1139     		subs	r1, r1, #17
  91:./lib/lib8tion/math8.h ****     if (t < 0) t = 0;
 2603              		.loc 2 91 13 view .LVU620
 2604 000a 09B2     		sxth	r1, r1
 2605              	.LVL147:
  92:./lib/lib8tion/math8.h ****     return t;
 2606              		.loc 2 92 5 is_stmt 1 view .LVU621
 2607              		.loc 2 93 5 view .LVU622
 2608              		.loc 2 93 5 is_stmt 0 view .LVU623
 2609              	.LBE144:
 2610              	.LBE146:
 406:quantum/rgblight.c **** }
 2611              		.loc 1 406 5 is_stmt 1 view .LVU624
 2612              	.LBB147:
 2613              	.LBB145:
 2614              		.loc 2 93 12 is_stmt 0 view .LVU625
 2615 000c 0A1C     		adds	r2, r1, #0
 2616 000e 0029     		cmp	r1, #0
 2617 0010 00DA     		bge	.L198
 2618 0012 0022     		movs	r2, #0
 2619              	.L198:
 2620              	.LBE145:
 2621              	.LBE147:
 406:quantum/rgblight.c **** }
 2622              		.loc 1 406 5 view .LVU626
 2623 0014 D2B2     		uxtb	r2, r2
 2624 0016 A178     		ldrb	r1, [r4, #2]
 2625              	.LVL148:
 406:quantum/rgblight.c **** }
 2626              		.loc 1 406 5 view .LVU627
 2627 0018 6078     		ldrb	r0, [r4, #1]
 2628              	.LVL149:
 406:quantum/rgblight.c **** }
 2629              		.loc 1 406 5 view .LVU628
 2630 001a FFF7FEFF 		bl	rgblight_sethsv_eeprom_helper
 2631              	.LVL150:
 407:quantum/rgblight.c **** void rgblight_decrease_val_noeeprom(void) { rgblight_decrease_val_helper(false); }
 2632              		.loc 1 407 1 view .LVU629
 2633              		@ sp needed
 2634 001e 10BD     		pop	{r4, pc}
 2635              	.L200:
 2636              		.align	2
 2637              	.L199:
 2638 0020 00000000 		.word	.LANCHOR5
 2639              		.cfi_endproc
 2640              	.LFE306:
 2642              		.section	.text.rgblight_decrease_val_noeeprom,"ax",%progbits
 2643              		.align	1
 2644              		.global	rgblight_decrease_val_noeeprom
 2645              		.syntax unified
 2646              		.code	16
 2647              		.thumb_func
 2648              		.fpu softvfp
 2650              	rgblight_decrease_val_noeeprom:
 2651              	.LFB307:
 408:quantum/rgblight.c **** void rgblight_decrease_val(void) { rgblight_decrease_val_helper(true); }
 2652              		.loc 1 408 43 is_stmt 1 view -0
 2653              		.cfi_startproc
 2654              		@ args = 0, pretend = 0, frame = 0
 2655              		@ frame_needed = 0, uses_anonymous_args = 0
 408:quantum/rgblight.c **** void rgblight_decrease_val(void) { rgblight_decrease_val_helper(true); }
 2656              		.loc 1 408 45 view .LVU631
 408:quantum/rgblight.c **** void rgblight_decrease_val(void) { rgblight_decrease_val_helper(true); }
 2657              		.loc 1 408 43 is_stmt 0 view .LVU632
 2658 0000 10B5     		push	{r4, lr}
 2659              		.cfi_def_cfa_offset 8
 2660              		.cfi_offset 4, -8
 2661              		.cfi_offset 14, -4
 408:quantum/rgblight.c **** void rgblight_decrease_val(void) { rgblight_decrease_val_helper(true); }
 2662              		.loc 1 408 45 view .LVU633
 2663 0002 0020     		movs	r0, #0
 2664 0004 FFF7FEFF 		bl	rgblight_decrease_val_helper
 2665              	.LVL151:
 408:quantum/rgblight.c **** void rgblight_decrease_val(void) { rgblight_decrease_val_helper(true); }
 2666              		.loc 1 408 1 view .LVU634
 2667              		@ sp needed
 2668 0008 10BD     		pop	{r4, pc}
 2669              		.cfi_endproc
 2670              	.LFE307:
 2672              		.section	.text.rgblight_decrease_val,"ax",%progbits
 2673              		.align	1
 2674              		.global	rgblight_decrease_val
 2675              		.syntax unified
 2676              		.code	16
 2677              		.thumb_func
 2678              		.fpu softvfp
 2680              	rgblight_decrease_val:
 2681              	.LFB308:
 409:quantum/rgblight.c **** void rgblight_increase_speed(void) {
 2682              		.loc 1 409 34 is_stmt 1 view -0
 2683              		.cfi_startproc
 2684              		@ args = 0, pretend = 0, frame = 0
 2685              		@ frame_needed = 0, uses_anonymous_args = 0
 409:quantum/rgblight.c **** void rgblight_increase_speed(void) {
 2686              		.loc 1 409 36 view .LVU636
 409:quantum/rgblight.c **** void rgblight_increase_speed(void) {
 2687              		.loc 1 409 34 is_stmt 0 view .LVU637
 2688 0000 10B5     		push	{r4, lr}
 2689              		.cfi_def_cfa_offset 8
 2690              		.cfi_offset 4, -8
 2691              		.cfi_offset 14, -4
 409:quantum/rgblight.c **** void rgblight_increase_speed(void) {
 2692              		.loc 1 409 36 view .LVU638
 2693 0002 0120     		movs	r0, #1
 2694 0004 FFF7FEFF 		bl	rgblight_decrease_val_helper
 2695              	.LVL152:
 409:quantum/rgblight.c **** void rgblight_increase_speed(void) {
 2696              		.loc 1 409 1 view .LVU639
 2697              		@ sp needed
 2698 0008 10BD     		pop	{r4, pc}
 2699              		.cfi_endproc
 2700              	.LFE308:
 2702              		.section	.text.rgblight_sethsv,"ax",%progbits
 2703              		.align	1
 2704              		.global	rgblight_sethsv
 2705              		.syntax unified
 2706              		.code	16
 2707              		.thumb_func
 2708              		.fpu softvfp
 2710              	rgblight_sethsv:
 2711              	.LVL153:
 2712              	.LFB313:
 502:quantum/rgblight.c **** 
 2713              		.loc 1 502 61 is_stmt 1 view -0
 2714              		.cfi_startproc
 2715              		@ args = 0, pretend = 0, frame = 0
 2716              		@ frame_needed = 0, uses_anonymous_args = 0
 502:quantum/rgblight.c **** 
 2717              		.loc 1 502 63 view .LVU641
 502:quantum/rgblight.c **** 
 2718              		.loc 1 502 61 is_stmt 0 view .LVU642
 2719 0000 10B5     		push	{r4, lr}
 2720              		.cfi_def_cfa_offset 8
 2721              		.cfi_offset 4, -8
 2722              		.cfi_offset 14, -4
 502:quantum/rgblight.c **** 
 2723              		.loc 1 502 63 view .LVU643
 2724 0002 0123     		movs	r3, #1
 2725 0004 FFF7FEFF 		bl	rgblight_sethsv_eeprom_helper
 2726              	.LVL154:
 502:quantum/rgblight.c **** 
 2727              		.loc 1 502 1 view .LVU644
 2728              		@ sp needed
 2729 0008 10BD     		pop	{r4, pc}
 2730              		.cfi_endproc
 2731              	.LFE313:
 2733              		.section	.text.rgblight_sethsv_noeeprom,"ax",%progbits
 2734              		.align	1
 2735              		.global	rgblight_sethsv_noeeprom
 2736              		.syntax unified
 2737              		.code	16
 2738              		.thumb_func
 2739              		.fpu softvfp
 2741              	rgblight_sethsv_noeeprom:
 2742              	.LVL155:
 2743              	.LFB314:
 504:quantum/rgblight.c **** 
 2744              		.loc 1 504 70 is_stmt 1 view -0
 2745              		.cfi_startproc
 2746              		@ args = 0, pretend = 0, frame = 0
 2747              		@ frame_needed = 0, uses_anonymous_args = 0
 504:quantum/rgblight.c **** 
 2748              		.loc 1 504 72 view .LVU646
 504:quantum/rgblight.c **** 
 2749              		.loc 1 504 70 is_stmt 0 view .LVU647
 2750 0000 10B5     		push	{r4, lr}
 2751              		.cfi_def_cfa_offset 8
 2752              		.cfi_offset 4, -8
 2753              		.cfi_offset 14, -4
 504:quantum/rgblight.c **** 
 2754              		.loc 1 504 72 view .LVU648
 2755 0002 0023     		movs	r3, #0
 2756 0004 FFF7FEFF 		bl	rgblight_sethsv_eeprom_helper
 2757              	.LVL156:
 504:quantum/rgblight.c **** 
 2758              		.loc 1 504 1 view .LVU649
 2759              		@ sp needed
 2760 0008 10BD     		pop	{r4, pc}
 2761              		.cfi_endproc
 2762              	.LFE314:
 2764              		.section	.text.rgblight_setrgb_at,"ax",%progbits
 2765              		.align	1
 2766              		.global	rgblight_setrgb_at
 2767              		.syntax unified
 2768              		.code	16
 2769              		.thumb_func
 2770              		.fpu softvfp
 2772              	rgblight_setrgb_at:
 2773              	.LVL157:
 2774              	.LFB323:
 544:quantum/rgblight.c ****     if (!rgblight_config.enable || index >= RGBLED_NUM) {
 2775              		.loc 1 544 73 is_stmt 1 view -0
 2776              		.cfi_startproc
 2777              		@ args = 0, pretend = 0, frame = 0
 2778              		@ frame_needed = 0, uses_anonymous_args = 0
 545:quantum/rgblight.c ****         return;
 2779              		.loc 1 545 5 view .LVU651
 544:quantum/rgblight.c ****     if (!rgblight_config.enable || index >= RGBLED_NUM) {
 2780              		.loc 1 544 73 is_stmt 0 view .LVU652
 2781 0000 70B5     		push	{r4, r5, r6, lr}
 2782              		.cfi_def_cfa_offset 16
 2783              		.cfi_offset 4, -16
 2784              		.cfi_offset 5, -12
 2785              		.cfi_offset 6, -8
 2786              		.cfi_offset 14, -4
 545:quantum/rgblight.c ****         return;
 2787              		.loc 1 545 25 view .LVU653
 2788 0002 084C     		ldr	r4, .L210
 2789 0004 2478     		ldrb	r4, [r4]
 545:quantum/rgblight.c ****         return;
 2790              		.loc 1 545 8 view .LVU654
 2791 0006 E407     		lsls	r4, r4, #31
 2792 0008 0AD5     		bpl	.L205
 545:quantum/rgblight.c ****         return;
 2793              		.loc 1 545 33 discriminator 1 view .LVU655
 2794 000a 0D2B     		cmp	r3, #13
 2795 000c 08D8     		bhi	.L205
 549:quantum/rgblight.c ****     led[index].g = g;
 2796              		.loc 1 549 5 is_stmt 1 view .LVU656
 549:quantum/rgblight.c ****     led[index].g = g;
 2797              		.loc 1 549 18 is_stmt 0 view .LVU657
 2798 000e 0324     		movs	r4, #3
 2799 0010 6343     		muls	r3, r4
 2800              	.LVL158:
 549:quantum/rgblight.c ****     led[index].g = g;
 2801              		.loc 1 549 18 view .LVU658
 2802 0012 054D     		ldr	r5, .L210+4
 2803 0014 EC18     		adds	r4, r5, r3
 2804 0016 6070     		strb	r0, [r4, #1]
 550:quantum/rgblight.c ****     led[index].b = b;
 2805              		.loc 1 550 5 is_stmt 1 view .LVU659
 550:quantum/rgblight.c ****     led[index].b = b;
 2806              		.loc 1 550 18 is_stmt 0 view .LVU660
 2807 0018 5955     		strb	r1, [r3, r5]
 551:quantum/rgblight.c **** #ifdef RGBW
 2808              		.loc 1 551 5 is_stmt 1 view .LVU661
 551:quantum/rgblight.c **** #ifdef RGBW
 2809              		.loc 1 551 18 is_stmt 0 view .LVU662
 2810 001a A270     		strb	r2, [r4, #2]
 555:quantum/rgblight.c **** }
 2811              		.loc 1 555 5 is_stmt 1 view .LVU663
 2812 001c FFF7FEFF 		bl	rgblight_set
 2813              	.LVL159:
 2814              	.L205:
 556:quantum/rgblight.c **** 
 2815              		.loc 1 556 1 is_stmt 0 view .LVU664
 2816              		@ sp needed
 2817 0020 70BD     		pop	{r4, r5, r6, pc}
 2818              	.L211:
 2819 0022 C046     		.align	2
 2820              	.L210:
 2821 0024 00000000 		.word	.LANCHOR5
 2822 0028 00000000 		.word	.LANCHOR6
 2823              		.cfi_endproc
 2824              	.LFE323:
 2826              		.section	.text.rgblight_sethsv_at,"ax",%progbits
 2827              		.align	1
 2828              		.global	rgblight_sethsv_at
 2829              		.syntax unified
 2830              		.code	16
 2831              		.thumb_func
 2832              		.fpu softvfp
 2834              	rgblight_sethsv_at:
 2835              	.LVL160:
 2836              	.LFB324:
 558:quantum/rgblight.c ****     if (!rgblight_config.enable) {
 2837              		.loc 1 558 79 is_stmt 1 view -0
 2838              		.cfi_startproc
 2839              		@ args = 0, pretend = 0, frame = 8
 2840              		@ frame_needed = 0, uses_anonymous_args = 0
 559:quantum/rgblight.c ****         return;
 2841              		.loc 1 559 5 view .LVU666
 558:quantum/rgblight.c ****     if (!rgblight_config.enable) {
 2842              		.loc 1 558 79 is_stmt 0 view .LVU667
 2843 0000 37B5     		push	{r0, r1, r2, r4, r5, lr}
 2844              		.cfi_def_cfa_offset 24
 2845              		.cfi_offset 0, -24
 2846              		.cfi_offset 1, -20
 2847              		.cfi_offset 2, -16
 2848              		.cfi_offset 4, -12
 2849              		.cfi_offset 5, -8
 2850              		.cfi_offset 14, -4
 558:quantum/rgblight.c ****     if (!rgblight_config.enable) {
 2851              		.loc 1 558 79 view .LVU668
 2852 0002 1D00     		movs	r5, r3
 559:quantum/rgblight.c ****         return;
 2853              		.loc 1 559 25 view .LVU669
 2854 0004 074B     		ldr	r3, .L215
 2855              	.LVL161:
 559:quantum/rgblight.c ****         return;
 2856              		.loc 1 559 25 view .LVU670
 2857 0006 1B78     		ldrb	r3, [r3]
 559:quantum/rgblight.c ****         return;
 2858              		.loc 1 559 8 view .LVU671
 2859 0008 DB07     		lsls	r3, r3, #31
 2860 000a 09D5     		bpl	.L212
 563:quantum/rgblight.c ****     sethsv(hue, sat, val, &tmp_led);
 2861              		.loc 1 563 5 is_stmt 1 view .LVU672
 564:quantum/rgblight.c ****     rgblight_setrgb_at(tmp_led.r, tmp_led.g, tmp_led.b, index);
 2862              		.loc 1 564 5 view .LVU673
 2863              	.LVL162:
 2864              	.LBB148:
 2865              	.LBI148:
 135:quantum/rgblight.c **** 
 2866              		.loc 1 135 6 view .LVU674
 2867              	.LBB149:
 135:quantum/rgblight.c **** 
 2868              		.loc 1 135 70 view .LVU675
 2869 000c 01AC     		add	r4, sp, #4
 2870              	.LVL163:
 135:quantum/rgblight.c **** 
 2871              		.loc 1 135 70 is_stmt 0 view .LVU676
 2872 000e 2300     		movs	r3, r4
 2873 0010 FFF7FEFF 		bl	sethsv_raw
 2874              	.LVL164:
 135:quantum/rgblight.c **** 
 2875              		.loc 1 135 70 view .LVU677
 2876              	.LBE149:
 2877              	.LBE148:
 565:quantum/rgblight.c **** }
 2878              		.loc 1 565 5 is_stmt 1 view .LVU678
 2879 0014 A278     		ldrb	r2, [r4, #2]
 2880 0016 2178     		ldrb	r1, [r4]
 2881 0018 6078     		ldrb	r0, [r4, #1]
 2882 001a 2B00     		movs	r3, r5
 2883 001c FFF7FEFF 		bl	rgblight_setrgb_at
 2884              	.LVL165:
 2885              	.L212:
 566:quantum/rgblight.c **** 
 2886              		.loc 1 566 1 is_stmt 0 view .LVU679
 2887              		@ sp needed
 2888 0020 37BD     		pop	{r0, r1, r2, r4, r5, pc}
 2889              	.L216:
 2890 0022 C046     		.align	2
 2891              	.L215:
 2892 0024 00000000 		.word	.LANCHOR5
 2893              		.cfi_endproc
 2894              	.LFE324:
 2896              		.section	.text.rgblight_setrgb_range,"ax",%progbits
 2897              		.align	1
 2898              		.global	rgblight_setrgb_range
 2899              		.syntax unified
 2900              		.code	16
 2901              		.thumb_func
 2902              		.fpu softvfp
 2904              	rgblight_setrgb_range:
 2905              	.LVL166:
 2906              	.LFB326:
 580:quantum/rgblight.c ****     if (!rgblight_config.enable || start < 0 || start >= end || end > RGBLED_NUM) {
 2907              		.loc 1 580 89 is_stmt 1 view -0
 2908              		.cfi_startproc
 2909              		@ args = 4, pretend = 0, frame = 0
 2910              		@ frame_needed = 0, uses_anonymous_args = 0
 581:quantum/rgblight.c ****         return;
 2911              		.loc 1 581 5 view .LVU681
 580:quantum/rgblight.c ****     if (!rgblight_config.enable || start < 0 || start >= end || end > RGBLED_NUM) {
 2912              		.loc 1 580 89 is_stmt 0 view .LVU682
 2913 0000 70B5     		push	{r4, r5, r6, lr}
 2914              		.cfi_def_cfa_offset 16
 2915              		.cfi_offset 4, -16
 2916              		.cfi_offset 5, -12
 2917              		.cfi_offset 6, -8
 2918              		.cfi_offset 14, -4
 580:quantum/rgblight.c ****     if (!rgblight_config.enable || start < 0 || start >= end || end > RGBLED_NUM) {
 2919              		.loc 1 580 89 view .LVU683
 2920 0002 04AC     		add	r4, sp, #16
 2921              	.LVL167:
 580:quantum/rgblight.c ****     if (!rgblight_config.enable || start < 0 || start >= end || end > RGBLED_NUM) {
 2922              		.loc 1 580 89 view .LVU684
 2923 0004 2578     		ldrb	r5, [r4]
 581:quantum/rgblight.c ****         return;
 2924              		.loc 1 581 25 view .LVU685
 2925 0006 0D4C     		ldr	r4, .L224
 2926              	.LVL168:
 581:quantum/rgblight.c ****         return;
 2927              		.loc 1 581 25 view .LVU686
 2928 0008 2478     		ldrb	r4, [r4]
 581:quantum/rgblight.c ****         return;
 2929              		.loc 1 581 8 view .LVU687
 2930 000a E407     		lsls	r4, r4, #31
 2931 000c 14D5     		bpl	.L217
 581:quantum/rgblight.c ****         return;
 2932              		.loc 1 581 46 discriminator 1 view .LVU688
 2933 000e AB42     		cmp	r3, r5
 2934 0010 12D2     		bcs	.L217
 581:quantum/rgblight.c ****         return;
 2935              		.loc 1 581 62 discriminator 2 view .LVU689
 2936 0012 0E2D     		cmp	r5, #14
 2937 0014 10D8     		bhi	.L217
 2938 0016 0326     		movs	r6, #3
 2939 0018 5E43     		muls	r6, r3
 2940 001a 094C     		ldr	r4, .L224+4
 2941 001c A419     		adds	r4, r4, r6
 2942              	.LVL169:
 2943              	.L219:
 2944              	.LBB153:
 2945              	.LBB154:
 2946              	.LBB155:
 586:quantum/rgblight.c ****         led[i].g = g;
 2947              		.loc 1 586 9 is_stmt 1 view .LVU690
 585:quantum/rgblight.c ****         led[i].r = r;
 2948              		.loc 1 585 39 is_stmt 0 view .LVU691
 2949 001e 0133     		adds	r3, r3, #1
 2950              	.LVL170:
 585:quantum/rgblight.c ****         led[i].r = r;
 2951              		.loc 1 585 39 view .LVU692
 2952 0020 DBB2     		uxtb	r3, r3
 586:quantum/rgblight.c ****         led[i].g = g;
 2953              		.loc 1 586 18 view .LVU693
 2954 0022 6070     		strb	r0, [r4, #1]
 587:quantum/rgblight.c ****         led[i].b = b;
 2955              		.loc 1 587 9 is_stmt 1 view .LVU694
 587:quantum/rgblight.c ****         led[i].b = b;
 2956              		.loc 1 587 18 is_stmt 0 view .LVU695
 2957 0024 2170     		strb	r1, [r4]
 588:quantum/rgblight.c **** #ifdef RGBW
 2958              		.loc 1 588 9 is_stmt 1 view .LVU696
 2959              	.LVL171:
 588:quantum/rgblight.c **** #ifdef RGBW
 2960              		.loc 1 588 18 is_stmt 0 view .LVU697
 2961 0026 A270     		strb	r2, [r4, #2]
 2962 0028 0334     		adds	r4, r4, #3
 585:quantum/rgblight.c ****         led[i].r = r;
 2963              		.loc 1 585 5 view .LVU698
 2964 002a 9D42     		cmp	r5, r3
 2965 002c F7D1     		bne	.L219
 585:quantum/rgblight.c ****         led[i].r = r;
 2966              		.loc 1 585 5 view .LVU699
 2967              	.LBE155:
 593:quantum/rgblight.c ****     wait_ms(1);
 2968              		.loc 1 593 5 is_stmt 1 view .LVU700
 2969 002e FFF7FEFF 		bl	rgblight_set
 2970              	.LVL172:
 594:quantum/rgblight.c **** }
 2971              		.loc 1 594 5 view .LVU701
 594:quantum/rgblight.c **** }
 2972              		.loc 1 594 5 view .LVU702
 594:quantum/rgblight.c **** }
 2973              		.loc 1 594 5 view .LVU703
 2974 0032 0A20     		movs	r0, #10
 2975 0034 FFF7FEFF 		bl	chThdSleep
 2976              	.LVL173:
 2977              	.L217:
 594:quantum/rgblight.c **** }
 2978              		.loc 1 594 5 is_stmt 0 view .LVU704
 2979              	.LBE154:
 2980              	.LBE153:
 595:quantum/rgblight.c **** 
 2981              		.loc 1 595 1 view .LVU705
 2982              		@ sp needed
 2983 0038 70BD     		pop	{r4, r5, r6, pc}
 2984              	.L225:
 2985 003a C046     		.align	2
 2986              	.L224:
 2987 003c 00000000 		.word	.LANCHOR5
 2988 0040 00000000 		.word	.LANCHOR6
 2989              		.cfi_endproc
 2990              	.LFE326:
 2992              		.section	.text.rgblight_sethsv_range,"ax",%progbits
 2993              		.align	1
 2994              		.global	rgblight_sethsv_range
 2995              		.syntax unified
 2996              		.code	16
 2997              		.thumb_func
 2998              		.fpu softvfp
 3000              	rgblight_sethsv_range:
 3001              	.LVL174:
 3002              	.LFB327:
 597:quantum/rgblight.c ****     if (!rgblight_config.enable) {
 3003              		.loc 1 597 95 is_stmt 1 view -0
 3004              		.cfi_startproc
 3005              		@ args = 4, pretend = 0, frame = 8
 3006              		@ frame_needed = 0, uses_anonymous_args = 0
 598:quantum/rgblight.c ****         return;
 3007              		.loc 1 598 5 view .LVU707
 597:quantum/rgblight.c ****     if (!rgblight_config.enable) {
 3008              		.loc 1 597 95 is_stmt 0 view .LVU708
 3009 0000 7FB5     		push	{r0, r1, r2, r3, r4, r5, r6, lr}
 3010              		.cfi_def_cfa_offset 32
 3011              		.cfi_offset 0, -32
 3012              		.cfi_offset 1, -28
 3013              		.cfi_offset 2, -24
 3014              		.cfi_offset 3, -20
 3015              		.cfi_offset 4, -16
 3016              		.cfi_offset 5, -12
 3017              		.cfi_offset 6, -8
 3018              		.cfi_offset 14, -4
 597:quantum/rgblight.c ****     if (!rgblight_config.enable) {
 3019              		.loc 1 597 95 view .LVU709
 3020 0002 1D00     		movs	r5, r3
 3021 0004 08AB     		add	r3, sp, #32
 3022              	.LVL175:
 597:quantum/rgblight.c ****     if (!rgblight_config.enable) {
 3023              		.loc 1 597 95 view .LVU710
 3024 0006 1E78     		ldrb	r6, [r3]
 598:quantum/rgblight.c ****         return;
 3025              		.loc 1 598 25 view .LVU711
 3026 0008 074B     		ldr	r3, .L231
 3027              	.LVL176:
 598:quantum/rgblight.c ****         return;
 3028              		.loc 1 598 25 view .LVU712
 3029 000a 1B78     		ldrb	r3, [r3]
 598:quantum/rgblight.c ****         return;
 3030              		.loc 1 598 8 view .LVU713
 3031 000c DB07     		lsls	r3, r3, #31
 3032 000e 0AD5     		bpl	.L226
 3033              	.LVL177:
 3034              	.LBB160:
 3035              	.LBI160:
 597:quantum/rgblight.c ****     if (!rgblight_config.enable) {
 3036              		.loc 1 597 6 is_stmt 1 view .LVU714
 3037              	.LBB161:
 602:quantum/rgblight.c ****     sethsv(hue, sat, val, &tmp_led);
 3038              		.loc 1 602 5 view .LVU715
 603:quantum/rgblight.c ****     rgblight_setrgb_range(tmp_led.r, tmp_led.g, tmp_led.b, start, end);
 3039              		.loc 1 603 5 view .LVU716
 3040              	.LBB162:
 3041              	.LBI162:
 135:quantum/rgblight.c **** 
 3042              		.loc 1 135 6 view .LVU717
 3043              	.LBB163:
 135:quantum/rgblight.c **** 
 3044              		.loc 1 135 70 view .LVU718
 3045 0010 03AC     		add	r4, sp, #12
 3046              	.LVL178:
 135:quantum/rgblight.c **** 
 3047              		.loc 1 135 70 is_stmt 0 view .LVU719
 3048 0012 2300     		movs	r3, r4
 3049 0014 FFF7FEFF 		bl	sethsv_raw
 3050              	.LVL179:
 135:quantum/rgblight.c **** 
 3051              		.loc 1 135 70 view .LVU720
 3052              	.LBE163:
 3053              	.LBE162:
 604:quantum/rgblight.c **** }
 3054              		.loc 1 604 5 is_stmt 1 view .LVU721
 3055 0018 A278     		ldrb	r2, [r4, #2]
 3056 001a 2178     		ldrb	r1, [r4]
 3057 001c 6078     		ldrb	r0, [r4, #1]
 3058 001e 2B00     		movs	r3, r5
 3059 0020 0096     		str	r6, [sp]
 3060 0022 FFF7FEFF 		bl	rgblight_setrgb_range
 3061              	.LVL180:
 3062              	.L226:
 604:quantum/rgblight.c **** }
 3063              		.loc 1 604 5 is_stmt 0 view .LVU722
 3064              	.LBE161:
 3065              	.LBE160:
 605:quantum/rgblight.c **** 
 3066              		.loc 1 605 1 view .LVU723
 3067              		@ sp needed
 3068 0026 7FBD     		pop	{r0, r1, r2, r3, r4, r5, r6, pc}
 3069              	.L232:
 3070              		.align	2
 3071              	.L231:
 3072 0028 00000000 		.word	.LANCHOR5
 3073              		.cfi_endproc
 3074              	.LFE327:
 3076              		.section	.text.rgblight_sethsv_master,"ax",%progbits
 3077              		.align	1
 3078              		.global	rgblight_sethsv_master
 3079              		.syntax unified
 3080              		.code	16
 3081              		.thumb_func
 3082              		.fpu softvfp
 3084              	rgblight_sethsv_master:
 3085              	.LVL181:
 3086              	.LFB330:
 612:quantum/rgblight.c **** 
 3087              		.loc 1 612 68 is_stmt 1 view -0
 3088              		.cfi_startproc
 3089              		@ args = 0, pretend = 0, frame = 0
 3090              		@ frame_needed = 0, uses_anonymous_args = 0
 612:quantum/rgblight.c **** 
 3091              		.loc 1 612 70 view .LVU725
 3092 0000 0723     		movs	r3, #7
 612:quantum/rgblight.c **** 
 3093              		.loc 1 612 68 is_stmt 0 view .LVU726
 3094 0002 07B5     		push	{r0, r1, r2, lr}
 3095              		.cfi_def_cfa_offset 16
 3096              		.cfi_offset 0, -16
 3097              		.cfi_offset 1, -12
 3098              		.cfi_offset 2, -8
 3099              		.cfi_offset 14, -4
 612:quantum/rgblight.c **** 
 3100              		.loc 1 612 70 view .LVU727
 3101 0004 0093     		str	r3, [sp]
 3102 0006 0023     		movs	r3, #0
 3103 0008 FFF7FEFF 		bl	rgblight_sethsv_range
 3104              	.LVL182:
 612:quantum/rgblight.c **** 
 3105              		.loc 1 612 1 view .LVU728
 3106              		@ sp needed
 3107 000c 07BD     		pop	{r0, r1, r2, pc}
 3108              		.cfi_endproc
 3109              	.LFE330:
 3111              		.section	.text.rgblight_sethsv_slave,"ax",%progbits
 3112              		.align	1
 3113              		.global	rgblight_sethsv_slave
 3114              		.syntax unified
 3115              		.code	16
 3116              		.thumb_func
 3117              		.fpu softvfp
 3119              	rgblight_sethsv_slave:
 3120              	.LVL183:
 3121              	.LFB331:
 614:quantum/rgblight.c **** #endif  // ifndef RGBLIGHT_SPLIT
 3122              		.loc 1 614 67 is_stmt 1 view -0
 3123              		.cfi_startproc
 3124              		@ args = 0, pretend = 0, frame = 0
 3125              		@ frame_needed = 0, uses_anonymous_args = 0
 614:quantum/rgblight.c **** #endif  // ifndef RGBLIGHT_SPLIT
 3126              		.loc 1 614 69 view .LVU730
 3127 0000 0E23     		movs	r3, #14
 614:quantum/rgblight.c **** #endif  // ifndef RGBLIGHT_SPLIT
 3128              		.loc 1 614 67 is_stmt 0 view .LVU731
 3129 0002 07B5     		push	{r0, r1, r2, lr}
 3130              		.cfi_def_cfa_offset 16
 3131              		.cfi_offset 0, -16
 3132              		.cfi_offset 1, -12
 3133              		.cfi_offset 2, -8
 3134              		.cfi_offset 14, -4
 614:quantum/rgblight.c **** #endif  // ifndef RGBLIGHT_SPLIT
 3135              		.loc 1 614 69 view .LVU732
 3136 0004 0093     		str	r3, [sp]
 3137 0006 073B     		subs	r3, r3, #7
 3138 0008 FFF7FEFF 		bl	rgblight_sethsv_range
 3139              	.LVL184:
 614:quantum/rgblight.c **** #endif  // ifndef RGBLIGHT_SPLIT
 3140              		.loc 1 614 1 view .LVU733
 3141              		@ sp needed
 3142 000c 07BD     		pop	{r0, r1, r2, pc}
 3143              		.cfi_endproc
 3144              	.LFE331:
 3146              		.section	.text.rgblight_setrgb_master,"ax",%progbits
 3147              		.align	1
 3148              		.global	rgblight_setrgb_master
 3149              		.syntax unified
 3150              		.code	16
 3151              		.thumb_func
 3152              		.fpu softvfp
 3154              	rgblight_setrgb_master:
 3155              	.LVL185:
 3156              	.LFB328:
 608:quantum/rgblight.c **** 
 3157              		.loc 1 608 62 is_stmt 1 view -0
 3158              		.cfi_startproc
 3159              		@ args = 0, pretend = 0, frame = 0
 3160              		@ frame_needed = 0, uses_anonymous_args = 0
 608:quantum/rgblight.c **** 
 3161              		.loc 1 608 64 view .LVU735
 3162 0000 0723     		movs	r3, #7
 608:quantum/rgblight.c **** 
 3163              		.loc 1 608 62 is_stmt 0 view .LVU736
 3164 0002 07B5     		push	{r0, r1, r2, lr}
 3165              		.cfi_def_cfa_offset 16
 3166              		.cfi_offset 0, -16
 3167              		.cfi_offset 1, -12
 3168              		.cfi_offset 2, -8
 3169              		.cfi_offset 14, -4
 608:quantum/rgblight.c **** 
 3170              		.loc 1 608 64 view .LVU737
 3171 0004 0093     		str	r3, [sp]
 3172 0006 0023     		movs	r3, #0
 3173 0008 FFF7FEFF 		bl	rgblight_setrgb_range
 3174              	.LVL186:
 608:quantum/rgblight.c **** 
 3175              		.loc 1 608 1 view .LVU738
 3176              		@ sp needed
 3177 000c 07BD     		pop	{r0, r1, r2, pc}
 3178              		.cfi_endproc
 3179              	.LFE328:
 3181              		.section	.text.rgblight_setrgb_slave,"ax",%progbits
 3182              		.align	1
 3183              		.global	rgblight_setrgb_slave
 3184              		.syntax unified
 3185              		.code	16
 3186              		.thumb_func
 3187              		.fpu softvfp
 3189              	rgblight_setrgb_slave:
 3190              	.LVL187:
 3191              	.LFB329:
 610:quantum/rgblight.c **** 
 3192              		.loc 1 610 61 is_stmt 1 view -0
 3193              		.cfi_startproc
 3194              		@ args = 0, pretend = 0, frame = 0
 3195              		@ frame_needed = 0, uses_anonymous_args = 0
 610:quantum/rgblight.c **** 
 3196              		.loc 1 610 63 view .LVU740
 3197 0000 0E23     		movs	r3, #14
 610:quantum/rgblight.c **** 
 3198              		.loc 1 610 61 is_stmt 0 view .LVU741
 3199 0002 07B5     		push	{r0, r1, r2, lr}
 3200              		.cfi_def_cfa_offset 16
 3201              		.cfi_offset 0, -16
 3202              		.cfi_offset 1, -12
 3203              		.cfi_offset 2, -8
 3204              		.cfi_offset 14, -4
 610:quantum/rgblight.c **** 
 3205              		.loc 1 610 63 view .LVU742
 3206 0004 0093     		str	r3, [sp]
 3207 0006 073B     		subs	r3, r3, #7
 3208 0008 FFF7FEFF 		bl	rgblight_setrgb_range
 3209              	.LVL188:
 610:quantum/rgblight.c **** 
 3210              		.loc 1 610 1 view .LVU743
 3211              		@ sp needed
 3212 000c 07BD     		pop	{r0, r1, r2, pc}
 3213              		.cfi_endproc
 3214              	.LFE329:
 3216              		.section	.text.rgblight_effect_rainbow_swirl,"ax",%progbits
 3217              		.align	1
 3218              		.global	rgblight_effect_rainbow_swirl
 3219              		.syntax unified
 3220              		.code	16
 3221              		.thumb_func
 3222              		.fpu softvfp
 3224              	rgblight_effect_rainbow_swirl:
 3225              	.LVL189:
 3226              	.LFB342:
 960:quantum/rgblight.c ****     uint8_t hue;
 3227              		.loc 1 960 62 is_stmt 1 view -0
 3228              		.cfi_startproc
 3229              		@ args = 0, pretend = 0, frame = 8
 3230              		@ frame_needed = 0, uses_anonymous_args = 0
 961:quantum/rgblight.c ****     uint8_t i;
 3231              		.loc 1 961 5 view .LVU745
 962:quantum/rgblight.c **** 
 3232              		.loc 1 962 5 view .LVU746
 964:quantum/rgblight.c ****         hue = (RGBLIGHT_RAINBOW_SWIRL_RANGE / effect_num_leds * i + anim->current_hue);
 3233              		.loc 1 964 5 view .LVU747
 960:quantum/rgblight.c ****     uint8_t hue;
 3234              		.loc 1 960 62 is_stmt 0 view .LVU748
 3235 0000 F7B5     		push	{r0, r1, r2, r4, r5, r6, r7, lr}
 3236              		.cfi_def_cfa_offset 32
 3237              		.cfi_offset 0, -32
 3238              		.cfi_offset 1, -28
 3239              		.cfi_offset 2, -24
 3240              		.cfi_offset 4, -20
 3241              		.cfi_offset 5, -16
 3242              		.cfi_offset 6, -12
 3243              		.cfi_offset 7, -8
 3244              		.cfi_offset 14, -4
 960:quantum/rgblight.c ****     uint8_t hue;
 3245              		.loc 1 960 62 view .LVU749
 3246 0002 0500     		movs	r5, r0
 964:quantum/rgblight.c ****         hue = (RGBLIGHT_RAINBOW_SWIRL_RANGE / effect_num_leds * i + anim->current_hue);
 3247              		.loc 1 964 12 view .LVU750
 3248 0004 0024     		movs	r4, #0
 3249              	.LVL190:
 3250              	.L238:
 964:quantum/rgblight.c ****         hue = (RGBLIGHT_RAINBOW_SWIRL_RANGE / effect_num_leds * i + anim->current_hue);
 3251              		.loc 1 964 19 discriminator 1 view .LVU751
 3252 0006 154B     		ldr	r3, .L243
 3253 0008 1978     		ldrb	r1, [r3]
 964:quantum/rgblight.c ****         hue = (RGBLIGHT_RAINBOW_SWIRL_RANGE / effect_num_leds * i + anim->current_hue);
 3254              		.loc 1 964 5 discriminator 1 view .LVU752
 3255 000a A142     		cmp	r1, r4
 3256 000c 09D8     		bhi	.L239
 968:quantum/rgblight.c **** 
 3257              		.loc 1 968 5 is_stmt 1 view .LVU753
 3258 000e FFF7FEFF 		bl	rgblight_set
 3259              	.LVL191:
 970:quantum/rgblight.c ****         anim->current_hue++;
 3260              		.loc 1 970 5 view .LVU754
 970:quantum/rgblight.c ****         anim->current_hue++;
 3261              		.loc 1 970 9 is_stmt 0 view .LVU755
 3262 0012 AA78     		ldrb	r2, [r5, #2]
 3263 0014 2B79     		ldrb	r3, [r5, #4]
 970:quantum/rgblight.c ****         anim->current_hue++;
 3264              		.loc 1 970 8 view .LVU756
 3265 0016 D207     		lsls	r2, r2, #31
 3266 0018 1DD5     		bpl	.L240
 971:quantum/rgblight.c ****     } else {
 3267              		.loc 1 971 9 is_stmt 1 view .LVU757
 971:quantum/rgblight.c ****     } else {
 3268              		.loc 1 971 26 is_stmt 0 view .LVU758
 3269 001a 0133     		adds	r3, r3, #1
 3270              	.L242:
 973:quantum/rgblight.c ****     }
 3271              		.loc 1 973 26 view .LVU759
 3272 001c 5BB2     		sxtb	r3, r3
 3273 001e 2B71     		strb	r3, [r5, #4]
 975:quantum/rgblight.c **** #endif
 3274              		.loc 1 975 1 view .LVU760
 3275              		@ sp needed
 3276              	.LVL192:
 3277              	.LVL193:
 975:quantum/rgblight.c **** #endif
 3278              		.loc 1 975 1 view .LVU761
 3279 0020 F7BD     		pop	{r0, r1, r2, r4, r5, r6, r7, pc}
 3280              	.LVL194:
 3281              	.L239:
 965:quantum/rgblight.c ****         sethsv(hue, rgblight_config.sat, rgblight_config.val, (LED_TYPE *)&led[i + effect_start_pos
 3282              		.loc 1 965 9 is_stmt 1 discriminator 3 view .LVU762
 966:quantum/rgblight.c ****     }
 3283              		.loc 1 966 9 discriminator 3 view .LVU763
 3284              	.LBB164:
 3285              	.LBI164:
 135:quantum/rgblight.c **** 
 3286              		.loc 1 135 6 discriminator 3 view .LVU764
 3287              	.LBB165:
 135:quantum/rgblight.c **** 
 3288              		.loc 1 135 70 discriminator 3 view .LVU765
 3289              	.LBE165:
 3290              	.LBE164:
 966:quantum/rgblight.c ****     }
 3291              		.loc 1 966 82 is_stmt 0 discriminator 3 view .LVU766
 3292 0022 0F4B     		ldr	r3, .L243+4
 965:quantum/rgblight.c ****         sethsv(hue, rgblight_config.sat, rgblight_config.val, (LED_TYPE *)&led[i + effect_start_pos
 3293              		.loc 1 965 45 discriminator 3 view .LVU767
 3294 0024 FF20     		movs	r0, #255
 966:quantum/rgblight.c ****     }
 3295              		.loc 1 966 82 discriminator 3 view .LVU768
 3296 0026 1E78     		ldrb	r6, [r3]
 966:quantum/rgblight.c ****     }
 3297              		.loc 1 966 9 discriminator 3 view .LVU769
 3298 0028 0323     		movs	r3, #3
 966:quantum/rgblight.c ****     }
 3299              		.loc 1 966 82 discriminator 3 view .LVU770
 3300 002a 3619     		adds	r6, r6, r4
 966:quantum/rgblight.c ****     }
 3301              		.loc 1 966 9 discriminator 3 view .LVU771
 3302 002c 5E43     		muls	r6, r3
 3303 002e 0D4B     		ldr	r3, .L243+8
 3304 0030 9E19     		adds	r6, r3, r6
 3305 0032 0D4B     		ldr	r3, .L243+12
 3306              	.LBB170:
 3307              	.LBB166:
 135:quantum/rgblight.c **** 
 3308              		.loc 1 135 70 discriminator 3 view .LVU772
 3309 0034 DA78     		ldrb	r2, [r3, #3]
 3310 0036 0192     		str	r2, [sp, #4]
 3311 0038 9F78     		ldrb	r7, [r3, #2]
 3312              	.LBE166:
 3313              	.LBE170:
 965:quantum/rgblight.c ****         sethsv(hue, rgblight_config.sat, rgblight_config.val, (LED_TYPE *)&led[i + effect_start_pos
 3314              		.loc 1 965 45 discriminator 3 view .LVU773
 3315 003a FFF7FEFF 		bl	__aeabi_idiv
 3316              	.LVL195:
 965:quantum/rgblight.c ****         sethsv(hue, rgblight_config.sat, rgblight_config.val, (LED_TYPE *)&led[i + effect_start_pos
 3317              		.loc 1 965 67 discriminator 3 view .LVU774
 3318 003e 6043     		muls	r0, r4
 965:quantum/rgblight.c ****         sethsv(hue, rgblight_config.sat, rgblight_config.val, (LED_TYPE *)&led[i + effect_start_pos
 3319              		.loc 1 965 13 discriminator 3 view .LVU775
 3320 0040 2B79     		ldrb	r3, [r5, #4]
 3321              	.LBB171:
 3322              	.LBB167:
 135:quantum/rgblight.c **** 
 3323              		.loc 1 135 70 discriminator 3 view .LVU776
 3324 0042 019A     		ldr	r2, [sp, #4]
 3325              	.LBE167:
 3326              	.LBE171:
 965:quantum/rgblight.c ****         sethsv(hue, rgblight_config.sat, rgblight_config.val, (LED_TYPE *)&led[i + effect_start_pos
 3327              		.loc 1 965 13 discriminator 3 view .LVU777
 3328 0044 C018     		adds	r0, r0, r3
 3329              	.LBB172:
 3330              	.LBB168:
 135:quantum/rgblight.c **** 
 3331              		.loc 1 135 70 discriminator 3 view .LVU778
 3332 0046 C0B2     		uxtb	r0, r0
 3333 0048 3300     		movs	r3, r6
 3334 004a 3900     		movs	r1, r7
 3335              	.LBE168:
 3336              	.LBE172:
 964:quantum/rgblight.c ****         hue = (RGBLIGHT_RAINBOW_SWIRL_RANGE / effect_num_leds * i + anim->current_hue);
 3337              		.loc 1 964 39 discriminator 3 view .LVU779
 3338 004c 0134     		adds	r4, r4, #1
 3339              	.LVL196:
 3340              	.LBB173:
 3341              	.LBB169:
 135:quantum/rgblight.c **** 
 3342              		.loc 1 135 70 discriminator 3 view .LVU780
 3343 004e FFF7FEFF 		bl	sethsv_raw
 3344              	.LVL197:
 135:quantum/rgblight.c **** 
 3345              		.loc 1 135 70 discriminator 3 view .LVU781
 3346              	.LBE169:
 3347              	.LBE173:
 964:quantum/rgblight.c ****         hue = (RGBLIGHT_RAINBOW_SWIRL_RANGE / effect_num_leds * i + anim->current_hue);
 3348              		.loc 1 964 39 discriminator 3 view .LVU782
 3349 0052 E4B2     		uxtb	r4, r4
 3350              	.LVL198:
 964:quantum/rgblight.c ****         hue = (RGBLIGHT_RAINBOW_SWIRL_RANGE / effect_num_leds * i + anim->current_hue);
 3351              		.loc 1 964 39 discriminator 3 view .LVU783
 3352 0054 D7E7     		b	.L238
 3353              	.L240:
 973:quantum/rgblight.c ****     }
 3354              		.loc 1 973 9 is_stmt 1 view .LVU784
 973:quantum/rgblight.c ****     }
 3355              		.loc 1 973 26 is_stmt 0 view .LVU785
 3356 0056 013B     		subs	r3, r3, #1
 3357 0058 E0E7     		b	.L242
 3358              	.L244:
 3359 005a C046     		.align	2
 3360              	.L243:
 3361 005c 00000000 		.word	.LANCHOR4
 3362 0060 00000000 		.word	.LANCHOR2
 3363 0064 00000000 		.word	.LANCHOR6
 3364 0068 00000000 		.word	.LANCHOR5
 3365              		.cfi_endproc
 3366              	.LFE342:
 3368              		.section	.text.rgblight_effect_snake,"ax",%progbits
 3369              		.align	1
 3370              		.global	rgblight_effect_snake
 3371              		.syntax unified
 3372              		.code	16
 3373              		.thumb_func
 3374              		.fpu softvfp
 3376              	rgblight_effect_snake:
 3377              	.LVL199:
 3378              	.LFB343:
 981:quantum/rgblight.c ****     static uint8_t pos = 0;
 3379              		.loc 1 981 54 is_stmt 1 view -0
 3380              		.cfi_startproc
 3381              		@ args = 0, pretend = 0, frame = 8
 3382              		@ frame_needed = 0, uses_anonymous_args = 0
 982:quantum/rgblight.c ****     uint8_t        i, j;
 3383              		.loc 1 982 5 view .LVU787
 983:quantum/rgblight.c ****     int8_t         k;
 3384              		.loc 1 983 5 view .LVU788
 984:quantum/rgblight.c ****     int8_t         increment = 1;
 3385              		.loc 1 984 5 view .LVU789
 985:quantum/rgblight.c **** 
 3386              		.loc 1 985 5 view .LVU790
 987:quantum/rgblight.c ****         increment = -1;
 3387              		.loc 1 987 5 view .LVU791
 981:quantum/rgblight.c ****     static uint8_t pos = 0;
 3388              		.loc 1 981 54 is_stmt 0 view .LVU792
 3389 0000 F7B5     		push	{r0, r1, r2, r4, r5, r6, r7, lr}
 3390              		.cfi_def_cfa_offset 32
 3391              		.cfi_offset 0, -32
 3392              		.cfi_offset 1, -28
 3393              		.cfi_offset 2, -24
 3394              		.cfi_offset 4, -20
 3395              		.cfi_offset 5, -16
 3396              		.cfi_offset 6, -12
 3397              		.cfi_offset 7, -8
 3398              		.cfi_offset 14, -4
 985:quantum/rgblight.c **** 
 3399              		.loc 1 985 20 view .LVU793
 3400 0002 0122     		movs	r2, #1
 987:quantum/rgblight.c ****         increment = -1;
 3401              		.loc 1 987 9 view .LVU794
 3402 0004 8378     		ldrb	r3, [r0, #2]
 985:quantum/rgblight.c **** 
 3403              		.loc 1 985 20 view .LVU795
 3404 0006 0092     		str	r2, [sp]
 987:quantum/rgblight.c ****         increment = -1;
 3405              		.loc 1 987 8 view .LVU796
 3406 0008 1342     		tst	r3, r2
 3407 000a 02D0     		beq	.L246
 988:quantum/rgblight.c ****     }
 3408              		.loc 1 988 19 view .LVU797
 3409 000c 0123     		movs	r3, #1
 3410 000e 5B42     		rsbs	r3, r3, #0
 3411 0010 0093     		str	r3, [sp]
 3412              	.L246:
 3413              	.LVL200:
1002:quantum/rgblight.c ****         LED_TYPE *ledp = led + i + effect_start_pos;
 3414              		.loc 1 1002 5 is_stmt 1 view .LVU798
1002:quantum/rgblight.c ****         LED_TYPE *ledp = led + i + effect_start_pos;
 3415              		.loc 1 1002 12 is_stmt 0 view .LVU799
 3416 0012 0025     		movs	r5, #0
 3417              	.LVL201:
 3418              	.L247:
1002:quantum/rgblight.c ****         LED_TYPE *ledp = led + i + effect_start_pos;
 3419              		.loc 1 1002 19 discriminator 1 view .LVU800
 3420 0014 274C     		ldr	r4, .L259
1002:quantum/rgblight.c ****         LED_TYPE *ledp = led + i + effect_start_pos;
 3421              		.loc 1 1002 5 discriminator 1 view .LVU801
 3422 0016 2378     		ldrb	r3, [r4]
 3423 0018 AB42     		cmp	r3, r5
 3424 001a 0CD8     		bhi	.L252
1023:quantum/rgblight.c ****     if (increment == 1) {
 3425              		.loc 1 1023 5 is_stmt 1 view .LVU802
 3426 001c FFF7FEFF 		bl	rgblight_set
 3427              	.LVL202:
1024:quantum/rgblight.c ****         if (pos - 1 < 0) {
 3428              		.loc 1 1024 5 view .LVU803
1024:quantum/rgblight.c ****         if (pos - 1 < 0) {
 3429              		.loc 1 1024 8 is_stmt 0 view .LVU804
 3430 0020 009B     		ldr	r3, [sp]
 3431 0022 254D     		ldr	r5, .L259+4
 3432              	.LVL203:
1024:quantum/rgblight.c ****         if (pos - 1 < 0) {
 3433              		.loc 1 1024 8 view .LVU805
 3434 0024 012B     		cmp	r3, #1
 3435 0026 3ED1     		bne	.L253
1025:quantum/rgblight.c ****             pos = effect_num_leds - 1;
 3436              		.loc 1 1025 9 is_stmt 1 view .LVU806
1025:quantum/rgblight.c ****             pos = effect_num_leds - 1;
 3437              		.loc 1 1025 21 is_stmt 0 view .LVU807
 3438 0028 2B78     		ldrb	r3, [r5]
1025:quantum/rgblight.c ****             pos = effect_num_leds - 1;
 3439              		.loc 1 1025 12 view .LVU808
 3440 002a 002B     		cmp	r3, #0
 3441 002c 00D1     		bne	.L254
1026:quantum/rgblight.c **** #    if defined(RGBLIGHT_SPLIT) && !defined(RGBLIGHT_SPLIT_NO_ANIMATION_SYNC)
 3442              		.loc 1 1026 13 is_stmt 1 view .LVU809
1026:quantum/rgblight.c **** #    if defined(RGBLIGHT_SPLIT) && !defined(RGBLIGHT_SPLIT_NO_ANIMATION_SYNC)
 3443              		.loc 1 1026 35 is_stmt 0 view .LVU810
 3444 002e 2378     		ldrb	r3, [r4]
 3445              	.L254:
1031:quantum/rgblight.c **** #    if defined(RGBLIGHT_SPLIT) && !defined(RGBLIGHT_SPLIT_NO_ANIMATION_SYNC)
 3446              		.loc 1 1031 13 is_stmt 1 view .LVU811
1031:quantum/rgblight.c **** #    if defined(RGBLIGHT_SPLIT) && !defined(RGBLIGHT_SPLIT_NO_ANIMATION_SYNC)
 3447              		.loc 1 1031 17 is_stmt 0 view .LVU812
 3448 0030 013B     		subs	r3, r3, #1
 3449 0032 2B70     		strb	r3, [r5]
 3450              	.L245:
1042:quantum/rgblight.c **** #endif
 3451              		.loc 1 1042 1 view .LVU813
 3452              		@ sp needed
 3453 0034 F7BD     		pop	{r0, r1, r2, r4, r5, r6, r7, pc}
 3454              	.LVL204:
 3455              	.L252:
 3456              	.LBB174:
1003:quantum/rgblight.c ****         ledp->r        = 0;
 3457              		.loc 1 1003 9 is_stmt 1 view .LVU814
1003:quantum/rgblight.c ****         ledp->r        = 0;
 3458              		.loc 1 1003 34 is_stmt 0 view .LVU815
 3459 0036 214B     		ldr	r3, .L259+8
1004:quantum/rgblight.c ****         ledp->g        = 0;
 3460              		.loc 1 1004 24 view .LVU816
 3461 0038 0024     		movs	r4, #0
1003:quantum/rgblight.c ****         ledp->r        = 0;
 3462              		.loc 1 1003 34 view .LVU817
 3463 003a 1E78     		ldrb	r6, [r3]
 3464 003c 0323     		movs	r3, #3
 3465 003e 7619     		adds	r6, r6, r5
 3466 0040 5E43     		muls	r6, r3
1003:quantum/rgblight.c ****         ledp->r        = 0;
 3467              		.loc 1 1003 19 view .LVU818
 3468 0042 1F4B     		ldr	r3, .L259+12
1006:quantum/rgblight.c **** #    ifdef RGBW
 3469              		.loc 1 1006 24 view .LVU819
 3470 0044 2700     		movs	r7, r4
1003:quantum/rgblight.c ****         ledp->r        = 0;
 3471              		.loc 1 1003 19 view .LVU820
 3472 0046 9E19     		adds	r6, r3, r6
 3473              	.LVL205:
1004:quantum/rgblight.c ****         ledp->g        = 0;
 3474              		.loc 1 1004 9 is_stmt 1 view .LVU821
 3475 0048 6B46     		mov	r3, sp
 3476 004a 1B78     		ldrb	r3, [r3]
1004:quantum/rgblight.c ****         ledp->g        = 0;
 3477              		.loc 1 1004 24 is_stmt 0 view .LVU822
 3478 004c 7470     		strb	r4, [r6, #1]
1005:quantum/rgblight.c ****         ledp->b        = 0;
 3479              		.loc 1 1005 9 is_stmt 1 view .LVU823
1005:quantum/rgblight.c ****         ledp->b        = 0;
 3480              		.loc 1 1005 24 is_stmt 0 view .LVU824
 3481 004e 3470     		strb	r4, [r6]
1006:quantum/rgblight.c **** #    ifdef RGBW
 3482              		.loc 1 1006 9 is_stmt 1 view .LVU825
1006:quantum/rgblight.c **** #    ifdef RGBW
 3483              		.loc 1 1006 24 is_stmt 0 view .LVU826
 3484 0050 B470     		strb	r4, [r6, #2]
1010:quantum/rgblight.c ****             k = pos + j * increment;
 3485              		.loc 1 1010 9 is_stmt 1 view .LVU827
 3486              	.LVL206:
1010:quantum/rgblight.c ****             k = pos + j * increment;
 3487              		.loc 1 1010 9 is_stmt 0 view .LVU828
 3488 0052 0193     		str	r3, [sp, #4]
 3489              	.LVL207:
 3490              	.L251:
1011:quantum/rgblight.c ****             if (k > RGBLED_NUM) {
 3491              		.loc 1 1011 13 is_stmt 1 view .LVU829
1011:quantum/rgblight.c ****             if (k > RGBLED_NUM) {
 3492              		.loc 1 1011 21 is_stmt 0 view .LVU830
 3493 0054 184B     		ldr	r3, .L259+4
 3494 0056 1978     		ldrb	r1, [r3]
 3495 0058 6118     		adds	r1, r4, r1
 3496 005a C9B2     		uxtb	r1, r1
1011:quantum/rgblight.c ****             if (k > RGBLED_NUM) {
 3497              		.loc 1 1011 15 view .LVU831
 3498 005c 48B2     		sxtb	r0, r1
 3499              	.LVL208:
1012:quantum/rgblight.c ****                 k = k % RGBLED_NUM;
 3500              		.loc 1 1012 13 is_stmt 1 view .LVU832
1012:quantum/rgblight.c ****                 k = k % RGBLED_NUM;
 3501              		.loc 1 1012 16 is_stmt 0 view .LVU833
 3502 005e 0E28     		cmp	r0, #14
 3503 0060 1ADD     		ble	.L248
1013:quantum/rgblight.c ****             }
 3504              		.loc 1 1013 17 is_stmt 1 view .LVU834
1013:quantum/rgblight.c ****             }
 3505              		.loc 1 1013 19 is_stmt 0 view .LVU835
 3506 0062 0E21     		movs	r1, #14
 3507 0064 FFF7FEFF 		bl	__aeabi_idivmod
 3508              	.LVL209:
1013:quantum/rgblight.c ****             }
 3509              		.loc 1 1013 19 view .LVU836
 3510 0068 48B2     		sxtb	r0, r1
 3511              	.LVL210:
1015:quantum/rgblight.c ****                 k = k + effect_num_leds;
 3512              		.loc 1 1015 13 is_stmt 1 view .LVU837
 3513              	.L249:
1018:quantum/rgblight.c ****                 sethsv(rgblight_config.hue, rgblight_config.sat, (uint8_t)(rgblight_config.val * (R
 3514              		.loc 1 1018 13 view .LVU838
1018:quantum/rgblight.c ****                 sethsv(rgblight_config.hue, rgblight_config.sat, (uint8_t)(rgblight_config.val * (R
 3515              		.loc 1 1018 16 is_stmt 0 view .LVU839
 3516 006a 8542     		cmp	r5, r0
 3517 006c 0BD1     		bne	.L250
1019:quantum/rgblight.c ****             }
 3518              		.loc 1 1019 17 is_stmt 1 view .LVU840
 3519              	.LVL211:
 3520              	.LBB175:
 3521              	.LBI175:
 135:quantum/rgblight.c **** 
 3522              		.loc 1 135 6 view .LVU841
 3523              	.LBB176:
 135:quantum/rgblight.c **** 
 3524              		.loc 1 135 70 view .LVU842
 3525              	.LBE176:
 3526              	.LBE175:
1019:quantum/rgblight.c ****             }
 3527              		.loc 1 1019 96 is_stmt 0 view .LVU843
 3528 006e 0422     		movs	r2, #4
1019:quantum/rgblight.c ****             }
 3529              		.loc 1 1019 91 view .LVU844
 3530 0070 144B     		ldr	r3, .L259+16
1019:quantum/rgblight.c ****             }
 3531              		.loc 1 1019 96 view .LVU845
 3532 0072 D21B     		subs	r2, r2, r7
1019:quantum/rgblight.c ****             }
 3533              		.loc 1 1019 91 view .LVU846
 3534 0074 D978     		ldrb	r1, [r3, #3]
 3535              	.LBB179:
 3536              	.LBB177:
 135:quantum/rgblight.c **** 
 3537              		.loc 1 135 70 view .LVU847
 3538 0076 5878     		ldrb	r0, [r3, #1]
 3539              	.LVL212:
 135:quantum/rgblight.c **** 
 3540              		.loc 1 135 70 view .LVU848
 3541              	.LBE177:
 3542              	.LBE179:
1019:quantum/rgblight.c ****             }
 3543              		.loc 1 1019 96 view .LVU849
 3544 0078 4A43     		muls	r2, r1
1019:quantum/rgblight.c ****             }
 3545              		.loc 1 1019 133 view .LVU850
 3546 007a 9210     		asrs	r2, r2, #2
 3547              	.LBB180:
 3548              	.LBB178:
 135:quantum/rgblight.c **** 
 3549              		.loc 1 135 70 view .LVU851
 3550 007c 9978     		ldrb	r1, [r3, #2]
 3551 007e D2B2     		uxtb	r2, r2
 3552 0080 3300     		movs	r3, r6
 3553 0082 FFF7FEFF 		bl	sethsv_raw
 3554              	.LVL213:
 3555              	.L250:
 135:quantum/rgblight.c **** 
 3556              		.loc 1 135 70 view .LVU852
 3557 0086 019B     		ldr	r3, [sp, #4]
 3558 0088 0137     		adds	r7, r7, #1
 3559              	.LVL214:
 135:quantum/rgblight.c **** 
 3560              		.loc 1 135 70 view .LVU853
 3561 008a E418     		adds	r4, r4, r3
 3562 008c E4B2     		uxtb	r4, r4
 3563              	.LBE178:
 3564              	.LBE180:
1010:quantum/rgblight.c ****             k = pos + j * increment;
 3565              		.loc 1 1010 9 discriminator 2 view .LVU854
 3566 008e 042F     		cmp	r7, #4
 3567 0090 E0D1     		bne	.L251
 3568              	.LBE174:
1002:quantum/rgblight.c ****         LED_TYPE *ledp = led + i + effect_start_pos;
 3569              		.loc 1 1002 39 discriminator 2 view .LVU855
 3570 0092 0135     		adds	r5, r5, #1
 3571              	.LVL215:
1002:quantum/rgblight.c ****         LED_TYPE *ledp = led + i + effect_start_pos;
 3572              		.loc 1 1002 39 discriminator 2 view .LVU856
 3573 0094 EDB2     		uxtb	r5, r5
 3574              	.LVL216:
1002:quantum/rgblight.c ****         LED_TYPE *ledp = led + i + effect_start_pos;
 3575              		.loc 1 1002 39 discriminator 2 view .LVU857
 3576 0096 BDE7     		b	.L247
 3577              	.LVL217:
 3578              	.L248:
 3579              	.LBB181:
1015:quantum/rgblight.c ****                 k = k + effect_num_leds;
 3580              		.loc 1 1015 13 is_stmt 1 view .LVU858
1015:quantum/rgblight.c ****                 k = k + effect_num_leds;
 3581              		.loc 1 1015 16 is_stmt 0 view .LVU859
 3582 0098 0028     		cmp	r0, #0
 3583 009a E6DA     		bge	.L249
1016:quantum/rgblight.c ****             }
 3584              		.loc 1 1016 17 is_stmt 1 view .LVU860
1016:quantum/rgblight.c ****             }
 3585              		.loc 1 1016 23 is_stmt 0 view .LVU861
 3586 009c 054B     		ldr	r3, .L259
 3587 009e 1878     		ldrb	r0, [r3]
 3588              	.LVL218:
1016:quantum/rgblight.c ****             }
 3589              		.loc 1 1016 23 view .LVU862
 3590 00a0 0818     		adds	r0, r1, r0
1016:quantum/rgblight.c ****             }
 3591              		.loc 1 1016 19 view .LVU863
 3592 00a2 40B2     		sxtb	r0, r0
 3593              	.LVL219:
1016:quantum/rgblight.c ****             }
 3594              		.loc 1 1016 19 view .LVU864
 3595 00a4 E1E7     		b	.L249
 3596              	.LVL220:
 3597              	.L253:
1016:quantum/rgblight.c ****             }
 3598              		.loc 1 1016 19 view .LVU865
 3599              	.LBE181:
1037:quantum/rgblight.c **** #    if defined(RGBLIGHT_SPLIT) && !defined(RGBLIGHT_SPLIT_NO_ANIMATION_SYNC)
 3600              		.loc 1 1037 9 is_stmt 1 view .LVU866
1037:quantum/rgblight.c **** #    if defined(RGBLIGHT_SPLIT) && !defined(RGBLIGHT_SPLIT_NO_ANIMATION_SYNC)
 3601              		.loc 1 1037 20 is_stmt 0 view .LVU867
 3602 00a6 2878     		ldrb	r0, [r5]
1037:quantum/rgblight.c **** #    if defined(RGBLIGHT_SPLIT) && !defined(RGBLIGHT_SPLIT_NO_ANIMATION_SYNC)
 3603              		.loc 1 1037 25 view .LVU868
 3604 00a8 2178     		ldrb	r1, [r4]
1037:quantum/rgblight.c **** #    if defined(RGBLIGHT_SPLIT) && !defined(RGBLIGHT_SPLIT_NO_ANIMATION_SYNC)
 3605              		.loc 1 1037 20 view .LVU869
 3606 00aa 0130     		adds	r0, r0, #1
1037:quantum/rgblight.c **** #    if defined(RGBLIGHT_SPLIT) && !defined(RGBLIGHT_SPLIT_NO_ANIMATION_SYNC)
 3607              		.loc 1 1037 25 view .LVU870
 3608 00ac FFF7FEFF 		bl	__aeabi_idivmod
 3609              	.LVL221:
1037:quantum/rgblight.c **** #    if defined(RGBLIGHT_SPLIT) && !defined(RGBLIGHT_SPLIT_NO_ANIMATION_SYNC)
 3610              		.loc 1 1037 13 view .LVU871
 3611 00b0 2970     		strb	r1, [r5]
1042:quantum/rgblight.c **** #endif
 3612              		.loc 1 1042 1 view .LVU872
 3613 00b2 BFE7     		b	.L245
 3614              	.L260:
 3615              		.align	2
 3616              	.L259:
 3617 00b4 00000000 		.word	.LANCHOR4
 3618 00b8 00000000 		.word	.LANCHOR10
 3619 00bc 00000000 		.word	.LANCHOR2
 3620 00c0 00000000 		.word	.LANCHOR6
 3621 00c4 00000000 		.word	.LANCHOR5
 3622              		.cfi_endproc
 3623              	.LFE343:
 3625              		.section	.text.rgblight_effect_knight,"ax",%progbits
 3626              		.align	1
 3627              		.global	rgblight_effect_knight
 3628              		.syntax unified
 3629              		.code	16
 3630              		.thumb_func
 3631              		.fpu softvfp
 3633              	rgblight_effect_knight:
 3634              	.LVL222:
 3635              	.LFB344:
1048:quantum/rgblight.c ****     static int8_t low_bound  = 0;
 3636              		.loc 1 1048 55 is_stmt 1 view -0
 3637              		.cfi_startproc
 3638              		@ args = 0, pretend = 0, frame = 0
 3639              		@ frame_needed = 0, uses_anonymous_args = 0
1049:quantum/rgblight.c ****     static int8_t high_bound = RGBLIGHT_EFFECT_KNIGHT_LENGTH - 1;
 3640              		.loc 1 1049 5 view .LVU874
1050:quantum/rgblight.c ****     static int8_t increment  = 1;
 3641              		.loc 1 1050 5 view .LVU875
1051:quantum/rgblight.c ****     uint8_t       i, cur;
 3642              		.loc 1 1051 5 view .LVU876
1052:quantum/rgblight.c **** 
 3643              		.loc 1 1052 5 view .LVU877
1063:quantum/rgblight.c ****         led[i].r = 0;
 3644              		.loc 1 1063 5 view .LVU878
1048:quantum/rgblight.c ****     static int8_t low_bound  = 0;
 3645              		.loc 1 1048 55 is_stmt 0 view .LVU879
 3646 0000 F8B5     		push	{r3, r4, r5, r6, r7, lr}
 3647              		.cfi_def_cfa_offset 24
 3648              		.cfi_offset 3, -24
 3649              		.cfi_offset 4, -20
 3650              		.cfi_offset 5, -16
 3651              		.cfi_offset 6, -12
 3652              		.cfi_offset 7, -8
 3653              		.cfi_offset 14, -4
1063:quantum/rgblight.c ****         led[i].r = 0;
 3654              		.loc 1 1063 12 view .LVU880
 3655 0002 284B     		ldr	r3, .L270
 3656 0004 0021     		movs	r1, #0
 3657 0006 1A78     		ldrb	r2, [r3]
 3658              	.LVL223:
1063:quantum/rgblight.c ****         led[i].r = 0;
 3659              		.loc 1 1063 34 view .LVU881
 3660 0008 274B     		ldr	r3, .L270+4
 3661 000a 284D     		ldr	r5, .L270+8
 3662 000c 1878     		ldrb	r0, [r3]
 3663              	.LVL224:
1063:quantum/rgblight.c ****         led[i].r = 0;
 3664              		.loc 1 1063 34 view .LVU882
 3665 000e 0323     		movs	r3, #3
 3666 0010 5343     		muls	r3, r2
 3667 0012 EB18     		adds	r3, r5, r3
 3668              	.L262:
1063:quantum/rgblight.c ****         led[i].r = 0;
 3669              		.loc 1 1063 5 discriminator 1 view .LVU883
 3670 0014 9042     		cmp	r0, r2
 3671 0016 1DD8     		bhi	.L263
1072:quantum/rgblight.c ****         cur = (i + RGBLIGHT_EFFECT_KNIGHT_OFFSET) % effect_num_leds + effect_start_pos;
 3672              		.loc 1 1072 12 view .LVU884
 3673 0018 0024     		movs	r4, #0
1078:quantum/rgblight.c ****             led[cur].g = 0;
 3674              		.loc 1 1078 24 view .LVU885
 3675 001a 0327     		movs	r7, #3
 3676              	.LVL225:
 3677              	.L264:
1072:quantum/rgblight.c ****         cur = (i + RGBLIGHT_EFFECT_KNIGHT_OFFSET) % effect_num_leds + effect_start_pos;
 3678              		.loc 1 1072 19 discriminator 1 view .LVU886
 3679 001c 244B     		ldr	r3, .L270+12
 3680 001e 254E     		ldr	r6, .L270+16
 3681 0020 1978     		ldrb	r1, [r3]
1072:quantum/rgblight.c ****         cur = (i + RGBLIGHT_EFFECT_KNIGHT_OFFSET) % effect_num_leds + effect_start_pos;
 3682              		.loc 1 1072 5 discriminator 1 view .LVU887
 3683 0022 A142     		cmp	r1, r4
 3684 0024 1DD8     		bhi	.L267
1086:quantum/rgblight.c **** 
 3685              		.loc 1 1086 5 is_stmt 1 view .LVU888
 3686 0026 FFF7FEFF 		bl	rgblight_set
 3687              	.LVL226:
1090:quantum/rgblight.c ****     high_bound += increment;
 3688              		.loc 1 1090 5 view .LVU889
1091:quantum/rgblight.c **** 
 3689              		.loc 1 1091 16 is_stmt 0 view .LVU890
 3690 002a 234C     		ldr	r4, .L270+20
 3691              	.LVL227:
1090:quantum/rgblight.c ****     high_bound += increment;
 3692              		.loc 1 1090 15 view .LVU891
 3693 002c 2348     		ldr	r0, .L270+24
 3694 002e 3378     		ldrb	r3, [r6]
 3695 0030 0178     		ldrb	r1, [r0]
1091:quantum/rgblight.c **** 
 3696              		.loc 1 1091 16 view .LVU892
 3697 0032 2278     		ldrb	r2, [r4]
1090:quantum/rgblight.c ****     high_bound += increment;
 3698              		.loc 1 1090 15 view .LVU893
 3699 0034 CB18     		adds	r3, r1, r3
1091:quantum/rgblight.c **** 
 3700              		.loc 1 1091 16 view .LVU894
 3701 0036 8A18     		adds	r2, r1, r2
1090:quantum/rgblight.c ****     high_bound += increment;
 3702              		.loc 1 1090 15 view .LVU895
 3703 0038 5BB2     		sxtb	r3, r3
1091:quantum/rgblight.c **** 
 3704              		.loc 1 1091 16 view .LVU896
 3705 003a 52B2     		sxtb	r2, r2
1090:quantum/rgblight.c ****     high_bound += increment;
 3706              		.loc 1 1090 15 view .LVU897
 3707 003c 3370     		strb	r3, [r6]
1091:quantum/rgblight.c **** 
 3708              		.loc 1 1091 5 is_stmt 1 view .LVU898
1091:quantum/rgblight.c **** 
 3709              		.loc 1 1091 16 is_stmt 0 view .LVU899
 3710 003e 2270     		strb	r2, [r4]
1093:quantum/rgblight.c ****         increment = -increment;
 3711              		.loc 1 1093 5 is_stmt 1 view .LVU900
1093:quantum/rgblight.c ****         increment = -increment;
 3712              		.loc 1 1093 8 is_stmt 0 view .LVU901
 3713 0040 002A     		cmp	r2, #0
 3714 0042 04DD     		ble	.L268
1093:quantum/rgblight.c ****         increment = -increment;
 3715              		.loc 1 1093 72 discriminator 1 view .LVU902
 3716 0044 1A4A     		ldr	r2, .L270+12
 3717 0046 1278     		ldrb	r2, [r2]
 3718 0048 013A     		subs	r2, r2, #1
1093:quantum/rgblight.c ****         increment = -increment;
 3719              		.loc 1 1093 25 discriminator 1 view .LVU903
 3720 004a 9342     		cmp	r3, r2
 3721 004c 01DB     		blt	.L261
 3722              	.L268:
1094:quantum/rgblight.c **** #    if defined(RGBLIGHT_SPLIT) && !defined(RGBLIGHT_SPLIT_NO_ANIMATION_SYNC)
 3723              		.loc 1 1094 9 is_stmt 1 view .LVU904
1094:quantum/rgblight.c **** #    if defined(RGBLIGHT_SPLIT) && !defined(RGBLIGHT_SPLIT_NO_ANIMATION_SYNC)
 3724              		.loc 1 1094 19 is_stmt 0 view .LVU905
 3725 004e 4942     		rsbs	r1, r1, #0
 3726 0050 0170     		strb	r1, [r0]
 3727              	.L261:
1101:quantum/rgblight.c **** #endif
 3728              		.loc 1 1101 1 view .LVU906
 3729              		@ sp needed
 3730 0052 F8BD     		pop	{r3, r4, r5, r6, r7, pc}
 3731              	.LVL228:
 3732              	.L263:
1064:quantum/rgblight.c ****         led[i].g = 0;
 3733              		.loc 1 1064 9 is_stmt 1 discriminator 3 view .LVU907
1063:quantum/rgblight.c ****         led[i].r = 0;
 3734              		.loc 1 1063 53 is_stmt 0 discriminator 3 view .LVU908
 3735 0054 0132     		adds	r2, r2, #1
 3736              	.LVL229:
1064:quantum/rgblight.c ****         led[i].g = 0;
 3737              		.loc 1 1064 18 discriminator 3 view .LVU909
 3738 0056 5970     		strb	r1, [r3, #1]
1065:quantum/rgblight.c ****         led[i].b = 0;
 3739              		.loc 1 1065 9 is_stmt 1 discriminator 3 view .LVU910
1065:quantum/rgblight.c ****         led[i].b = 0;
 3740              		.loc 1 1065 18 is_stmt 0 discriminator 3 view .LVU911
 3741 0058 1970     		strb	r1, [r3]
1066:quantum/rgblight.c **** #    ifdef RGBW
 3742              		.loc 1 1066 9 is_stmt 1 discriminator 3 view .LVU912
1066:quantum/rgblight.c **** #    ifdef RGBW
 3743              		.loc 1 1066 18 is_stmt 0 discriminator 3 view .LVU913
 3744 005a 9970     		strb	r1, [r3, #2]
1063:quantum/rgblight.c ****         led[i].r = 0;
 3745              		.loc 1 1063 53 discriminator 3 view .LVU914
 3746 005c D2B2     		uxtb	r2, r2
 3747              	.LVL230:
1063:quantum/rgblight.c ****         led[i].r = 0;
 3748              		.loc 1 1063 53 discriminator 3 view .LVU915
 3749 005e 0333     		adds	r3, r3, #3
 3750 0060 D8E7     		b	.L262
 3751              	.LVL231:
 3752              	.L267:
1073:quantum/rgblight.c **** 
 3753              		.loc 1 1073 9 is_stmt 1 view .LVU916
1073:quantum/rgblight.c **** 
 3754              		.loc 1 1073 51 is_stmt 0 view .LVU917
 3755 0062 2000     		movs	r0, r4
 3756 0064 FFF7FEFF 		bl	__aeabi_idivmod
 3757              	.LVL232:
1075:quantum/rgblight.c ****             sethsv(rgblight_config.hue, rgblight_config.sat, rgblight_config.val, (LED_TYPE *)&led[
 3758              		.loc 1 1075 15 view .LVU918
 3759 0068 0022     		movs	r2, #0
1073:quantum/rgblight.c **** 
 3760              		.loc 1 1073 13 view .LVU919
 3761 006a 0E4B     		ldr	r3, .L270
1075:quantum/rgblight.c ****             sethsv(rgblight_config.hue, rgblight_config.sat, rgblight_config.val, (LED_TYPE *)&led[
 3762              		.loc 1 1075 15 view .LVU920
 3763 006c B256     		ldrsb	r2, [r6, r2]
1073:quantum/rgblight.c **** 
 3764              		.loc 1 1073 13 view .LVU921
 3765 006e 1B78     		ldrb	r3, [r3]
 3766 0070 CB18     		adds	r3, r1, r3
 3767 0072 DBB2     		uxtb	r3, r3
 3768              	.LVL233:
1075:quantum/rgblight.c ****             sethsv(rgblight_config.hue, rgblight_config.sat, rgblight_config.val, (LED_TYPE *)&led[
 3769              		.loc 1 1075 9 is_stmt 1 view .LVU922
1076:quantum/rgblight.c ****         } else {
 3770              		.loc 1 1076 13 is_stmt 0 view .LVU923
 3771 0074 7B43     		muls	r3, r7
 3772              	.LVL234:
1075:quantum/rgblight.c ****             sethsv(rgblight_config.hue, rgblight_config.sat, rgblight_config.val, (LED_TYPE *)&led[
 3773              		.loc 1 1075 12 view .LVU924
 3774 0076 9442     		cmp	r4, r2
 3775 0078 0EDB     		blt	.L265
1075:quantum/rgblight.c ****             sethsv(rgblight_config.hue, rgblight_config.sat, rgblight_config.val, (LED_TYPE *)&led[
 3776              		.loc 1 1075 33 discriminator 1 view .LVU925
 3777 007a 0F4A     		ldr	r2, .L270+20
 3778 007c 1278     		ldrb	r2, [r2]
 3779 007e 52B2     		sxtb	r2, r2
1075:quantum/rgblight.c ****             sethsv(rgblight_config.hue, rgblight_config.sat, rgblight_config.val, (LED_TYPE *)&led[
 3780              		.loc 1 1075 28 discriminator 1 view .LVU926
 3781 0080 9442     		cmp	r4, r2
 3782 0082 09DC     		bgt	.L265
1076:quantum/rgblight.c ****         } else {
 3783              		.loc 1 1076 13 is_stmt 1 view .LVU927
 3784              	.LVL235:
 3785              	.LBB182:
 3786              	.LBI182:
 135:quantum/rgblight.c **** 
 3787              		.loc 1 135 6 view .LVU928
 3788              	.LBB183:
 135:quantum/rgblight.c **** 
 3789              		.loc 1 135 70 view .LVU929
 3790              	.LBE183:
 3791              	.LBE182:
1076:quantum/rgblight.c ****         } else {
 3792              		.loc 1 1076 13 is_stmt 0 view .LVU930
 3793 0084 0E48     		ldr	r0, .L270+28
 3794 0086 EB18     		adds	r3, r5, r3
 3795              	.LVL236:
 3796              	.LBB185:
 3797              	.LBB184:
 135:quantum/rgblight.c **** 
 3798              		.loc 1 135 70 view .LVU931
 3799 0088 C278     		ldrb	r2, [r0, #3]
 3800 008a 8178     		ldrb	r1, [r0, #2]
 3801              	.LVL237:
 135:quantum/rgblight.c **** 
 3802              		.loc 1 135 70 view .LVU932
 3803 008c 4078     		ldrb	r0, [r0, #1]
 3804 008e FFF7FEFF 		bl	sethsv_raw
 3805              	.LVL238:
 3806              	.L266:
 135:quantum/rgblight.c **** 
 3807              		.loc 1 135 70 view .LVU933
 3808              	.LBE184:
 3809              	.LBE185:
1072:quantum/rgblight.c ****         cur = (i + RGBLIGHT_EFFECT_KNIGHT_OFFSET) % effect_num_leds + effect_start_pos;
 3810              		.loc 1 1072 54 discriminator 2 view .LVU934
 3811 0092 0134     		adds	r4, r4, #1
 3812              	.LVL239:
1072:quantum/rgblight.c ****         cur = (i + RGBLIGHT_EFFECT_KNIGHT_OFFSET) % effect_num_leds + effect_start_pos;
 3813              		.loc 1 1072 54 discriminator 2 view .LVU935
 3814 0094 E4B2     		uxtb	r4, r4
 3815              	.LVL240:
1072:quantum/rgblight.c ****         cur = (i + RGBLIGHT_EFFECT_KNIGHT_OFFSET) % effect_num_leds + effect_start_pos;
 3816              		.loc 1 1072 54 discriminator 2 view .LVU936
 3817 0096 C1E7     		b	.L264
 3818              	.LVL241:
 3819              	.L265:
1078:quantum/rgblight.c ****             led[cur].g = 0;
 3820              		.loc 1 1078 13 is_stmt 1 view .LVU937
1078:quantum/rgblight.c ****             led[cur].g = 0;
 3821              		.loc 1 1078 24 is_stmt 0 view .LVU938
 3822 0098 0022     		movs	r2, #0
 3823 009a E918     		adds	r1, r5, r3
 3824              	.LVL242:
1078:quantum/rgblight.c ****             led[cur].g = 0;
 3825              		.loc 1 1078 24 view .LVU939
 3826 009c 4A70     		strb	r2, [r1, #1]
1079:quantum/rgblight.c ****             led[cur].b = 0;
 3827              		.loc 1 1079 13 is_stmt 1 view .LVU940
1079:quantum/rgblight.c ****             led[cur].b = 0;
 3828              		.loc 1 1079 24 is_stmt 0 view .LVU941
 3829 009e EA54     		strb	r2, [r5, r3]
1080:quantum/rgblight.c **** #    ifdef RGBW
 3830              		.loc 1 1080 13 is_stmt 1 view .LVU942
1080:quantum/rgblight.c **** #    ifdef RGBW
 3831              		.loc 1 1080 24 is_stmt 0 view .LVU943
 3832 00a0 8A70     		strb	r2, [r1, #2]
 3833 00a2 F6E7     		b	.L266
 3834              	.L271:
 3835              		.align	2
 3836              	.L270:
 3837 00a4 00000000 		.word	.LANCHOR2
 3838 00a8 00000000 		.word	.LANCHOR3
 3839 00ac 00000000 		.word	.LANCHOR6
 3840 00b0 00000000 		.word	.LANCHOR4
 3841 00b4 00000000 		.word	.LANCHOR11
 3842 00b8 00000000 		.word	.LANCHOR12
 3843 00bc 00000000 		.word	.LANCHOR13
 3844 00c0 00000000 		.word	.LANCHOR5
 3845              		.cfi_endproc
 3846              	.LFE344:
 3848              		.section	.text.rgblight_effect_christmas,"ax",%progbits
 3849              		.align	1
 3850              		.global	rgblight_effect_christmas
 3851              		.syntax unified
 3852              		.code	16
 3853              		.thumb_func
 3854              		.fpu softvfp
 3856              	rgblight_effect_christmas:
 3857              	.LVL243:
 3858              	.LFB345:
1105:quantum/rgblight.c ****     uint8_t hue;
 3859              		.loc 1 1105 58 is_stmt 1 view -0
 3860              		.cfi_startproc
 3861              		@ args = 0, pretend = 0, frame = 8
 3862              		@ frame_needed = 0, uses_anonymous_args = 0
1106:quantum/rgblight.c ****     uint8_t i;
 3863              		.loc 1 1106 5 view .LVU945
1107:quantum/rgblight.c **** 
 3864              		.loc 1 1107 5 view .LVU946
1109:quantum/rgblight.c ****     for (i = 0; i < effect_num_leds; i++) {
 3865              		.loc 1 1109 5 view .LVU947
1105:quantum/rgblight.c ****     uint8_t hue;
 3866              		.loc 1 1105 58 is_stmt 0 view .LVU948
 3867 0000 F7B5     		push	{r0, r1, r2, r4, r5, r6, r7, lr}
 3868              		.cfi_def_cfa_offset 32
 3869              		.cfi_offset 0, -32
 3870              		.cfi_offset 1, -28
 3871              		.cfi_offset 2, -24
 3872              		.cfi_offset 4, -20
 3873              		.cfi_offset 5, -16
 3874              		.cfi_offset 6, -12
 3875              		.cfi_offset 7, -8
 3876              		.cfi_offset 14, -4
1109:quantum/rgblight.c ****     for (i = 0; i < effect_num_leds; i++) {
 3877              		.loc 1 1109 55 view .LVU949
 3878 0002 0125     		movs	r5, #1
1105:quantum/rgblight.c ****     uint8_t hue;
 3879              		.loc 1 1105 58 view .LVU950
 3880 0004 0600     		movs	r6, r0
1110:quantum/rgblight.c ****         hue = 0 + ((i / RGBLIGHT_EFFECT_CHRISTMAS_STEP + anim->current_offset) % 2) * 85;
 3881              		.loc 1 1110 12 view .LVU951
 3882 0006 0024     		movs	r4, #0
1112:quantum/rgblight.c ****     }
 3883              		.loc 1 1112 9 view .LVU952
 3884 0008 0327     		movs	r7, #3
1109:quantum/rgblight.c ****     for (i = 0; i < effect_num_leds; i++) {
 3885              		.loc 1 1109 33 view .LVU953
 3886 000a 8388     		ldrh	r3, [r0, #4]
1111:quantum/rgblight.c ****         sethsv(hue, rgblight_config.sat, rgblight_config.val, (LED_TYPE *)&led[i + effect_start_pos
 3887              		.loc 1 1111 13 view .LVU954
 3888 000c 0195     		str	r5, [sp, #4]
1109:quantum/rgblight.c ****     for (i = 0; i < effect_num_leds; i++) {
 3889              		.loc 1 1109 50 view .LVU955
 3890 000e 0133     		adds	r3, r3, #1
1109:quantum/rgblight.c ****     for (i = 0; i < effect_num_leds; i++) {
 3891              		.loc 1 1109 55 view .LVU956
 3892 0010 2B40     		ands	r3, r5
1109:quantum/rgblight.c ****     for (i = 0; i < effect_num_leds; i++) {
 3893              		.loc 1 1109 26 view .LVU957
 3894 0012 8380     		strh	r3, [r0, #4]
1110:quantum/rgblight.c ****         hue = 0 + ((i / RGBLIGHT_EFFECT_CHRISTMAS_STEP + anim->current_offset) % 2) * 85;
 3895              		.loc 1 1110 5 is_stmt 1 view .LVU958
 3896              	.LVL244:
 3897              	.L273:
1110:quantum/rgblight.c ****         hue = 0 + ((i / RGBLIGHT_EFFECT_CHRISTMAS_STEP + anim->current_offset) % 2) * 85;
 3898              		.loc 1 1110 19 is_stmt 0 discriminator 1 view .LVU959
 3899 0014 0E4B     		ldr	r3, .L275
1110:quantum/rgblight.c ****         hue = 0 + ((i / RGBLIGHT_EFFECT_CHRISTMAS_STEP + anim->current_offset) % 2) * 85;
 3900              		.loc 1 1110 5 discriminator 1 view .LVU960
 3901 0016 1B78     		ldrb	r3, [r3]
 3902 0018 A342     		cmp	r3, r4
 3903 001a 02D8     		bhi	.L274
1114:quantum/rgblight.c **** }
 3904              		.loc 1 1114 5 is_stmt 1 view .LVU961
 3905 001c FFF7FEFF 		bl	rgblight_set
 3906              	.LVL245:
1115:quantum/rgblight.c **** #endif
 3907              		.loc 1 1115 1 is_stmt 0 view .LVU962
 3908              		@ sp needed
 3909              	.LVL246:
 3910              	.LVL247:
1115:quantum/rgblight.c **** #endif
 3911              		.loc 1 1115 1 view .LVU963
 3912 0020 F7BD     		pop	{r0, r1, r2, r4, r5, r6, r7, pc}
 3913              	.LVL248:
 3914              	.L274:
1111:quantum/rgblight.c ****         sethsv(hue, rgblight_config.sat, rgblight_config.val, (LED_TYPE *)&led[i + effect_start_pos
 3915              		.loc 1 1111 9 is_stmt 1 discriminator 3 view .LVU964
1112:quantum/rgblight.c ****     }
 3916              		.loc 1 1112 9 discriminator 3 view .LVU965
 3917              	.LBB186:
 3918              	.LBI186:
 135:quantum/rgblight.c **** 
 3919              		.loc 1 135 6 discriminator 3 view .LVU966
 3920              	.LBB187:
 135:quantum/rgblight.c **** 
 3921              		.loc 1 135 70 discriminator 3 view .LVU967
 3922              	.LBE187:
 3923              	.LBE186:
1111:quantum/rgblight.c ****         sethsv(hue, rgblight_config.sat, rgblight_config.val, (LED_TYPE *)&led[i + effect_start_pos
 3924              		.loc 1 1111 62 is_stmt 0 discriminator 3 view .LVU968
 3925 0022 B588     		ldrh	r5, [r6, #4]
 3926              	.LVL249:
1111:quantum/rgblight.c ****         sethsv(hue, rgblight_config.sat, rgblight_config.val, (LED_TYPE *)&led[i + effect_start_pos
 3927              		.loc 1 1111 23 discriminator 3 view .LVU969
 3928 0024 6008     		lsrs	r0, r4, #1
1111:quantum/rgblight.c ****         sethsv(hue, rgblight_config.sat, rgblight_config.val, (LED_TYPE *)&led[i + effect_start_pos
 3929              		.loc 1 1111 62 discriminator 3 view .LVU970
 3930 0026 AC46     		mov	ip, r5
1111:quantum/rgblight.c ****         sethsv(hue, rgblight_config.sat, rgblight_config.val, (LED_TYPE *)&led[i + effect_start_pos
 3931              		.loc 1 1111 13 discriminator 3 view .LVU971
 3932 0028 019D     		ldr	r5, [sp, #4]
 3933              	.LVL250:
1111:quantum/rgblight.c ****         sethsv(hue, rgblight_config.sat, rgblight_config.val, (LED_TYPE *)&led[i + effect_start_pos
 3934              		.loc 1 1111 56 discriminator 3 view .LVU972
 3935 002a 6044     		add	r0, r0, ip
1111:quantum/rgblight.c ****         sethsv(hue, rgblight_config.sat, rgblight_config.val, (LED_TYPE *)&led[i + effect_start_pos
 3936              		.loc 1 1111 13 discriminator 3 view .LVU973
 3937 002c 2840     		ands	r0, r5
 3938              	.LBB191:
 3939              	.LBB188:
 135:quantum/rgblight.c **** 
 3940              		.loc 1 135 70 discriminator 3 view .LVU974
 3941 002e 5525     		movs	r5, #85
 3942              	.LBE188:
 3943              	.LBE191:
1112:quantum/rgblight.c ****     }
 3944              		.loc 1 1112 82 discriminator 3 view .LVU975
 3945 0030 084B     		ldr	r3, .L275+4
1112:quantum/rgblight.c ****     }
 3946              		.loc 1 1112 9 discriminator 3 view .LVU976
 3947 0032 094A     		ldr	r2, .L275+8
1112:quantum/rgblight.c ****     }
 3948              		.loc 1 1112 82 discriminator 3 view .LVU977
 3949 0034 1B78     		ldrb	r3, [r3]
1112:quantum/rgblight.c ****     }
 3950              		.loc 1 1112 9 discriminator 3 view .LVU978
 3951 0036 0949     		ldr	r1, .L275+12
1112:quantum/rgblight.c ****     }
 3952              		.loc 1 1112 82 discriminator 3 view .LVU979
 3953 0038 1B19     		adds	r3, r3, r4
1112:quantum/rgblight.c ****     }
 3954              		.loc 1 1112 9 discriminator 3 view .LVU980
 3955 003a 7B43     		muls	r3, r7
 3956              	.LBB192:
 3957              	.LBB189:
 135:quantum/rgblight.c **** 
 3958              		.loc 1 135 70 discriminator 3 view .LVU981
 3959 003c 6843     		muls	r0, r5
 3960              	.LBE189:
 3961              	.LBE192:
1112:quantum/rgblight.c ****     }
 3962              		.loc 1 1112 9 discriminator 3 view .LVU982
 3963 003e D318     		adds	r3, r2, r3
1110:quantum/rgblight.c ****         hue = 0 + ((i / RGBLIGHT_EFFECT_CHRISTMAS_STEP + anim->current_offset) % 2) * 85;
 3964              		.loc 1 1110 39 discriminator 3 view .LVU983
 3965 0040 0134     		adds	r4, r4, #1
 3966              	.LVL251:
 3967              	.LBB193:
 3968              	.LBB190:
 135:quantum/rgblight.c **** 
 3969              		.loc 1 135 70 discriminator 3 view .LVU984
 3970 0042 CA78     		ldrb	r2, [r1, #3]
 3971 0044 8978     		ldrb	r1, [r1, #2]
 3972 0046 FFF7FEFF 		bl	sethsv_raw
 3973              	.LVL252:
 135:quantum/rgblight.c **** 
 3974              		.loc 1 135 70 discriminator 3 view .LVU985
 3975              	.LBE190:
 3976              	.LBE193:
1110:quantum/rgblight.c ****         hue = 0 + ((i / RGBLIGHT_EFFECT_CHRISTMAS_STEP + anim->current_offset) % 2) * 85;
 3977              		.loc 1 1110 39 discriminator 3 view .LVU986
 3978 004a E4B2     		uxtb	r4, r4
 3979              	.LVL253:
1110:quantum/rgblight.c ****         hue = 0 + ((i / RGBLIGHT_EFFECT_CHRISTMAS_STEP + anim->current_offset) % 2) * 85;
 3980              		.loc 1 1110 39 discriminator 3 view .LVU987
 3981 004c E2E7     		b	.L273
 3982              	.L276:
 3983 004e C046     		.align	2
 3984              	.L275:
 3985 0050 00000000 		.word	.LANCHOR4
 3986 0054 00000000 		.word	.LANCHOR2
 3987 0058 00000000 		.word	.LANCHOR6
 3988 005c 00000000 		.word	.LANCHOR5
 3989              		.cfi_endproc
 3990              	.LFE345:
 3992              		.section	.text.rgblight_effect_alternating,"ax",%progbits
 3993              		.align	1
 3994              		.global	rgblight_effect_alternating
 3995              		.syntax unified
 3996              		.code	16
 3997              		.thumb_func
 3998              		.fpu softvfp
 4000              	rgblight_effect_alternating:
 4001              	.LVL254:
 4002              	.LFB347:
1147:quantum/rgblight.c **** #endif
1148:quantum/rgblight.c **** 
1149:quantum/rgblight.c **** #ifdef RGBLIGHT_EFFECT_ALTERNATING
1150:quantum/rgblight.c **** void rgblight_effect_alternating(animation_status_t *anim) {
 4003              		.loc 1 1150 60 is_stmt 1 view -0
 4004              		.cfi_startproc
 4005              		@ args = 0, pretend = 0, frame = 0
 4006              		@ frame_needed = 0, uses_anonymous_args = 0
1151:quantum/rgblight.c ****     for (int i = 0; i < effect_num_leds; i++) {
 4007              		.loc 1 1151 5 view .LVU989
 4008              	.LBB194:
 4009              		.loc 1 1151 10 view .LVU990
 4010              		.loc 1 1151 10 is_stmt 0 view .LVU991
 4011              	.LBE194:
1150:quantum/rgblight.c ****     for (int i = 0; i < effect_num_leds; i++) {
 4012              		.loc 1 1150 60 view .LVU992
 4013 0000 F8B5     		push	{r3, r4, r5, r6, r7, lr}
 4014              		.cfi_def_cfa_offset 24
 4015              		.cfi_offset 3, -24
 4016              		.cfi_offset 4, -20
 4017              		.cfi_offset 5, -16
 4018              		.cfi_offset 6, -12
 4019              		.cfi_offset 7, -8
 4020              		.cfi_offset 14, -4
1150:quantum/rgblight.c ****     for (int i = 0; i < effect_num_leds; i++) {
 4021              		.loc 1 1150 60 view .LVU993
 4022 0002 0400     		movs	r4, r0
 4023              	.LBB204:
 4024              		.loc 1 1151 14 view .LVU994
 4025 0004 0025     		movs	r5, #0
 4026              	.LBB195:
1152:quantum/rgblight.c ****         LED_TYPE *ledp = led + i + effect_start_pos;
 4027              		.loc 1 1152 34 view .LVU995
 4028 0006 0326     		movs	r6, #3
 4029              	.LVL255:
 4030              	.L278:
 4031              		.loc 1 1152 34 view .LVU996
 4032              	.LBE195:
1151:quantum/rgblight.c ****     for (int i = 0; i < effect_num_leds; i++) {
 4033              		.loc 1 1151 23 discriminator 1 view .LVU997
 4034 0008 134B     		ldr	r3, .L288
 4035 000a 1A78     		ldrb	r2, [r3]
1151:quantum/rgblight.c ****     for (int i = 0; i < effect_num_leds; i++) {
 4036              		.loc 1 1151 5 discriminator 1 view .LVU998
 4037 000c AA42     		cmp	r2, r5
 4038 000e 07DC     		bgt	.L282
 4039              	.LBE204:
1153:quantum/rgblight.c ****         if (i < effect_num_leds / 2 && anim->pos) {
1154:quantum/rgblight.c ****             sethsv(rgblight_config.hue, rgblight_config.sat, rgblight_config.val, ledp);
1155:quantum/rgblight.c ****         } else if (i >= effect_num_leds / 2 && !anim->pos) {
1156:quantum/rgblight.c ****             sethsv(rgblight_config.hue, rgblight_config.sat, rgblight_config.val, ledp);
1157:quantum/rgblight.c ****         } else {
1158:quantum/rgblight.c ****             sethsv(rgblight_config.hue, rgblight_config.sat, 0, ledp);
1159:quantum/rgblight.c ****         }
1160:quantum/rgblight.c ****     }
1161:quantum/rgblight.c ****     rgblight_set();
 4040              		.loc 1 1161 5 is_stmt 1 view .LVU999
 4041 0010 FFF7FEFF 		bl	rgblight_set
 4042              	.LVL256:
1162:quantum/rgblight.c ****     anim->pos = (anim->pos + 1) % 2;
 4043              		.loc 1 1162 5 view .LVU1000
 4044              		.loc 1 1162 33 is_stmt 0 view .LVU1001
 4045 0014 0122     		movs	r2, #1
 4046              		.loc 1 1162 22 view .LVU1002
 4047 0016 2379     		ldrb	r3, [r4, #4]
1163:quantum/rgblight.c **** }
 4048              		.loc 1 1163 1 view .LVU1003
 4049              		@ sp needed
1162:quantum/rgblight.c ****     anim->pos = (anim->pos + 1) % 2;
 4050              		.loc 1 1162 28 view .LVU1004
 4051 0018 0133     		adds	r3, r3, #1
1162:quantum/rgblight.c ****     anim->pos = (anim->pos + 1) % 2;
 4052              		.loc 1 1162 33 view .LVU1005
 4053 001a 1340     		ands	r3, r2
1162:quantum/rgblight.c ****     anim->pos = (anim->pos + 1) % 2;
 4054              		.loc 1 1162 15 view .LVU1006
 4055 001c 2371     		strb	r3, [r4, #4]
 4056              	.LVL257:
 4057              	.LVL258:
 4058              		.loc 1 1163 1 view .LVU1007
 4059 001e F8BD     		pop	{r3, r4, r5, r6, r7, pc}
 4060              	.LVL259:
 4061              	.L282:
 4062              	.LBB205:
 4063              	.LBB202:
1152:quantum/rgblight.c ****         if (i < effect_num_leds / 2 && anim->pos) {
 4064              		.loc 1 1152 9 is_stmt 1 view .LVU1008
1152:quantum/rgblight.c ****         if (i < effect_num_leds / 2 && anim->pos) {
 4065              		.loc 1 1152 34 is_stmt 0 view .LVU1009
 4066 0020 0E4B     		ldr	r3, .L288+4
1152:quantum/rgblight.c ****         if (i < effect_num_leds / 2 && anim->pos) {
 4067              		.loc 1 1152 19 view .LVU1010
 4068 0022 0F49     		ldr	r1, .L288+8
1152:quantum/rgblight.c ****         if (i < effect_num_leds / 2 && anim->pos) {
 4069              		.loc 1 1152 34 view .LVU1011
 4070 0024 1B78     		ldrb	r3, [r3]
 4071 0026 0F4F     		ldr	r7, .L288+12
 4072 0028 5B19     		adds	r3, r3, r5
 4073 002a 7343     		muls	r3, r6
1152:quantum/rgblight.c ****         if (i < effect_num_leds / 2 && anim->pos) {
 4074              		.loc 1 1152 19 view .LVU1012
 4075 002c CB18     		adds	r3, r1, r3
 4076              	.LVL260:
1153:quantum/rgblight.c ****             sethsv(rgblight_config.hue, rgblight_config.sat, rgblight_config.val, ledp);
 4077              		.loc 1 1153 9 is_stmt 1 view .LVU1013
 4078 002e 2179     		ldrb	r1, [r4, #4]
 4079 0030 7878     		ldrb	r0, [r7, #1]
 4080 0032 8C46     		mov	ip, r1
1153:quantum/rgblight.c ****             sethsv(rgblight_config.hue, rgblight_config.sat, rgblight_config.val, ledp);
 4081              		.loc 1 1153 33 is_stmt 0 view .LVU1014
 4082 0034 5208     		lsrs	r2, r2, #1
 4083 0036 B978     		ldrb	r1, [r7, #2]
1153:quantum/rgblight.c ****             sethsv(rgblight_config.hue, rgblight_config.sat, rgblight_config.val, ledp);
 4084              		.loc 1 1153 12 view .LVU1015
 4085 0038 AA42     		cmp	r2, r5
 4086 003a 07DD     		ble	.L279
1153:quantum/rgblight.c ****             sethsv(rgblight_config.hue, rgblight_config.sat, rgblight_config.val, ledp);
 4087              		.loc 1 1153 37 discriminator 1 view .LVU1016
 4088 003c 6246     		mov	r2, ip
 4089 003e 002A     		cmp	r2, #0
 4090 0040 07D0     		beq	.L280
 4091              	.L287:
1156:quantum/rgblight.c ****         } else {
 4092              		.loc 1 1156 13 is_stmt 1 view .LVU1017
 4093              	.LVL261:
 4094              	.LBB196:
 4095              	.LBI196:
 135:quantum/rgblight.c **** 
 4096              		.loc 1 135 6 view .LVU1018
 4097              	.LBB197:
 135:quantum/rgblight.c **** 
 4098              		.loc 1 135 70 view .LVU1019
 4099 0042 FA78     		ldrb	r2, [r7, #3]
 4100              	.LVL262:
 4101              	.L286:
 135:quantum/rgblight.c **** 
 4102              		.loc 1 135 70 is_stmt 0 view .LVU1020
 4103              	.LBE197:
 4104              	.LBE196:
 4105              	.LBB198:
 4106              	.LBB199:
 4107 0044 FFF7FEFF 		bl	sethsv_raw
 4108              	.LVL263:
 135:quantum/rgblight.c **** 
 4109              		.loc 1 135 70 view .LVU1021
 4110              	.LBE199:
 4111              	.LBE198:
 4112              	.LBE202:
1151:quantum/rgblight.c ****         LED_TYPE *ledp = led + i + effect_start_pos;
 4113              		.loc 1 1151 43 view .LVU1022
 4114 0048 0135     		adds	r5, r5, #1
 4115              	.LVL264:
1151:quantum/rgblight.c ****         LED_TYPE *ledp = led + i + effect_start_pos;
 4116              		.loc 1 1151 43 view .LVU1023
 4117 004a DDE7     		b	.L278
 4118              	.LVL265:
 4119              	.L279:
 4120              	.LBB203:
1155:quantum/rgblight.c ****             sethsv(rgblight_config.hue, rgblight_config.sat, rgblight_config.val, ledp);
 4121              		.loc 1 1155 16 is_stmt 1 discriminator 1 view .LVU1024
1155:quantum/rgblight.c ****             sethsv(rgblight_config.hue, rgblight_config.sat, rgblight_config.val, ledp);
 4122              		.loc 1 1155 45 is_stmt 0 discriminator 1 view .LVU1025
 4123 004c 6246     		mov	r2, ip
 4124 004e 002A     		cmp	r2, #0
 4125 0050 F7D0     		beq	.L287
 4126              	.L280:
1158:quantum/rgblight.c ****         }
 4127              		.loc 1 1158 13 is_stmt 1 view .LVU1026
 4128              	.LVL266:
 4129              	.LBB201:
 4130              	.LBI198:
 135:quantum/rgblight.c **** 
 4131              		.loc 1 135 6 view .LVU1027
 4132              	.LBB200:
 135:quantum/rgblight.c **** 
 4133              		.loc 1 135 70 view .LVU1028
 4134 0052 0022     		movs	r2, #0
 4135 0054 F6E7     		b	.L286
 4136              	.L289:
 4137 0056 C046     		.align	2
 4138              	.L288:
 4139 0058 00000000 		.word	.LANCHOR4
 4140 005c 00000000 		.word	.LANCHOR2
 4141 0060 00000000 		.word	.LANCHOR6
 4142 0064 00000000 		.word	.LANCHOR5
 4143              	.LBE200:
 4144              	.LBE201:
 4145              	.LBE203:
 4146              	.LBE205:
 4147              		.cfi_endproc
 4148              	.LFE347:
 4150              		.section	.text.rgblight_timer_init,"ax",%progbits
 4151              		.align	1
 4152              		.global	rgblight_timer_init
 4153              		.syntax unified
 4154              		.code	16
 4155              		.thumb_func
 4156              		.fpu softvfp
 4158              	rgblight_timer_init:
 4159              	.LFB333:
 760:quantum/rgblight.c ****     // OLD!!!! Animation timer -- AVR Timer3
 4160              		.loc 1 760 32 view -0
 4161              		.cfi_startproc
 4162              		@ args = 0, pretend = 0, frame = 0
 4163              		@ frame_needed = 0, uses_anonymous_args = 0
 4164              		@ link register save eliminated.
 777:quantum/rgblight.c ****     RGBLIGHT_SPLIT_SET_CHANGE_TIMER_ENABLE;
 4165              		.loc 1 777 5 view .LVU1030
 777:quantum/rgblight.c ****     RGBLIGHT_SPLIT_SET_CHANGE_TIMER_ENABLE;
 4166              		.loc 1 777 35 is_stmt 0 view .LVU1031
 4167 0000 0022     		movs	r2, #0
 4168 0002 014B     		ldr	r3, .L291
 779:quantum/rgblight.c **** void rgblight_timer_enable(void) {
 4169              		.loc 1 779 1 view .LVU1032
 4170              		@ sp needed
 777:quantum/rgblight.c ****     RGBLIGHT_SPLIT_SET_CHANGE_TIMER_ENABLE;
 4171              		.loc 1 777 35 view .LVU1033
 4172 0004 5A70     		strb	r2, [r3, #1]
 778:quantum/rgblight.c **** }
 4173              		.loc 1 778 43 is_stmt 1 view .LVU1034
 779:quantum/rgblight.c **** void rgblight_timer_enable(void) {
 4174              		.loc 1 779 1 is_stmt 0 view .LVU1035
 4175 0006 7047     		bx	lr
 4176              	.L292:
 4177              		.align	2
 4178              	.L291:
 4179 0008 00000000 		.word	.LANCHOR9
 4180              		.cfi_endproc
 4181              	.LFE333:
 4183              		.section	.text.rgblight_timer_enable,"ax",%progbits
 4184              		.align	1
 4185              		.global	rgblight_timer_enable
 4186              		.syntax unified
 4187              		.code	16
 4188              		.thumb_func
 4189              		.fpu softvfp
 4191              	rgblight_timer_enable:
 4192              	.LFB334:
 780:quantum/rgblight.c ****     if (!is_static_effect(rgblight_config.mode)) {
 4193              		.loc 1 780 34 is_stmt 1 view -0
 4194              		.cfi_startproc
 4195              		@ args = 0, pretend = 0, frame = 0
 4196              		@ frame_needed = 0, uses_anonymous_args = 0
 781:quantum/rgblight.c ****         rgblight_status.timer_enabled = true;
 4197              		.loc 1 781 5 view .LVU1037
 4198              	.LVL267:
 4199              	.LBB208:
 4200              	.LBI208:
  83:quantum/rgblight.c **** 
 4201              		.loc 1 83 19 view .LVU1038
 4202              	.LBB209:
  83:quantum/rgblight.c **** 
 4203              		.loc 1 83 52 view .LVU1039
 4204              	.LBE209:
 4205              	.LBE208:
 781:quantum/rgblight.c ****         rgblight_status.timer_enabled = true;
 4206              		.loc 1 781 42 is_stmt 0 view .LVU1040
 4207 0000 0C4B     		ldr	r3, .L299
 780:quantum/rgblight.c ****     if (!is_static_effect(rgblight_config.mode)) {
 4208              		.loc 1 780 34 view .LVU1041
 4209 0002 10B5     		push	{r4, lr}
 4210              		.cfi_def_cfa_offset 8
 4211              		.cfi_offset 4, -8
 4212              		.cfi_offset 14, -4
 781:quantum/rgblight.c ****         rgblight_status.timer_enabled = true;
 4213              		.loc 1 781 42 view .LVU1042
 4214 0004 1978     		ldrb	r1, [r3]
 4215              	.LBB211:
 4216              	.LBB210:
  83:quantum/rgblight.c **** 
 4217              		.loc 1 83 59 view .LVU1043
 4218 0006 0B22     		movs	r2, #11
 4219 0008 4908     		lsrs	r1, r1, #1
 4220 000a 0B48     		ldr	r0, .L299+4
 4221 000c FFF7FEFF 		bl	memchr
 4222              	.LVL268:
  83:quantum/rgblight.c **** 
 4223              		.loc 1 83 59 view .LVU1044
 4224              	.LBE210:
 4225              	.LBE211:
 781:quantum/rgblight.c ****         rgblight_status.timer_enabled = true;
 4226              		.loc 1 781 8 view .LVU1045
 4227 0010 0028     		cmp	r0, #0
 4228 0012 02D1     		bne	.L294
 782:quantum/rgblight.c ****     }
 4229              		.loc 1 782 9 is_stmt 1 view .LVU1046
 782:quantum/rgblight.c ****     }
 4230              		.loc 1 782 39 is_stmt 0 view .LVU1047
 4231 0014 0122     		movs	r2, #1
 4232 0016 094B     		ldr	r3, .L299+8
 4233 0018 5A70     		strb	r2, [r3, #1]
 4234              	.L294:
 784:quantum/rgblight.c ****     RGBLIGHT_SPLIT_SET_CHANGE_TIMER_ENABLE;
 4235              		.loc 1 784 5 is_stmt 1 view .LVU1048
 784:quantum/rgblight.c ****     RGBLIGHT_SPLIT_SET_CHANGE_TIMER_ENABLE;
 4236              		.loc 1 784 35 is_stmt 0 view .LVU1049
 4237 001a FFF7FEFF 		bl	timer_read
 4238              	.LVL269:
 784:quantum/rgblight.c ****     RGBLIGHT_SPLIT_SET_CHANGE_TIMER_ENABLE;
 4239              		.loc 1 784 33 view .LVU1050
 4240 001e 084B     		ldr	r3, .L299+12
 4241 0020 1880     		strh	r0, [r3]
 785:quantum/rgblight.c ****     dprintf("rgblight timer enabled.\n");
 4242              		.loc 1 785 43 is_stmt 1 view .LVU1051
 786:quantum/rgblight.c **** }
 4243              		.loc 1 786 5 view .LVU1052
 786:quantum/rgblight.c **** }
 4244              		.loc 1 786 5 view .LVU1053
 4245 0022 084B     		ldr	r3, .L299+16
 4246 0024 1B78     		ldrb	r3, [r3]
 4247 0026 DB07     		lsls	r3, r3, #31
 4248 0028 02D5     		bpl	.L293
 786:quantum/rgblight.c **** }
 4249              		.loc 1 786 5 discriminator 1 view .LVU1054
 4250 002a 0748     		ldr	r0, .L299+20
 4251 002c FFF7FEFF 		bl	tfp_printf
 4252              	.LVL270:
 4253              	.L293:
 787:quantum/rgblight.c **** void rgblight_timer_disable(void) {
 4254              		.loc 1 787 1 is_stmt 0 view .LVU1055
 4255              		@ sp needed
 4256 0030 10BD     		pop	{r4, pc}
 4257              	.L300:
 4258 0032 C046     		.align	2
 4259              	.L299:
 4260 0034 00000000 		.word	.LANCHOR5
 4261 0038 00000000 		.word	.LANCHOR14
 4262 003c 00000000 		.word	.LANCHOR9
 4263 0040 00000000 		.word	.LANCHOR15
 4264 0044 00000000 		.word	debug_config
 4265 0048 00000000 		.word	.LC110
 4266              		.cfi_endproc
 4267              	.LFE334:
 4269              		.section	.text.rgblight_timer_disable,"ax",%progbits
 4270              		.align	1
 4271              		.global	rgblight_timer_disable
 4272              		.syntax unified
 4273              		.code	16
 4274              		.thumb_func
 4275              		.fpu softvfp
 4277              	rgblight_timer_disable:
 4278              	.LFB335:
 788:quantum/rgblight.c ****     rgblight_status.timer_enabled = false;
 4279              		.loc 1 788 35 is_stmt 1 view -0
 4280              		.cfi_startproc
 4281              		@ args = 0, pretend = 0, frame = 0
 4282              		@ frame_needed = 0, uses_anonymous_args = 0
 789:quantum/rgblight.c ****     RGBLIGHT_SPLIT_SET_CHANGE_TIMER_ENABLE;
 4283              		.loc 1 789 5 view .LVU1057
 789:quantum/rgblight.c ****     RGBLIGHT_SPLIT_SET_CHANGE_TIMER_ENABLE;
 4284              		.loc 1 789 35 is_stmt 0 view .LVU1058
 4285 0000 0022     		movs	r2, #0
 4286 0002 054B     		ldr	r3, .L306
 788:quantum/rgblight.c ****     rgblight_status.timer_enabled = false;
 4287              		.loc 1 788 35 view .LVU1059
 4288 0004 10B5     		push	{r4, lr}
 4289              		.cfi_def_cfa_offset 8
 4290              		.cfi_offset 4, -8
 4291              		.cfi_offset 14, -4
 789:quantum/rgblight.c ****     RGBLIGHT_SPLIT_SET_CHANGE_TIMER_ENABLE;
 4292              		.loc 1 789 35 view .LVU1060
 4293 0006 5A70     		strb	r2, [r3, #1]
 790:quantum/rgblight.c ****     dprintf("rgblight timer disable.\n");
 4294              		.loc 1 790 43 is_stmt 1 view .LVU1061
 791:quantum/rgblight.c **** }
 4295              		.loc 1 791 5 view .LVU1062
 791:quantum/rgblight.c **** }
 4296              		.loc 1 791 5 view .LVU1063
 4297 0008 044B     		ldr	r3, .L306+4
 4298 000a 1B78     		ldrb	r3, [r3]
 4299 000c DB07     		lsls	r3, r3, #31
 4300 000e 02D5     		bpl	.L301
 791:quantum/rgblight.c **** }
 4301              		.loc 1 791 5 discriminator 1 view .LVU1064
 4302 0010 0348     		ldr	r0, .L306+8
 4303 0012 FFF7FEFF 		bl	tfp_printf
 4304              	.LVL271:
 4305              	.L301:
 792:quantum/rgblight.c **** void rgblight_timer_toggle(void) {
 4306              		.loc 1 792 1 is_stmt 0 view .LVU1065
 4307              		@ sp needed
 4308 0016 10BD     		pop	{r4, pc}
 4309              	.L307:
 4310              		.align	2
 4311              	.L306:
 4312 0018 00000000 		.word	.LANCHOR9
 4313 001c 00000000 		.word	debug_config
 4314 0020 00000000 		.word	.LC114
 4315              		.cfi_endproc
 4316              	.LFE335:
 4318              		.section	.text.rgblight_mode_eeprom_helper,"ax",%progbits
 4319              		.align	1
 4320              		.global	rgblight_mode_eeprom_helper
 4321              		.syntax unified
 4322              		.code	16
 4323              		.thumb_func
 4324              		.fpu softvfp
 4326              	rgblight_mode_eeprom_helper:
 4327              	.LVL272:
 4328              	.LFB282:
 290:quantum/rgblight.c ****     if (!rgblight_config.enable) {
 4329              		.loc 1 290 70 is_stmt 1 view -0
 4330              		.cfi_startproc
 4331              		@ args = 0, pretend = 0, frame = 0
 4332              		@ frame_needed = 0, uses_anonymous_args = 0
 291:quantum/rgblight.c ****         return;
 4333              		.loc 1 291 5 view .LVU1067
 290:quantum/rgblight.c ****     if (!rgblight_config.enable) {
 4334              		.loc 1 290 70 is_stmt 0 view .LVU1068
 4335 0000 70B5     		push	{r4, r5, r6, lr}
 4336              		.cfi_def_cfa_offset 16
 4337              		.cfi_offset 4, -16
 4338              		.cfi_offset 5, -12
 4339              		.cfi_offset 6, -8
 4340              		.cfi_offset 14, -4
 291:quantum/rgblight.c ****         return;
 4341              		.loc 1 291 25 view .LVU1069
 4342 0002 1F4C     		ldr	r4, .L328
 4343 0004 2378     		ldrb	r3, [r4]
 291:quantum/rgblight.c ****         return;
 4344              		.loc 1 291 8 view .LVU1070
 4345 0006 DA07     		lsls	r2, r3, #31
 4346 0008 26D5     		bpl	.L308
 4347              	.LVL273:
 4348              	.LBB216:
 4349              	.LBI216:
 290:quantum/rgblight.c ****     if (!rgblight_config.enable) {
 4350              		.loc 1 290 6 is_stmt 1 view .LVU1071
 4351              	.LBB217:
 294:quantum/rgblight.c ****         rgblight_config.mode = RGBLIGHT_MODE_STATIC_LIGHT;
 4352              		.loc 1 294 5 view .LVU1072
 4353 000a 0122     		movs	r2, #1
 294:quantum/rgblight.c ****         rgblight_config.mode = RGBLIGHT_MODE_STATIC_LIGHT;
 4354              		.loc 1 294 8 is_stmt 0 view .LVU1073
 4355 000c 0028     		cmp	r0, #0
 4356 000e 24D1     		bne	.L310
 295:quantum/rgblight.c ****     } else if (mode > RGBLIGHT_MODES) {
 4357              		.loc 1 295 9 is_stmt 1 view .LVU1074
 295:quantum/rgblight.c ****     } else if (mode > RGBLIGHT_MODES) {
 4358              		.loc 1 295 30 is_stmt 0 view .LVU1075
 4359 0010 1340     		ands	r3, r2
 4360 0012 9218     		adds	r2, r2, r2
 4361              	.L327:
 297:quantum/rgblight.c ****     } else {
 4362              		.loc 1 297 30 view .LVU1076
 4363 0014 1343     		orrs	r3, r2
 4364              	.LVL274:
 4365              	.L325:
 299:quantum/rgblight.c ****     }
 4366              		.loc 1 299 30 view .LVU1077
 4367 0016 2370     		strb	r3, [r4]
 301:quantum/rgblight.c ****     if (write_to_eeprom) {
 4368              		.loc 1 301 35 is_stmt 1 view .LVU1078
 302:quantum/rgblight.c ****         eeconfig_update_rgblight(rgblight_config.raw);
 4369              		.loc 1 302 5 view .LVU1079
 4370 0018 1A4D     		ldr	r5, .L328+4
 302:quantum/rgblight.c ****         eeconfig_update_rgblight(rgblight_config.raw);
 4371              		.loc 1 302 8 is_stmt 0 view .LVU1080
 4372 001a 0029     		cmp	r1, #0
 4373 001c 26D0     		beq	.L313
 303:quantum/rgblight.c ****         dprintf("rgblight mode [EEPROM]: %u\n", rgblight_config.mode);
 4374              		.loc 1 303 9 is_stmt 1 view .LVU1081
 4375 001e 2068     		ldr	r0, [r4]
 4376 0020 FFF7FEFF 		bl	eeconfig_update_rgblight
 4377              	.LVL275:
 304:quantum/rgblight.c ****     } else {
 4378              		.loc 1 304 9 view .LVU1082
 304:quantum/rgblight.c ****     } else {
 4379              		.loc 1 304 9 view .LVU1083
 4380 0024 2B78     		ldrb	r3, [r5]
 4381 0026 DB07     		lsls	r3, r3, #31
 4382 0028 04D5     		bpl	.L315
 304:quantum/rgblight.c ****     } else {
 4383              		.loc 1 304 9 view .LVU1084
 4384 002a 2178     		ldrb	r1, [r4]
 4385 002c 1648     		ldr	r0, .L328+8
 4386 002e 4908     		lsrs	r1, r1, #1
 4387              	.L326:
 306:quantum/rgblight.c ****     }
 4388              		.loc 1 306 9 is_stmt 0 view .LVU1085
 4389 0030 FFF7FEFF 		bl	tfp_printf
 4390              	.LVL276:
 4391              	.L315:
 308:quantum/rgblight.c ****         rgblight_timer_disable();
 4392              		.loc 1 308 5 is_stmt 1 view .LVU1086
 4393              	.LBB218:
 4394              	.LBI218:
  83:quantum/rgblight.c **** 
 4395              		.loc 1 83 19 view .LVU1087
 4396              	.LBB219:
  83:quantum/rgblight.c **** 
 4397              		.loc 1 83 52 view .LVU1088
 4398              	.LBE219:
 4399              	.LBE218:
 308:quantum/rgblight.c ****         rgblight_timer_disable();
 4400              		.loc 1 308 41 is_stmt 0 view .LVU1089
 4401 0034 2178     		ldrb	r1, [r4]
 4402              	.LBB221:
 4403              	.LBB220:
  83:quantum/rgblight.c **** 
 4404              		.loc 1 83 59 view .LVU1090
 4405 0036 0B22     		movs	r2, #11
 4406 0038 4908     		lsrs	r1, r1, #1
 4407 003a 1448     		ldr	r0, .L328+12
 4408 003c FFF7FEFF 		bl	memchr
 4409              	.LVL277:
  83:quantum/rgblight.c **** 
 4410              		.loc 1 83 59 view .LVU1091
 4411              	.LBE220:
 4412              	.LBE221:
 308:quantum/rgblight.c ****         rgblight_timer_disable();
 4413              		.loc 1 308 8 view .LVU1092
 4414 0040 0028     		cmp	r0, #0
 4415 0042 1AD0     		beq	.L317
 309:quantum/rgblight.c ****     } else {
 4416              		.loc 1 309 9 is_stmt 1 view .LVU1093
 4417 0044 FFF7FEFF 		bl	rgblight_timer_disable
 4418              	.LVL278:
 4419              	.L318:
 314:quantum/rgblight.c **** #endif
 4420              		.loc 1 314 5 view .LVU1094
 314:quantum/rgblight.c **** #endif
 4421              		.loc 1 314 30 is_stmt 0 view .LVU1095
 4422 0048 0122     		movs	r2, #1
 4423 004a 114B     		ldr	r3, .L328+16
 4424 004c DA70     		strb	r2, [r3, #3]
 316:quantum/rgblight.c **** }
 4425              		.loc 1 316 5 is_stmt 1 view .LVU1096
 4426 004e E278     		ldrb	r2, [r4, #3]
 4427 0050 A178     		ldrb	r1, [r4, #2]
 4428 0052 6078     		ldrb	r0, [r4, #1]
 4429 0054 FFF7FEFF 		bl	rgblight_sethsv_noeeprom
 4430              	.LVL279:
 4431              	.L308:
 316:quantum/rgblight.c **** }
 4432              		.loc 1 316 5 is_stmt 0 view .LVU1097
 4433              	.LBE217:
 4434              	.LBE216:
 317:quantum/rgblight.c **** 
 4435              		.loc 1 317 1 view .LVU1098
 4436              		@ sp needed
 4437 0058 70BD     		pop	{r4, r5, r6, pc}
 4438              	.LVL280:
 4439              	.L310:
 4440              	.LBB223:
 4441              	.LBB222:
 296:quantum/rgblight.c ****         rgblight_config.mode = RGBLIGHT_MODES;
 4442              		.loc 1 296 12 is_stmt 1 view .LVU1099
 296:quantum/rgblight.c ****         rgblight_config.mode = RGBLIGHT_MODES;
 4443              		.loc 1 296 15 is_stmt 0 view .LVU1100
 4444 005a 2428     		cmp	r0, #36
 4445 005c 02D9     		bls	.L312
 297:quantum/rgblight.c ****     } else {
 4446              		.loc 1 297 9 is_stmt 1 view .LVU1101
 297:quantum/rgblight.c ****     } else {
 4447              		.loc 1 297 30 is_stmt 0 view .LVU1102
 4448 005e 1340     		ands	r3, r2
 4449 0060 4822     		movs	r2, #72
 4450 0062 D7E7     		b	.L327
 4451              	.L312:
 299:quantum/rgblight.c ****     }
 4452              		.loc 1 299 9 is_stmt 1 view .LVU1103
 299:quantum/rgblight.c ****     }
 4453              		.loc 1 299 30 is_stmt 0 view .LVU1104
 4454 0064 4000     		lsls	r0, r0, #1
 4455              	.LVL281:
 299:quantum/rgblight.c ****     }
 4456              		.loc 1 299 30 view .LVU1105
 4457 0066 1340     		ands	r3, r2
 4458 0068 0343     		orrs	r3, r0
 4459 006a D4E7     		b	.L325
 4460              	.L313:
 306:quantum/rgblight.c ****     }
 4461              		.loc 1 306 9 is_stmt 1 view .LVU1106
 306:quantum/rgblight.c ****     }
 4462              		.loc 1 306 9 view .LVU1107
 4463 006c 2B78     		ldrb	r3, [r5]
 4464 006e DB07     		lsls	r3, r3, #31
 4465 0070 E0D5     		bpl	.L315
 306:quantum/rgblight.c ****     }
 4466              		.loc 1 306 9 view .LVU1108
 4467 0072 2178     		ldrb	r1, [r4]
 4468              	.LVL282:
 306:quantum/rgblight.c ****     }
 4469              		.loc 1 306 9 is_stmt 0 view .LVU1109
 4470 0074 0748     		ldr	r0, .L328+20
 4471 0076 4908     		lsrs	r1, r1, #1
 4472 0078 DAE7     		b	.L326
 4473              	.L317:
 311:quantum/rgblight.c ****     }
 4474              		.loc 1 311 9 is_stmt 1 view .LVU1110
 4475 007a FFF7FEFF 		bl	rgblight_timer_enable
 4476              	.LVL283:
 4477 007e E3E7     		b	.L318
 4478              	.L329:
 4479              		.align	2
 4480              	.L328:
 4481 0080 00000000 		.word	.LANCHOR5
 4482 0084 00000000 		.word	debug_config
 4483 0088 00000000 		.word	.LC118
 4484 008c 00000000 		.word	.LANCHOR14
 4485 0090 00000000 		.word	.LANCHOR15
 4486 0094 1C000000 		.word	.LC120
 4487              	.LBE222:
 4488              	.LBE223:
 4489              		.cfi_endproc
 4490              	.LFE282:
 4492              		.section	.text.rgblight_step_helper,"ax",%progbits
 4493              		.align	1
 4494              		.global	rgblight_step_helper
 4495              		.syntax unified
 4496              		.code	16
 4497              		.thumb_func
 4498              		.fpu softvfp
 4500              	rgblight_step_helper:
 4501              	.LVL284:
 4502              	.LFB275:
 261:quantum/rgblight.c ****     uint8_t mode = 0;
 4503              		.loc 1 261 49 view -0
 4504              		.cfi_startproc
 4505              		@ args = 0, pretend = 0, frame = 0
 4506              		@ frame_needed = 0, uses_anonymous_args = 0
 262:quantum/rgblight.c ****     mode         = rgblight_config.mode + 1;
 4507              		.loc 1 262 5 view .LVU1112
 263:quantum/rgblight.c ****     if (mode > RGBLIGHT_MODES) {
 4508              		.loc 1 263 5 view .LVU1113
 263:quantum/rgblight.c ****     if (mode > RGBLIGHT_MODES) {
 4509              		.loc 1 263 35 is_stmt 0 view .LVU1114
 4510 0000 054B     		ldr	r3, .L332
 261:quantum/rgblight.c ****     uint8_t mode = 0;
 4511              		.loc 1 261 49 view .LVU1115
 4512 0002 0100     		movs	r1, r0
 263:quantum/rgblight.c ****     if (mode > RGBLIGHT_MODES) {
 4513              		.loc 1 263 35 view .LVU1116
 4514 0004 1B78     		ldrb	r3, [r3]
 261:quantum/rgblight.c ****     uint8_t mode = 0;
 4515              		.loc 1 261 49 view .LVU1117
 4516 0006 10B5     		push	{r4, lr}
 4517              		.cfi_def_cfa_offset 8
 4518              		.cfi_offset 4, -8
 4519              		.cfi_offset 14, -4
 263:quantum/rgblight.c ****     if (mode > RGBLIGHT_MODES) {
 4520              		.loc 1 263 35 view .LVU1118
 4521 0008 5B08     		lsrs	r3, r3, #1
 263:quantum/rgblight.c ****     if (mode > RGBLIGHT_MODES) {
 4522              		.loc 1 263 18 view .LVU1119
 4523 000a 581C     		adds	r0, r3, #1
 4524              	.LVL285:
 264:quantum/rgblight.c ****         mode = 1;
 4525              		.loc 1 264 5 is_stmt 1 view .LVU1120
 264:quantum/rgblight.c ****         mode = 1;
 4526              		.loc 1 264 8 is_stmt 0 view .LVU1121
 4527 000c 2428     		cmp	r0, #36
 4528 000e 00D9     		bls	.L331
 265:quantum/rgblight.c ****     }
 4529              		.loc 1 265 14 view .LVU1122
 4530 0010 0120     		movs	r0, #1
 4531              	.LVL286:
 4532              	.L331:
 267:quantum/rgblight.c **** }
 4533              		.loc 1 267 5 is_stmt 1 view .LVU1123
 4534 0012 FFF7FEFF 		bl	rgblight_mode_eeprom_helper
 4535              	.LVL287:
 268:quantum/rgblight.c **** void rgblight_step_noeeprom(void) { rgblight_step_helper(false); }
 4536              		.loc 1 268 1 is_stmt 0 view .LVU1124
 4537              		@ sp needed
 4538 0016 10BD     		pop	{r4, pc}
 4539              	.L333:
 4540              		.align	2
 4541              	.L332:
 4542 0018 00000000 		.word	.LANCHOR5
 4543              		.cfi_endproc
 4544              	.LFE275:
 4546              		.section	.text.rgblight_step_noeeprom,"ax",%progbits
 4547              		.align	1
 4548              		.global	rgblight_step_noeeprom
 4549              		.syntax unified
 4550              		.code	16
 4551              		.thumb_func
 4552              		.fpu softvfp
 4554              	rgblight_step_noeeprom:
 4555              	.LFB276:
 269:quantum/rgblight.c **** void rgblight_step(void) { rgblight_step_helper(true); }
 4556              		.loc 1 269 35 is_stmt 1 view -0
 4557              		.cfi_startproc
 4558              		@ args = 0, pretend = 0, frame = 0
 4559              		@ frame_needed = 0, uses_anonymous_args = 0
 269:quantum/rgblight.c **** void rgblight_step(void) { rgblight_step_helper(true); }
 4560              		.loc 1 269 37 view .LVU1126
 269:quantum/rgblight.c **** void rgblight_step(void) { rgblight_step_helper(true); }
 4561              		.loc 1 269 35 is_stmt 0 view .LVU1127
 4562 0000 10B5     		push	{r4, lr}
 4563              		.cfi_def_cfa_offset 8
 4564              		.cfi_offset 4, -8
 4565              		.cfi_offset 14, -4
 269:quantum/rgblight.c **** void rgblight_step(void) { rgblight_step_helper(true); }
 4566              		.loc 1 269 37 view .LVU1128
 4567 0002 0020     		movs	r0, #0
 4568 0004 FFF7FEFF 		bl	rgblight_step_helper
 4569              	.LVL288:
 269:quantum/rgblight.c **** void rgblight_step(void) { rgblight_step_helper(true); }
 4570              		.loc 1 269 1 view .LVU1129
 4571              		@ sp needed
 4572 0008 10BD     		pop	{r4, pc}
 4573              		.cfi_endproc
 4574              	.LFE276:
 4576              		.section	.text.rgblight_step,"ax",%progbits
 4577              		.align	1
 4578              		.global	rgblight_step
 4579              		.syntax unified
 4580              		.code	16
 4581              		.thumb_func
 4582              		.fpu softvfp
 4584              	rgblight_step:
 4585              	.LFB277:
 270:quantum/rgblight.c **** void rgblight_step_reverse_helper(bool write_to_eeprom) {
 4586              		.loc 1 270 26 is_stmt 1 view -0
 4587              		.cfi_startproc
 4588              		@ args = 0, pretend = 0, frame = 0
 4589              		@ frame_needed = 0, uses_anonymous_args = 0
 270:quantum/rgblight.c **** void rgblight_step_reverse_helper(bool write_to_eeprom) {
 4590              		.loc 1 270 28 view .LVU1131
 270:quantum/rgblight.c **** void rgblight_step_reverse_helper(bool write_to_eeprom) {
 4591              		.loc 1 270 26 is_stmt 0 view .LVU1132
 4592 0000 10B5     		push	{r4, lr}
 4593              		.cfi_def_cfa_offset 8
 4594              		.cfi_offset 4, -8
 4595              		.cfi_offset 14, -4
 270:quantum/rgblight.c **** void rgblight_step_reverse_helper(bool write_to_eeprom) {
 4596              		.loc 1 270 28 view .LVU1133
 4597 0002 0120     		movs	r0, #1
 4598 0004 FFF7FEFF 		bl	rgblight_step_helper
 4599              	.LVL289:
 270:quantum/rgblight.c **** void rgblight_step_reverse_helper(bool write_to_eeprom) {
 4600              		.loc 1 270 1 view .LVU1134
 4601              		@ sp needed
 4602 0008 10BD     		pop	{r4, pc}
 4603              		.cfi_endproc
 4604              	.LFE277:
 4606              		.section	.text.rgblight_step_reverse_helper,"ax",%progbits
 4607              		.align	1
 4608              		.global	rgblight_step_reverse_helper
 4609              		.syntax unified
 4610              		.code	16
 4611              		.thumb_func
 4612              		.fpu softvfp
 4614              	rgblight_step_reverse_helper:
 4615              	.LVL290:
 4616              	.LFB278:
 271:quantum/rgblight.c ****     uint8_t mode = 0;
 4617              		.loc 1 271 57 is_stmt 1 view -0
 4618              		.cfi_startproc
 4619              		@ args = 0, pretend = 0, frame = 0
 4620              		@ frame_needed = 0, uses_anonymous_args = 0
 272:quantum/rgblight.c ****     mode         = rgblight_config.mode - 1;
 4621              		.loc 1 272 5 view .LVU1136
 273:quantum/rgblight.c ****     if (mode < 1) {
 4622              		.loc 1 273 5 view .LVU1137
 273:quantum/rgblight.c ****     if (mode < 1) {
 4623              		.loc 1 273 35 is_stmt 0 view .LVU1138
 4624 0000 064B     		ldr	r3, .L338
 271:quantum/rgblight.c ****     uint8_t mode = 0;
 4625              		.loc 1 271 57 view .LVU1139
 4626 0002 0100     		movs	r1, r0
 273:quantum/rgblight.c ****     if (mode < 1) {
 4627              		.loc 1 273 35 view .LVU1140
 4628 0004 1B78     		ldrb	r3, [r3]
 271:quantum/rgblight.c ****     uint8_t mode = 0;
 4629              		.loc 1 271 57 view .LVU1141
 4630 0006 10B5     		push	{r4, lr}
 4631              		.cfi_def_cfa_offset 8
 4632              		.cfi_offset 4, -8
 4633              		.cfi_offset 14, -4
 273:quantum/rgblight.c ****     if (mode < 1) {
 4634              		.loc 1 273 35 view .LVU1142
 4635 0008 5B08     		lsrs	r3, r3, #1
 273:quantum/rgblight.c ****     if (mode < 1) {
 4636              		.loc 1 273 18 view .LVU1143
 4637 000a 013B     		subs	r3, r3, #1
 4638 000c D8B2     		uxtb	r0, r3
 4639              	.LVL291:
 274:quantum/rgblight.c ****         mode = RGBLIGHT_MODES;
 4640              		.loc 1 274 5 is_stmt 1 view .LVU1144
 274:quantum/rgblight.c ****         mode = RGBLIGHT_MODES;
 4641              		.loc 1 274 8 is_stmt 0 view .LVU1145
 4642 000e 0028     		cmp	r0, #0
 4643 0010 00D1     		bne	.L337
 275:quantum/rgblight.c ****     }
 4644              		.loc 1 275 14 view .LVU1146
 4645 0012 2430     		adds	r0, r0, #36
 4646              	.LVL292:
 4647              	.L337:
 277:quantum/rgblight.c **** }
 4648              		.loc 1 277 5 is_stmt 1 view .LVU1147
 4649 0014 FFF7FEFF 		bl	rgblight_mode_eeprom_helper
 4650              	.LVL293:
 278:quantum/rgblight.c **** void rgblight_step_reverse_noeeprom(void) { rgblight_step_reverse_helper(false); }
 4651              		.loc 1 278 1 is_stmt 0 view .LVU1148
 4652              		@ sp needed
 4653 0018 10BD     		pop	{r4, pc}
 4654              	.L339:
 4655 001a C046     		.align	2
 4656              	.L338:
 4657 001c 00000000 		.word	.LANCHOR5
 4658              		.cfi_endproc
 4659              	.LFE278:
 4661              		.section	.text.rgblight_step_reverse_noeeprom,"ax",%progbits
 4662              		.align	1
 4663              		.global	rgblight_step_reverse_noeeprom
 4664              		.syntax unified
 4665              		.code	16
 4666              		.thumb_func
 4667              		.fpu softvfp
 4669              	rgblight_step_reverse_noeeprom:
 4670              	.LFB279:
 279:quantum/rgblight.c **** void rgblight_step_reverse(void) { rgblight_step_reverse_helper(true); }
 4671              		.loc 1 279 43 is_stmt 1 view -0
 4672              		.cfi_startproc
 4673              		@ args = 0, pretend = 0, frame = 0
 4674              		@ frame_needed = 0, uses_anonymous_args = 0
 279:quantum/rgblight.c **** void rgblight_step_reverse(void) { rgblight_step_reverse_helper(true); }
 4675              		.loc 1 279 45 view .LVU1150
 279:quantum/rgblight.c **** void rgblight_step_reverse(void) { rgblight_step_reverse_helper(true); }
 4676              		.loc 1 279 43 is_stmt 0 view .LVU1151
 4677 0000 10B5     		push	{r4, lr}
 4678              		.cfi_def_cfa_offset 8
 4679              		.cfi_offset 4, -8
 4680              		.cfi_offset 14, -4
 279:quantum/rgblight.c **** void rgblight_step_reverse(void) { rgblight_step_reverse_helper(true); }
 4681              		.loc 1 279 45 view .LVU1152
 4682 0002 0020     		movs	r0, #0
 4683 0004 FFF7FEFF 		bl	rgblight_step_reverse_helper
 4684              	.LVL294:
 279:quantum/rgblight.c **** void rgblight_step_reverse(void) { rgblight_step_reverse_helper(true); }
 4685              		.loc 1 279 1 view .LVU1153
 4686              		@ sp needed
 4687 0008 10BD     		pop	{r4, pc}
 4688              		.cfi_endproc
 4689              	.LFE279:
 4691              		.section	.text.rgblight_step_reverse,"ax",%progbits
 4692              		.align	1
 4693              		.global	rgblight_step_reverse
 4694              		.syntax unified
 4695              		.code	16
 4696              		.thumb_func
 4697              		.fpu softvfp
 4699              	rgblight_step_reverse:
 4700              	.LFB280:
 280:quantum/rgblight.c **** 
 4701              		.loc 1 280 34 is_stmt 1 view -0
 4702              		.cfi_startproc
 4703              		@ args = 0, pretend = 0, frame = 0
 4704              		@ frame_needed = 0, uses_anonymous_args = 0
 280:quantum/rgblight.c **** 
 4705              		.loc 1 280 36 view .LVU1155
 280:quantum/rgblight.c **** 
 4706              		.loc 1 280 34 is_stmt 0 view .LVU1156
 4707 0000 10B5     		push	{r4, lr}
 4708              		.cfi_def_cfa_offset 8
 4709              		.cfi_offset 4, -8
 4710              		.cfi_offset 14, -4
 280:quantum/rgblight.c **** 
 4711              		.loc 1 280 36 view .LVU1157
 4712 0002 0120     		movs	r0, #1
 4713 0004 FFF7FEFF 		bl	rgblight_step_reverse_helper
 4714              	.LVL295:
 280:quantum/rgblight.c **** 
 4715              		.loc 1 280 1 view .LVU1158
 4716              		@ sp needed
 4717 0008 10BD     		pop	{r4, pc}
 4718              		.cfi_endproc
 4719              	.LFE280:
 4721              		.section	.text.rgblight_mode,"ax",%progbits
 4722              		.align	1
 4723              		.global	rgblight_mode
 4724              		.syntax unified
 4725              		.code	16
 4726              		.thumb_func
 4727              		.fpu softvfp
 4729              	rgblight_mode:
 4730              	.LVL296:
 4731              	.LFB283:
 319:quantum/rgblight.c **** 
 4732              		.loc 1 319 34 is_stmt 1 view -0
 4733              		.cfi_startproc
 4734              		@ args = 0, pretend = 0, frame = 0
 4735              		@ frame_needed = 0, uses_anonymous_args = 0
 319:quantum/rgblight.c **** 
 4736              		.loc 1 319 36 view .LVU1160
 319:quantum/rgblight.c **** 
 4737              		.loc 1 319 34 is_stmt 0 view .LVU1161
 4738 0000 10B5     		push	{r4, lr}
 4739              		.cfi_def_cfa_offset 8
 4740              		.cfi_offset 4, -8
 4741              		.cfi_offset 14, -4
 319:quantum/rgblight.c **** 
 4742              		.loc 1 319 36 view .LVU1162
 4743 0002 0121     		movs	r1, #1
 4744 0004 FFF7FEFF 		bl	rgblight_mode_eeprom_helper
 4745              	.LVL297:
 319:quantum/rgblight.c **** 
 4746              		.loc 1 319 1 view .LVU1163
 4747              		@ sp needed
 4748 0008 10BD     		pop	{r4, pc}
 4749              		.cfi_endproc
 4750              	.LFE283:
 4752              		.section	.text.rgblight_increase,"ax",%progbits
 4753              		.align	1
 4754              		.global	rgblight_increase
 4755              		.syntax unified
 4756              		.code	16
 4757              		.thumb_func
 4758              		.fpu softvfp
 4760              	rgblight_increase:
 4761              	.LFB273:
 246:quantum/rgblight.c ****     uint8_t mode = 0;
 4762              		.loc 1 246 30 is_stmt 1 view -0
 4763              		.cfi_startproc
 4764              		@ args = 0, pretend = 0, frame = 0
 4765              		@ frame_needed = 0, uses_anonymous_args = 0
 247:quantum/rgblight.c ****     if (rgblight_config.mode < RGBLIGHT_MODES) {
 4766              		.loc 1 247 5 view .LVU1165
 4767              	.LVL298:
 248:quantum/rgblight.c ****         mode = rgblight_config.mode + 1;
 4768              		.loc 1 248 5 view .LVU1166
 248:quantum/rgblight.c ****         mode = rgblight_config.mode + 1;
 4769              		.loc 1 248 24 is_stmt 0 view .LVU1167
 4770 0000 054B     		ldr	r3, .L346
 246:quantum/rgblight.c ****     uint8_t mode = 0;
 4771              		.loc 1 246 30 view .LVU1168
 4772 0002 10B5     		push	{r4, lr}
 4773              		.cfi_def_cfa_offset 8
 4774              		.cfi_offset 4, -8
 4775              		.cfi_offset 14, -4
 248:quantum/rgblight.c ****         mode = rgblight_config.mode + 1;
 4776              		.loc 1 248 24 view .LVU1169
 4777 0004 1B78     		ldrb	r3, [r3]
 247:quantum/rgblight.c ****     if (rgblight_config.mode < RGBLIGHT_MODES) {
 4778              		.loc 1 247 13 view .LVU1170
 4779 0006 0020     		movs	r0, #0
 248:quantum/rgblight.c ****         mode = rgblight_config.mode + 1;
 4780              		.loc 1 248 24 view .LVU1171
 4781 0008 5B08     		lsrs	r3, r3, #1
 248:quantum/rgblight.c ****         mode = rgblight_config.mode + 1;
 4782              		.loc 1 248 8 view .LVU1172
 4783 000a 232B     		cmp	r3, #35
 4784 000c 00D8     		bhi	.L344
 249:quantum/rgblight.c ****     }
 4785              		.loc 1 249 9 is_stmt 1 view .LVU1173
 249:quantum/rgblight.c ****     }
 4786              		.loc 1 249 14 is_stmt 0 view .LVU1174
 4787 000e 581C     		adds	r0, r3, #1
 4788              	.LVL299:
 4789              	.L344:
 251:quantum/rgblight.c **** }
 4790              		.loc 1 251 5 is_stmt 1 view .LVU1175
 4791 0010 FFF7FEFF 		bl	rgblight_mode
 4792              	.LVL300:
 252:quantum/rgblight.c **** void rgblight_decrease(void) {
 4793              		.loc 1 252 1 is_stmt 0 view .LVU1176
 4794              		@ sp needed
 4795 0014 10BD     		pop	{r4, pc}
 4796              	.L347:
 4797 0016 C046     		.align	2
 4798              	.L346:
 4799 0018 00000000 		.word	.LANCHOR5
 4800              		.cfi_endproc
 4801              	.LFE273:
 4803              		.section	.text.rgblight_decrease,"ax",%progbits
 4804              		.align	1
 4805              		.global	rgblight_decrease
 4806              		.syntax unified
 4807              		.code	16
 4808              		.thumb_func
 4809              		.fpu softvfp
 4811              	rgblight_decrease:
 4812              	.LFB274:
 253:quantum/rgblight.c ****     uint8_t mode = 0;
 4813              		.loc 1 253 30 is_stmt 1 view -0
 4814              		.cfi_startproc
 4815              		@ args = 0, pretend = 0, frame = 0
 4816              		@ frame_needed = 0, uses_anonymous_args = 0
 254:quantum/rgblight.c ****     // Mode will never be < 1. If it ever is, eeprom needs to be initialized.
 4817              		.loc 1 254 5 view .LVU1178
 4818              	.LVL301:
 256:quantum/rgblight.c ****         mode = rgblight_config.mode - 1;
 4819              		.loc 1 256 5 view .LVU1179
 256:quantum/rgblight.c ****         mode = rgblight_config.mode - 1;
 4820              		.loc 1 256 24 is_stmt 0 view .LVU1180
 4821 0000 054B     		ldr	r3, .L351
 253:quantum/rgblight.c ****     uint8_t mode = 0;
 4822              		.loc 1 253 30 view .LVU1181
 4823 0002 10B5     		push	{r4, lr}
 4824              		.cfi_def_cfa_offset 8
 4825              		.cfi_offset 4, -8
 4826              		.cfi_offset 14, -4
 256:quantum/rgblight.c ****         mode = rgblight_config.mode - 1;
 4827              		.loc 1 256 24 view .LVU1182
 4828 0004 1B78     		ldrb	r3, [r3]
 254:quantum/rgblight.c ****     // Mode will never be < 1. If it ever is, eeprom needs to be initialized.
 4829              		.loc 1 254 13 view .LVU1183
 4830 0006 0020     		movs	r0, #0
 256:quantum/rgblight.c ****         mode = rgblight_config.mode - 1;
 4831              		.loc 1 256 24 view .LVU1184
 4832 0008 5B08     		lsrs	r3, r3, #1
 256:quantum/rgblight.c ****         mode = rgblight_config.mode - 1;
 4833              		.loc 1 256 8 view .LVU1185
 4834 000a 012B     		cmp	r3, #1
 4835 000c 01D9     		bls	.L349
 257:quantum/rgblight.c ****     }
 4836              		.loc 1 257 9 is_stmt 1 view .LVU1186
 257:quantum/rgblight.c ****     }
 4837              		.loc 1 257 14 is_stmt 0 view .LVU1187
 4838 000e 013B     		subs	r3, r3, #1
 4839 0010 D8B2     		uxtb	r0, r3
 4840              	.LVL302:
 4841              	.L349:
 259:quantum/rgblight.c **** }
 4842              		.loc 1 259 5 is_stmt 1 view .LVU1188
 4843 0012 FFF7FEFF 		bl	rgblight_mode
 4844              	.LVL303:
 260:quantum/rgblight.c **** void rgblight_step_helper(bool write_to_eeprom) {
 4845              		.loc 1 260 1 is_stmt 0 view .LVU1189
 4846              		@ sp needed
 4847 0016 10BD     		pop	{r4, pc}
 4848              	.L352:
 4849              		.align	2
 4850              	.L351:
 4851 0018 00000000 		.word	.LANCHOR5
 4852              		.cfi_endproc
 4853              	.LFE274:
 4855              		.section	.text.rgblight_enable,"ax",%progbits
 4856              		.align	1
 4857              		.global	rgblight_enable
 4858              		.syntax unified
 4859              		.code	16
 4860              		.thumb_func
 4861              		.fpu softvfp
 4863              	rgblight_enable:
 4864              	.LFB287:
 341:quantum/rgblight.c ****     rgblight_config.enable = 1;
 4865              		.loc 1 341 28 is_stmt 1 view -0
 4866              		.cfi_startproc
 4867              		@ args = 0, pretend = 0, frame = 0
 4868              		@ frame_needed = 0, uses_anonymous_args = 0
 342:quantum/rgblight.c ****     // No need to update EEPROM here. rgblight_mode() will do that, actually
 4869              		.loc 1 342 5 view .LVU1191
 342:quantum/rgblight.c ****     // No need to update EEPROM here. rgblight_mode() will do that, actually
 4870              		.loc 1 342 28 is_stmt 0 view .LVU1192
 4871 0000 0121     		movs	r1, #1
 341:quantum/rgblight.c ****     rgblight_config.enable = 1;
 4872              		.loc 1 341 28 view .LVU1193
 4873 0002 10B5     		push	{r4, lr}
 4874              		.cfi_def_cfa_offset 8
 4875              		.cfi_offset 4, -8
 4876              		.cfi_offset 14, -4
 342:quantum/rgblight.c ****     // No need to update EEPROM here. rgblight_mode() will do that, actually
 4877              		.loc 1 342 28 view .LVU1194
 4878 0004 074C     		ldr	r4, .L358
 4879 0006 2378     		ldrb	r3, [r4]
 4880 0008 0B43     		orrs	r3, r1
 4881 000a 2370     		strb	r3, [r4]
 345:quantum/rgblight.c ****     rgblight_mode(rgblight_config.mode);
 4882              		.loc 1 345 5 is_stmt 1 view .LVU1195
 345:quantum/rgblight.c ****     rgblight_mode(rgblight_config.mode);
 4883              		.loc 1 345 5 view .LVU1196
 4884 000c 064B     		ldr	r3, .L358+4
 4885 000e 1B78     		ldrb	r3, [r3]
 4886 0010 0B42     		tst	r3, r1
 4887 0012 02D0     		beq	.L354
 345:quantum/rgblight.c ****     rgblight_mode(rgblight_config.mode);
 4888              		.loc 1 345 5 discriminator 1 view .LVU1197
 4889 0014 0548     		ldr	r0, .L358+8
 4890 0016 FFF7FEFF 		bl	tfp_printf
 4891              	.LVL304:
 4892              	.L354:
 346:quantum/rgblight.c **** }
 4893              		.loc 1 346 5 view .LVU1198
 346:quantum/rgblight.c **** }
 4894              		.loc 1 346 34 is_stmt 0 view .LVU1199
 4895 001a 2078     		ldrb	r0, [r4]
 347:quantum/rgblight.c **** 
 4896              		.loc 1 347 1 view .LVU1200
 4897              		@ sp needed
 346:quantum/rgblight.c **** }
 4898              		.loc 1 346 5 view .LVU1201
 4899 001c 4008     		lsrs	r0, r0, #1
 4900 001e FFF7FEFF 		bl	rgblight_mode
 4901              	.LVL305:
 347:quantum/rgblight.c **** 
 4902              		.loc 1 347 1 view .LVU1202
 4903 0022 10BD     		pop	{r4, pc}
 4904              	.L359:
 4905              		.align	2
 4906              	.L358:
 4907 0024 00000000 		.word	.LANCHOR5
 4908 0028 00000000 		.word	debug_config
 4909 002c 00000000 		.word	.LC130
 4910              		.cfi_endproc
 4911              	.LFE287:
 4913              		.section	.text.rgblight_mode_noeeprom,"ax",%progbits
 4914              		.align	1
 4915              		.global	rgblight_mode_noeeprom
 4916              		.syntax unified
 4917              		.code	16
 4918              		.thumb_func
 4919              		.fpu softvfp
 4921              	rgblight_mode_noeeprom:
 4922              	.LVL306:
 4923              	.LFB284:
 321:quantum/rgblight.c **** 
 4924              		.loc 1 321 43 is_stmt 1 view -0
 4925              		.cfi_startproc
 4926              		@ args = 0, pretend = 0, frame = 0
 4927              		@ frame_needed = 0, uses_anonymous_args = 0
 321:quantum/rgblight.c **** 
 4928              		.loc 1 321 45 view .LVU1204
 321:quantum/rgblight.c **** 
 4929              		.loc 1 321 43 is_stmt 0 view .LVU1205
 4930 0000 10B5     		push	{r4, lr}
 4931              		.cfi_def_cfa_offset 8
 4932              		.cfi_offset 4, -8
 4933              		.cfi_offset 14, -4
 321:quantum/rgblight.c **** 
 4934              		.loc 1 321 45 view .LVU1206
 4935 0002 0021     		movs	r1, #0
 4936 0004 FFF7FEFF 		bl	rgblight_mode_eeprom_helper
 4937              	.LVL307:
 321:quantum/rgblight.c **** 
 4938              		.loc 1 321 1 view .LVU1207
 4939              		@ sp needed
 4940 0008 10BD     		pop	{r4, pc}
 4941              		.cfi_endproc
 4942              	.LFE284:
 4944              		.section	.text.rgblight_init,"ax",%progbits
 4945              		.align	1
 4946              		.global	rgblight_init
 4947              		.syntax unified
 4948              		.code	16
 4949              		.thumb_func
 4950              		.fpu softvfp
 4952              	rgblight_init:
 4953              	.LFB270:
 198:quantum/rgblight.c ****     /* if already initialized, don't do it again.
 4954              		.loc 1 198 26 is_stmt 1 view -0
 4955              		.cfi_startproc
 4956              		@ args = 0, pretend = 0, frame = 0
 4957              		@ frame_needed = 0, uses_anonymous_args = 0
 202:quantum/rgblight.c ****         return;
 4958              		.loc 1 202 5 view .LVU1209
 198:quantum/rgblight.c ****     /* if already initialized, don't do it again.
 4959              		.loc 1 198 26 is_stmt 0 view .LVU1210
 4960 0000 70B5     		push	{r4, r5, r6, lr}
 4961              		.cfi_def_cfa_offset 16
 4962              		.cfi_offset 4, -16
 4963              		.cfi_offset 5, -12
 4964              		.cfi_offset 6, -8
 4965              		.cfi_offset 14, -4
 202:quantum/rgblight.c ****         return;
 4966              		.loc 1 202 9 view .LVU1211
 4967 0002 224E     		ldr	r6, .L383
 202:quantum/rgblight.c ****         return;
 4968              		.loc 1 202 8 view .LVU1212
 4969 0004 3378     		ldrb	r3, [r6]
 4970 0006 002B     		cmp	r3, #0
 4971 0008 3ED1     		bne	.L361
 206:quantum/rgblight.c ****     dprintf("rgblight_init start!\n");
 4972              		.loc 1 206 5 is_stmt 1 view .LVU1213
 206:quantum/rgblight.c ****     dprintf("rgblight_init start!\n");
 4973              		.loc 1 206 5 view .LVU1214
 4974 000a 0125     		movs	r5, #1
 4975 000c 204C     		ldr	r4, .L383+4
 4976 000e 2378     		ldrb	r3, [r4]
 4977 0010 2B42     		tst	r3, r5
 4978 0012 08D0     		beq	.L364
 206:quantum/rgblight.c ****     dprintf("rgblight_init start!\n");
 4979              		.loc 1 206 5 discriminator 1 view .LVU1215
 4980 0014 1F48     		ldr	r0, .L383+8
 4981 0016 FFF7FEFF 		bl	tfp_printf
 4982              	.LVL308:
 207:quantum/rgblight.c ****     if (!eeconfig_is_enabled()) {
 4983              		.loc 1 207 5 discriminator 1 view .LVU1216
 207:quantum/rgblight.c ****     if (!eeconfig_is_enabled()) {
 4984              		.loc 1 207 5 discriminator 1 view .LVU1217
 4985 001a 2378     		ldrb	r3, [r4]
 4986 001c 2B42     		tst	r3, r5
 4987 001e 02D0     		beq	.L364
 207:quantum/rgblight.c ****     if (!eeconfig_is_enabled()) {
 4988              		.loc 1 207 5 discriminator 1 view .LVU1218
 4989 0020 1D48     		ldr	r0, .L383+12
 4990 0022 FFF7FEFF 		bl	tfp_printf
 4991              	.LVL309:
 4992              	.L364:
 208:quantum/rgblight.c ****         dprintf("rgblight_init eeconfig is not enabled.\n");
 4993              		.loc 1 208 5 view .LVU1219
 208:quantum/rgblight.c ****         dprintf("rgblight_init eeconfig is not enabled.\n");
 4994              		.loc 1 208 10 is_stmt 0 view .LVU1220
 4995 0026 FFF7FEFF 		bl	eeconfig_is_enabled
 4996              	.LVL310:
 208:quantum/rgblight.c ****         dprintf("rgblight_init eeconfig is not enabled.\n");
 4997              		.loc 1 208 8 view .LVU1221
 4998 002a 0028     		cmp	r0, #0
 4999 002c 09D1     		bne	.L366
 209:quantum/rgblight.c ****         eeconfig_init();
 5000              		.loc 1 209 9 is_stmt 1 view .LVU1222
 209:quantum/rgblight.c ****         eeconfig_init();
 5001              		.loc 1 209 9 view .LVU1223
 5002 002e 2378     		ldrb	r3, [r4]
 5003 0030 DB07     		lsls	r3, r3, #31
 5004 0032 02D5     		bpl	.L367
 209:quantum/rgblight.c ****         eeconfig_init();
 5005              		.loc 1 209 9 discriminator 1 view .LVU1224
 5006 0034 1948     		ldr	r0, .L383+16
 5007 0036 FFF7FEFF 		bl	tfp_printf
 5008              	.LVL311:
 5009              	.L367:
 210:quantum/rgblight.c ****         eeconfig_update_rgblight_default();
 5010              		.loc 1 210 9 view .LVU1225
 5011 003a FFF7FEFF 		bl	eeconfig_init
 5012              	.LVL312:
 211:quantum/rgblight.c ****     }
 5013              		.loc 1 211 9 view .LVU1226
 5014 003e FFF7FEFF 		bl	eeconfig_update_rgblight_default
 5015              	.LVL313:
 5016              	.L366:
 213:quantum/rgblight.c ****     RGBLIGHT_SPLIT_SET_CHANGE_MODEHSVS;
 5017              		.loc 1 213 5 view .LVU1227
 213:quantum/rgblight.c ****     RGBLIGHT_SPLIT_SET_CHANGE_MODEHSVS;
 5018              		.loc 1 213 27 is_stmt 0 view .LVU1228
 5019 0042 FFF7FEFF 		bl	eeconfig_read_rgblight
 5020              	.LVL314:
 215:quantum/rgblight.c ****         dprintf("rgblight_init rgblight_config.mode = 0. Write default values to EEPROM.\n");
 5021              		.loc 1 215 9 view .LVU1229
 5022 0046 0123     		movs	r3, #1
 213:quantum/rgblight.c ****     RGBLIGHT_SPLIT_SET_CHANGE_MODEHSVS;
 5023              		.loc 1 213 25 view .LVU1230
 5024 0048 154D     		ldr	r5, .L383+20
 5025 004a 2860     		str	r0, [r5]
 214:quantum/rgblight.c ****     if (!rgblight_config.mode) {
 5026              		.loc 1 214 39 is_stmt 1 view .LVU1231
 215:quantum/rgblight.c ****         dprintf("rgblight_init rgblight_config.mode = 0. Write default values to EEPROM.\n");
 5027              		.loc 1 215 5 view .LVU1232
 215:quantum/rgblight.c ****         dprintf("rgblight_init rgblight_config.mode = 0. Write default values to EEPROM.\n");
 5028              		.loc 1 215 9 is_stmt 0 view .LVU1233
 5029 004c 9843     		bics	r0, r3
 215:quantum/rgblight.c ****         dprintf("rgblight_init rgblight_config.mode = 0. Write default values to EEPROM.\n");
 5030              		.loc 1 215 8 view .LVU1234
 5031 004e C0B2     		uxtb	r0, r0
 5032 0050 0028     		cmp	r0, #0
 5033 0052 0AD1     		bne	.L368
 216:quantum/rgblight.c ****         eeconfig_update_rgblight_default();
 5034              		.loc 1 216 9 is_stmt 1 view .LVU1235
 216:quantum/rgblight.c ****         eeconfig_update_rgblight_default();
 5035              		.loc 1 216 9 view .LVU1236
 5036 0054 2278     		ldrb	r2, [r4]
 5037 0056 1A42     		tst	r2, r3
 5038 0058 02D0     		beq	.L369
 216:quantum/rgblight.c ****         eeconfig_update_rgblight_default();
 5039              		.loc 1 216 9 discriminator 1 view .LVU1237
 5040 005a 1248     		ldr	r0, .L383+24
 5041 005c FFF7FEFF 		bl	tfp_printf
 5042              	.LVL315:
 5043              	.L369:
 217:quantum/rgblight.c ****         rgblight_config.raw = eeconfig_read_rgblight();
 5044              		.loc 1 217 9 view .LVU1238
 5045 0060 FFF7FEFF 		bl	eeconfig_update_rgblight_default
 5046              	.LVL316:
 218:quantum/rgblight.c ****     }
 5047              		.loc 1 218 9 view .LVU1239
 218:quantum/rgblight.c ****     }
 5048              		.loc 1 218 31 is_stmt 0 view .LVU1240
 5049 0064 FFF7FEFF 		bl	eeconfig_read_rgblight
 5050              	.LVL317:
 218:quantum/rgblight.c ****     }
 5051              		.loc 1 218 29 view .LVU1241
 5052 0068 2860     		str	r0, [r5]
 5053              	.L368:
 220:quantum/rgblight.c **** 
 5054              		.loc 1 220 5 is_stmt 1 view .LVU1242
 5055 006a FFF7FEFF 		bl	rgblight_check_config
 5056              	.LVL318:
 222:quantum/rgblight.c **** 
 5057              		.loc 1 222 5 view .LVU1243
 5058 006e FFF7FEFF 		bl	eeconfig_debug_rgblight
 5059              	.LVL319:
 224:quantum/rgblight.c **** 
 5060              		.loc 1 224 5 view .LVU1244
 5061              	.LBB224:
 5062              	.LBI224:
 760:quantum/rgblight.c ****     // OLD!!!! Animation timer -- AVR Timer3
 5063              		.loc 1 760 6 view .LVU1245
 5064              	.LBB225:
 777:quantum/rgblight.c ****     RGBLIGHT_SPLIT_SET_CHANGE_TIMER_ENABLE;
 5065              		.loc 1 777 5 view .LVU1246
 777:quantum/rgblight.c ****     RGBLIGHT_SPLIT_SET_CHANGE_TIMER_ENABLE;
 5066              		.loc 1 777 35 is_stmt 0 view .LVU1247
 5067 0072 0022     		movs	r2, #0
 5068 0074 0C4B     		ldr	r3, .L383+28
 5069              	.LBE225:
 5070              	.LBE224:
 226:quantum/rgblight.c ****         rgblight_mode_noeeprom(rgblight_config.mode);
 5071              		.loc 1 226 9 view .LVU1248
 5072 0076 2878     		ldrb	r0, [r5]
 5073              	.LBB227:
 5074              	.LBB226:
 777:quantum/rgblight.c ****     RGBLIGHT_SPLIT_SET_CHANGE_TIMER_ENABLE;
 5075              		.loc 1 777 35 view .LVU1249
 5076 0078 5A70     		strb	r2, [r3, #1]
 778:quantum/rgblight.c **** }
 5077              		.loc 1 778 43 is_stmt 1 view .LVU1250
 5078              	.LBE226:
 5079              	.LBE227:
 226:quantum/rgblight.c ****         rgblight_mode_noeeprom(rgblight_config.mode);
 5080              		.loc 1 226 5 view .LVU1251
 226:quantum/rgblight.c ****         rgblight_mode_noeeprom(rgblight_config.mode);
 5081              		.loc 1 226 8 is_stmt 0 view .LVU1252
 5082 007a C307     		lsls	r3, r0, #31
 5083 007c 02D5     		bpl	.L370
 227:quantum/rgblight.c ****     }
 5084              		.loc 1 227 9 is_stmt 1 view .LVU1253
 5085 007e 4008     		lsrs	r0, r0, #1
 5086 0080 FFF7FEFF 		bl	rgblight_mode_noeeprom
 5087              	.LVL320:
 5088              	.L370:
 230:quantum/rgblight.c **** }
 5089              		.loc 1 230 5 view .LVU1254
 230:quantum/rgblight.c **** }
 5090              		.loc 1 230 29 is_stmt 0 view .LVU1255
 5091 0084 0123     		movs	r3, #1
 5092 0086 3370     		strb	r3, [r6]
 5093              	.L361:
 231:quantum/rgblight.c **** 
 5094              		.loc 1 231 1 view .LVU1256
 5095              		@ sp needed
 5096 0088 70BD     		pop	{r4, r5, r6, pc}
 5097              	.L384:
 5098 008a C046     		.align	2
 5099              	.L383:
 5100 008c 00000000 		.word	.LANCHOR16
 5101 0090 00000000 		.word	debug_config
 5102 0094 00000000 		.word	.LC134
 5103 0098 17000000 		.word	.LC136
 5104 009c 2D000000 		.word	.LC138
 5105 00a0 00000000 		.word	.LANCHOR5
 5106 00a4 55000000 		.word	.LC141
 5107 00a8 00000000 		.word	.LANCHOR9
 5108              		.cfi_endproc
 5109              	.LFE270:
 5111              		.section	.text.rgblight_enable_noeeprom,"ax",%progbits
 5112              		.align	1
 5113              		.global	rgblight_enable_noeeprom
 5114              		.syntax unified
 5115              		.code	16
 5116              		.thumb_func
 5117              		.fpu softvfp
 5119              	rgblight_enable_noeeprom:
 5120              	.LFB288:
 349:quantum/rgblight.c ****     rgblight_config.enable = 1;
 5121              		.loc 1 349 37 is_stmt 1 view -0
 5122              		.cfi_startproc
 5123              		@ args = 0, pretend = 0, frame = 0
 5124              		@ frame_needed = 0, uses_anonymous_args = 0
 350:quantum/rgblight.c ****     dprintf("rgblight enable [NOEEPROM]: rgblight_config.enable = %u\n", rgblight_config.enable);
 5125              		.loc 1 350 5 view .LVU1258
 350:quantum/rgblight.c ****     dprintf("rgblight enable [NOEEPROM]: rgblight_config.enable = %u\n", rgblight_config.enable);
 5126              		.loc 1 350 28 is_stmt 0 view .LVU1259
 5127 0000 0121     		movs	r1, #1
 349:quantum/rgblight.c ****     rgblight_config.enable = 1;
 5128              		.loc 1 349 37 view .LVU1260
 5129 0002 10B5     		push	{r4, lr}
 5130              		.cfi_def_cfa_offset 8
 5131              		.cfi_offset 4, -8
 5132              		.cfi_offset 14, -4
 350:quantum/rgblight.c ****     dprintf("rgblight enable [NOEEPROM]: rgblight_config.enable = %u\n", rgblight_config.enable);
 5133              		.loc 1 350 28 view .LVU1261
 5134 0004 074C     		ldr	r4, .L390
 5135 0006 2378     		ldrb	r3, [r4]
 5136 0008 0B43     		orrs	r3, r1
 5137 000a 2370     		strb	r3, [r4]
 351:quantum/rgblight.c ****     rgblight_mode_noeeprom(rgblight_config.mode);
 5138              		.loc 1 351 5 is_stmt 1 view .LVU1262
 351:quantum/rgblight.c ****     rgblight_mode_noeeprom(rgblight_config.mode);
 5139              		.loc 1 351 5 view .LVU1263
 5140 000c 064B     		ldr	r3, .L390+4
 5141 000e 1B78     		ldrb	r3, [r3]
 5142 0010 0B42     		tst	r3, r1
 5143 0012 02D0     		beq	.L386
 351:quantum/rgblight.c ****     rgblight_mode_noeeprom(rgblight_config.mode);
 5144              		.loc 1 351 5 discriminator 1 view .LVU1264
 5145 0014 0548     		ldr	r0, .L390+8
 5146 0016 FFF7FEFF 		bl	tfp_printf
 5147              	.LVL321:
 5148              	.L386:
 352:quantum/rgblight.c **** }
 5149              		.loc 1 352 5 view .LVU1265
 352:quantum/rgblight.c **** }
 5150              		.loc 1 352 43 is_stmt 0 view .LVU1266
 5151 001a 2078     		ldrb	r0, [r4]
 353:quantum/rgblight.c **** 
 5152              		.loc 1 353 1 view .LVU1267
 5153              		@ sp needed
 352:quantum/rgblight.c **** }
 5154              		.loc 1 352 5 view .LVU1268
 5155 001c 4008     		lsrs	r0, r0, #1
 5156 001e FFF7FEFF 		bl	rgblight_mode_noeeprom
 5157              	.LVL322:
 353:quantum/rgblight.c **** 
 5158              		.loc 1 353 1 view .LVU1269
 5159 0022 10BD     		pop	{r4, pc}
 5160              	.L391:
 5161              		.align	2
 5162              	.L390:
 5163 0024 00000000 		.word	.LANCHOR5
 5164 0028 00000000 		.word	debug_config
 5165 002c 00000000 		.word	.LC146
 5166              		.cfi_endproc
 5167              	.LFE288:
 5169              		.section	.text.rgblight_update_dword,"ax",%progbits
 5170              		.align	1
 5171              		.global	rgblight_update_dword
 5172              		.syntax unified
 5173              		.code	16
 5174              		.thumb_func
 5175              		.fpu softvfp
 5177              	rgblight_update_dword:
 5178              	.LVL323:
 5179              	.LFB272:
 235:quantum/rgblight.c ****     RGBLIGHT_SPLIT_SET_CHANGE_MODEHSVS;
 5180              		.loc 1 235 44 is_stmt 1 view -0
 5181              		.cfi_startproc
 5182              		@ args = 0, pretend = 0, frame = 0
 5183              		@ frame_needed = 0, uses_anonymous_args = 0
 236:quantum/rgblight.c ****     rgblight_config.raw = dword;
 5184              		.loc 1 236 39 view .LVU1271
 237:quantum/rgblight.c ****     if (rgblight_config.enable)
 5185              		.loc 1 237 5 view .LVU1272
 237:quantum/rgblight.c ****     if (rgblight_config.enable)
 5186              		.loc 1 237 25 is_stmt 0 view .LVU1273
 5187 0000 074B     		ldr	r3, .L395
 235:quantum/rgblight.c ****     RGBLIGHT_SPLIT_SET_CHANGE_MODEHSVS;
 5188              		.loc 1 235 44 view .LVU1274
 5189 0002 10B5     		push	{r4, lr}
 5190              		.cfi_def_cfa_offset 8
 5191              		.cfi_offset 4, -8
 5192              		.cfi_offset 14, -4
 237:quantum/rgblight.c ****     if (rgblight_config.enable)
 5193              		.loc 1 237 25 view .LVU1275
 5194 0004 1860     		str	r0, [r3]
 238:quantum/rgblight.c ****         rgblight_mode_noeeprom(rgblight_config.mode);
 5195              		.loc 1 238 5 is_stmt 1 view .LVU1276
 238:quantum/rgblight.c ****         rgblight_mode_noeeprom(rgblight_config.mode);
 5196              		.loc 1 238 8 is_stmt 0 view .LVU1277
 5197 0006 C207     		lsls	r2, r0, #31
 5198 0008 04D5     		bpl	.L393
 239:quantum/rgblight.c ****     else {
 5199              		.loc 1 239 9 is_stmt 1 view .LVU1278
 239:quantum/rgblight.c ****     else {
 5200              		.loc 1 239 47 is_stmt 0 view .LVU1279
 5201 000a 1878     		ldrb	r0, [r3]
 5202              	.LVL324:
 239:quantum/rgblight.c ****     else {
 5203              		.loc 1 239 9 view .LVU1280
 5204 000c 4008     		lsrs	r0, r0, #1
 5205 000e FFF7FEFF 		bl	rgblight_mode_noeeprom
 5206              	.LVL325:
 5207              	.L392:
 244:quantum/rgblight.c **** 
 5208              		.loc 1 244 1 view .LVU1281
 5209              		@ sp needed
 5210 0012 10BD     		pop	{r4, pc}
 5211              	.LVL326:
 5212              	.L393:
 241:quantum/rgblight.c ****         rgblight_set();
 5213              		.loc 1 241 9 is_stmt 1 view .LVU1282
 5214 0014 FFF7FEFF 		bl	rgblight_timer_disable
 5215              	.LVL327:
 242:quantum/rgblight.c ****     }
 5216              		.loc 1 242 9 view .LVU1283
 5217 0018 FFF7FEFF 		bl	rgblight_set
 5218              	.LVL328:
 244:quantum/rgblight.c **** 
 5219              		.loc 1 244 1 is_stmt 0 view .LVU1284
 5220 001c F9E7     		b	.L392
 5221              	.L396:
 5222 001e C046     		.align	2
 5223              	.L395:
 5224 0020 00000000 		.word	.LANCHOR5
 5225              		.cfi_endproc
 5226              	.LFE272:
 5228              		.section	.text.rgblight_disable,"ax",%progbits
 5229              		.align	1
 5230              		.global	rgblight_disable
 5231              		.syntax unified
 5232              		.code	16
 5233              		.thumb_func
 5234              		.fpu softvfp
 5236              	rgblight_disable:
 5237              	.LFB289:
 355:quantum/rgblight.c ****     rgblight_config.enable = 0;
 5238              		.loc 1 355 29 is_stmt 1 view -0
 5239              		.cfi_startproc
 5240              		@ args = 0, pretend = 0, frame = 0
 5241              		@ frame_needed = 0, uses_anonymous_args = 0
 356:quantum/rgblight.c ****     eeconfig_update_rgblight(rgblight_config.raw);
 5242              		.loc 1 356 5 view .LVU1286
 355:quantum/rgblight.c ****     rgblight_config.enable = 0;
 5243              		.loc 1 355 29 is_stmt 0 view .LVU1287
 5244 0000 70B5     		push	{r4, r5, r6, lr}
 5245              		.cfi_def_cfa_offset 16
 5246              		.cfi_offset 4, -16
 5247              		.cfi_offset 5, -12
 5248              		.cfi_offset 6, -8
 5249              		.cfi_offset 14, -4
 356:quantum/rgblight.c ****     eeconfig_update_rgblight(rgblight_config.raw);
 5250              		.loc 1 356 28 view .LVU1288
 5251 0002 0125     		movs	r5, #1
 5252 0004 0C4C     		ldr	r4, .L402
 5253 0006 2378     		ldrb	r3, [r4]
 5254 0008 AB43     		bics	r3, r5
 5255 000a 2370     		strb	r3, [r4]
 357:quantum/rgblight.c ****     dprintf("rgblight disable [EEPROM]: rgblight_config.enable = %u\n", rgblight_config.enable);
 5256              		.loc 1 357 5 is_stmt 1 view .LVU1289
 5257 000c 2068     		ldr	r0, [r4]
 5258 000e FFF7FEFF 		bl	eeconfig_update_rgblight
 5259              	.LVL329:
 358:quantum/rgblight.c ****     rgblight_timer_disable();
 5260              		.loc 1 358 5 view .LVU1290
 358:quantum/rgblight.c ****     rgblight_timer_disable();
 5261              		.loc 1 358 5 view .LVU1291
 5262 0012 0A4B     		ldr	r3, .L402+4
 5263 0014 1B78     		ldrb	r3, [r3]
 5264 0016 2B42     		tst	r3, r5
 5265 0018 05D0     		beq	.L398
 358:quantum/rgblight.c ****     rgblight_timer_disable();
 5266              		.loc 1 358 5 discriminator 1 view .LVU1292
 5267 001a 2178     		ldrb	r1, [r4]
 5268 001c 0848     		ldr	r0, .L402+8
 5269 001e C907     		lsls	r1, r1, #31
 5270 0020 C90F     		lsrs	r1, r1, #31
 5271 0022 FFF7FEFF 		bl	tfp_printf
 5272              	.LVL330:
 5273              	.L398:
 359:quantum/rgblight.c ****     RGBLIGHT_SPLIT_SET_CHANGE_MODE;
 5274              		.loc 1 359 5 view .LVU1293
 5275 0026 FFF7FEFF 		bl	rgblight_timer_disable
 5276              	.LVL331:
 360:quantum/rgblight.c ****     wait_ms(50);
 5277              		.loc 1 360 35 view .LVU1294
 361:quantum/rgblight.c ****     rgblight_set();
 5278              		.loc 1 361 5 view .LVU1295
 361:quantum/rgblight.c ****     rgblight_set();
 5279              		.loc 1 361 5 view .LVU1296
 361:quantum/rgblight.c ****     rgblight_set();
 5280              		.loc 1 361 5 view .LVU1297
 5281 002a FA20     		movs	r0, #250
 5282 002c 4000     		lsls	r0, r0, #1
 5283 002e FFF7FEFF 		bl	chThdSleep
 5284              	.LVL332:
 362:quantum/rgblight.c **** }
 5285              		.loc 1 362 5 view .LVU1298
 363:quantum/rgblight.c **** 
 5286              		.loc 1 363 1 is_stmt 0 view .LVU1299
 5287              		@ sp needed
 362:quantum/rgblight.c **** }
 5288              		.loc 1 362 5 view .LVU1300
 5289 0032 FFF7FEFF 		bl	rgblight_set
 5290              	.LVL333:
 363:quantum/rgblight.c **** 
 5291              		.loc 1 363 1 view .LVU1301
 5292 0036 70BD     		pop	{r4, r5, r6, pc}
 5293              	.L403:
 5294              		.align	2
 5295              	.L402:
 5296 0038 00000000 		.word	.LANCHOR5
 5297 003c 00000000 		.word	debug_config
 5298 0040 00000000 		.word	.LC151
 5299              		.cfi_endproc
 5300              	.LFE289:
 5302              		.section	.text.rgblight_toggle,"ax",%progbits
 5303              		.align	1
 5304              		.global	rgblight_toggle
 5305              		.syntax unified
 5306              		.code	16
 5307              		.thumb_func
 5308              		.fpu softvfp
 5310              	rgblight_toggle:
 5311              	.LFB285:
 323:quantum/rgblight.c ****     dprintf("rgblight toggle [EEPROM]: rgblight_config.enable = %u\n", !rgblight_config.enable);
 5312              		.loc 1 323 28 is_stmt 1 view -0
 5313              		.cfi_startproc
 5314              		@ args = 0, pretend = 0, frame = 0
 5315              		@ frame_needed = 0, uses_anonymous_args = 0
 324:quantum/rgblight.c ****     if (rgblight_config.enable) {
 5316              		.loc 1 324 5 view .LVU1303
 324:quantum/rgblight.c ****     if (rgblight_config.enable) {
 5317              		.loc 1 324 5 view .LVU1304
 5318 0000 0B4B     		ldr	r3, .L411
 323:quantum/rgblight.c ****     dprintf("rgblight toggle [EEPROM]: rgblight_config.enable = %u\n", !rgblight_config.enable);
 5319              		.loc 1 323 28 is_stmt 0 view .LVU1305
 5320 0002 10B5     		push	{r4, lr}
 5321              		.cfi_def_cfa_offset 8
 5322              		.cfi_offset 4, -8
 5323              		.cfi_offset 14, -4
 324:quantum/rgblight.c ****     if (rgblight_config.enable) {
 5324              		.loc 1 324 5 view .LVU1306
 5325 0004 1A78     		ldrb	r2, [r3]
 5326 0006 0123     		movs	r3, #1
 5327 0008 0A4C     		ldr	r4, .L411+4
 5328 000a 1A42     		tst	r2, r3
 5329 000c 06D0     		beq	.L405
 324:quantum/rgblight.c ****     if (rgblight_config.enable) {
 5330              		.loc 1 324 5 is_stmt 1 discriminator 1 view .LVU1307
 5331 000e 2178     		ldrb	r1, [r4]
 5332 0010 0948     		ldr	r0, .L411+8
 5333 0012 C907     		lsls	r1, r1, #31
 5334 0014 C90F     		lsrs	r1, r1, #31
 5335 0016 5940     		eors	r1, r3
 5336 0018 FFF7FEFF 		bl	tfp_printf
 5337              	.LVL334:
 5338              	.L405:
 325:quantum/rgblight.c ****         rgblight_disable();
 5339              		.loc 1 325 5 view .LVU1308
 325:quantum/rgblight.c ****         rgblight_disable();
 5340              		.loc 1 325 9 is_stmt 0 view .LVU1309
 5341 001c 2378     		ldrb	r3, [r4]
 325:quantum/rgblight.c ****         rgblight_disable();
 5342              		.loc 1 325 8 view .LVU1310
 5343 001e DB07     		lsls	r3, r3, #31
 5344 0020 02D5     		bpl	.L406
 326:quantum/rgblight.c ****     } else {
 5345              		.loc 1 326 9 is_stmt 1 view .LVU1311
 5346 0022 FFF7FEFF 		bl	rgblight_disable
 5347              	.LVL335:
 5348              	.L404:
 330:quantum/rgblight.c **** 
 5349              		.loc 1 330 1 is_stmt 0 view .LVU1312
 5350              		@ sp needed
 5351 0026 10BD     		pop	{r4, pc}
 5352              	.L406:
 328:quantum/rgblight.c ****     }
 5353              		.loc 1 328 9 is_stmt 1 view .LVU1313
 5354 0028 FFF7FEFF 		bl	rgblight_enable
 5355              	.LVL336:
 330:quantum/rgblight.c **** 
 5356              		.loc 1 330 1 is_stmt 0 view .LVU1314
 5357 002c FBE7     		b	.L404
 5358              	.L412:
 5359 002e C046     		.align	2
 5360              	.L411:
 5361 0030 00000000 		.word	debug_config
 5362 0034 00000000 		.word	.LANCHOR5
 5363 0038 00000000 		.word	.LC155
 5364              		.cfi_endproc
 5365              	.LFE285:
 5367              		.section	.text.rgblight_disable_noeeprom,"ax",%progbits
 5368              		.align	1
 5369              		.global	rgblight_disable_noeeprom
 5370              		.syntax unified
 5371              		.code	16
 5372              		.thumb_func
 5373              		.fpu softvfp
 5375              	rgblight_disable_noeeprom:
 5376              	.LFB290:
 365:quantum/rgblight.c ****     rgblight_config.enable = 0;
 5377              		.loc 1 365 38 is_stmt 1 view -0
 5378              		.cfi_startproc
 5379              		@ args = 0, pretend = 0, frame = 0
 5380              		@ frame_needed = 0, uses_anonymous_args = 0
 366:quantum/rgblight.c ****     dprintf("rgblight disable [NOEEPROM]: rgblight_config.enable = %u\n", rgblight_config.enable);
 5381              		.loc 1 366 5 view .LVU1316
 366:quantum/rgblight.c ****     dprintf("rgblight disable [NOEEPROM]: rgblight_config.enable = %u\n", rgblight_config.enable);
 5382              		.loc 1 366 28 is_stmt 0 view .LVU1317
 5383 0000 0122     		movs	r2, #1
 5384 0002 0B49     		ldr	r1, .L418
 365:quantum/rgblight.c ****     rgblight_config.enable = 0;
 5385              		.loc 1 365 38 view .LVU1318
 5386 0004 10B5     		push	{r4, lr}
 5387              		.cfi_def_cfa_offset 8
 5388              		.cfi_offset 4, -8
 5389              		.cfi_offset 14, -4
 366:quantum/rgblight.c ****     dprintf("rgblight disable [NOEEPROM]: rgblight_config.enable = %u\n", rgblight_config.enable);
 5390              		.loc 1 366 28 view .LVU1319
 5391 0006 0B78     		ldrb	r3, [r1]
 5392 0008 9343     		bics	r3, r2
 5393 000a 0B70     		strb	r3, [r1]
 367:quantum/rgblight.c ****     rgblight_timer_disable();
 5394              		.loc 1 367 5 is_stmt 1 view .LVU1320
 367:quantum/rgblight.c ****     rgblight_timer_disable();
 5395              		.loc 1 367 5 view .LVU1321
 5396 000c 094B     		ldr	r3, .L418+4
 5397 000e 1B78     		ldrb	r3, [r3]
 5398 0010 1342     		tst	r3, r2
 5399 0012 03D0     		beq	.L414
 367:quantum/rgblight.c ****     rgblight_timer_disable();
 5400              		.loc 1 367 5 discriminator 1 view .LVU1322
 5401 0014 0021     		movs	r1, #0
 5402 0016 0848     		ldr	r0, .L418+8
 5403 0018 FFF7FEFF 		bl	tfp_printf
 5404              	.LVL337:
 5405              	.L414:
 368:quantum/rgblight.c ****     RGBLIGHT_SPLIT_SET_CHANGE_MODE;
 5406              		.loc 1 368 5 view .LVU1323
 5407 001c FFF7FEFF 		bl	rgblight_timer_disable
 5408              	.LVL338:
 369:quantum/rgblight.c ****     wait_ms(50);
 5409              		.loc 1 369 35 view .LVU1324
 370:quantum/rgblight.c ****     rgblight_set();
 5410              		.loc 1 370 5 view .LVU1325
 370:quantum/rgblight.c ****     rgblight_set();
 5411              		.loc 1 370 5 view .LVU1326
 370:quantum/rgblight.c ****     rgblight_set();
 5412              		.loc 1 370 5 view .LVU1327
 5413 0020 FA20     		movs	r0, #250
 5414 0022 4000     		lsls	r0, r0, #1
 5415 0024 FFF7FEFF 		bl	chThdSleep
 5416              	.LVL339:
 371:quantum/rgblight.c **** }
 5417              		.loc 1 371 5 view .LVU1328
 372:quantum/rgblight.c **** 
 5418              		.loc 1 372 1 is_stmt 0 view .LVU1329
 5419              		@ sp needed
 371:quantum/rgblight.c **** }
 5420              		.loc 1 371 5 view .LVU1330
 5421 0028 FFF7FEFF 		bl	rgblight_set
 5422              	.LVL340:
 372:quantum/rgblight.c **** 
 5423              		.loc 1 372 1 view .LVU1331
 5424 002c 10BD     		pop	{r4, pc}
 5425              	.L419:
 5426 002e C046     		.align	2
 5427              	.L418:
 5428 0030 00000000 		.word	.LANCHOR5
 5429 0034 00000000 		.word	debug_config
 5430 0038 00000000 		.word	.LC159
 5431              		.cfi_endproc
 5432              	.LFE290:
 5434              		.section	.text.rgblight_toggle_noeeprom,"ax",%progbits
 5435              		.align	1
 5436              		.global	rgblight_toggle_noeeprom
 5437              		.syntax unified
 5438              		.code	16
 5439              		.thumb_func
 5440              		.fpu softvfp
 5442              	rgblight_toggle_noeeprom:
 5443              	.LFB286:
 332:quantum/rgblight.c ****     dprintf("rgblight toggle [NOEEPROM]: rgblight_config.enable = %u\n", !rgblight_config.enable);
 5444              		.loc 1 332 37 is_stmt 1 view -0
 5445              		.cfi_startproc
 5446              		@ args = 0, pretend = 0, frame = 0
 5447              		@ frame_needed = 0, uses_anonymous_args = 0
 333:quantum/rgblight.c ****     if (rgblight_config.enable) {
 5448              		.loc 1 333 5 view .LVU1333
 333:quantum/rgblight.c ****     if (rgblight_config.enable) {
 5449              		.loc 1 333 5 view .LVU1334
 5450 0000 0B4B     		ldr	r3, .L427
 332:quantum/rgblight.c ****     dprintf("rgblight toggle [NOEEPROM]: rgblight_config.enable = %u\n", !rgblight_config.enable);
 5451              		.loc 1 332 37 is_stmt 0 view .LVU1335
 5452 0002 10B5     		push	{r4, lr}
 5453              		.cfi_def_cfa_offset 8
 5454              		.cfi_offset 4, -8
 5455              		.cfi_offset 14, -4
 333:quantum/rgblight.c ****     if (rgblight_config.enable) {
 5456              		.loc 1 333 5 view .LVU1336
 5457 0004 1A78     		ldrb	r2, [r3]
 5458 0006 0123     		movs	r3, #1
 5459 0008 0A4C     		ldr	r4, .L427+4
 5460 000a 1A42     		tst	r2, r3
 5461 000c 06D0     		beq	.L421
 333:quantum/rgblight.c ****     if (rgblight_config.enable) {
 5462              		.loc 1 333 5 is_stmt 1 discriminator 1 view .LVU1337
 5463 000e 2178     		ldrb	r1, [r4]
 5464 0010 0948     		ldr	r0, .L427+8
 5465 0012 C907     		lsls	r1, r1, #31
 5466 0014 C90F     		lsrs	r1, r1, #31
 5467 0016 5940     		eors	r1, r3
 5468 0018 FFF7FEFF 		bl	tfp_printf
 5469              	.LVL341:
 5470              	.L421:
 334:quantum/rgblight.c ****         rgblight_disable_noeeprom();
 5471              		.loc 1 334 5 view .LVU1338
 334:quantum/rgblight.c ****         rgblight_disable_noeeprom();
 5472              		.loc 1 334 9 is_stmt 0 view .LVU1339
 5473 001c 2378     		ldrb	r3, [r4]
 334:quantum/rgblight.c ****         rgblight_disable_noeeprom();
 5474              		.loc 1 334 8 view .LVU1340
 5475 001e DB07     		lsls	r3, r3, #31
 5476 0020 02D5     		bpl	.L422
 335:quantum/rgblight.c ****     } else {
 5477              		.loc 1 335 9 is_stmt 1 view .LVU1341
 5478 0022 FFF7FEFF 		bl	rgblight_disable_noeeprom
 5479              	.LVL342:
 5480              	.L420:
 339:quantum/rgblight.c **** 
 5481              		.loc 1 339 1 is_stmt 0 view .LVU1342
 5482              		@ sp needed
 5483 0026 10BD     		pop	{r4, pc}
 5484              	.L422:
 337:quantum/rgblight.c ****     }
 5485              		.loc 1 337 9 is_stmt 1 view .LVU1343
 5486 0028 FFF7FEFF 		bl	rgblight_enable_noeeprom
 5487              	.LVL343:
 339:quantum/rgblight.c **** 
 5488              		.loc 1 339 1 is_stmt 0 view .LVU1344
 5489 002c FBE7     		b	.L420
 5490              	.L428:
 5491 002e C046     		.align	2
 5492              	.L427:
 5493 0030 00000000 		.word	debug_config
 5494 0034 00000000 		.word	.LANCHOR5
 5495 0038 00000000 		.word	.LC163
 5496              		.cfi_endproc
 5497              	.LFE286:
 5499              		.section	.text.rgblight_timer_toggle,"ax",%progbits
 5500              		.align	1
 5501              		.global	rgblight_timer_toggle
 5502              		.syntax unified
 5503              		.code	16
 5504              		.thumb_func
 5505              		.fpu softvfp
 5507              	rgblight_timer_toggle:
 5508              	.LFB336:
 793:quantum/rgblight.c ****     dprintf("rgblight timer toggle.\n");
 5509              		.loc 1 793 34 is_stmt 1 view -0
 5510              		.cfi_startproc
 5511              		@ args = 0, pretend = 0, frame = 0
 5512              		@ frame_needed = 0, uses_anonymous_args = 0
 794:quantum/rgblight.c ****     if (rgblight_status.timer_enabled) {
 5513              		.loc 1 794 5 view .LVU1346
 794:quantum/rgblight.c ****     if (rgblight_status.timer_enabled) {
 5514              		.loc 1 794 5 view .LVU1347
 5515 0000 084B     		ldr	r3, .L436
 793:quantum/rgblight.c ****     dprintf("rgblight timer toggle.\n");
 5516              		.loc 1 793 34 is_stmt 0 view .LVU1348
 5517 0002 10B5     		push	{r4, lr}
 5518              		.cfi_def_cfa_offset 8
 5519              		.cfi_offset 4, -8
 5520              		.cfi_offset 14, -4
 794:quantum/rgblight.c ****     if (rgblight_status.timer_enabled) {
 5521              		.loc 1 794 5 view .LVU1349
 5522 0004 1B78     		ldrb	r3, [r3]
 5523 0006 DB07     		lsls	r3, r3, #31
 5524 0008 02D5     		bpl	.L430
 794:quantum/rgblight.c ****     if (rgblight_status.timer_enabled) {
 5525              		.loc 1 794 5 is_stmt 1 discriminator 1 view .LVU1350
 5526 000a 0748     		ldr	r0, .L436+4
 5527 000c FFF7FEFF 		bl	tfp_printf
 5528              	.LVL344:
 5529              	.L430:
 795:quantum/rgblight.c ****         rgblight_timer_disable();
 5530              		.loc 1 795 5 view .LVU1351
 795:quantum/rgblight.c ****         rgblight_timer_disable();
 5531              		.loc 1 795 24 is_stmt 0 view .LVU1352
 5532 0010 064B     		ldr	r3, .L436+8
 795:quantum/rgblight.c ****         rgblight_timer_disable();
 5533              		.loc 1 795 8 view .LVU1353
 5534 0012 5B78     		ldrb	r3, [r3, #1]
 5535 0014 002B     		cmp	r3, #0
 5536 0016 02D0     		beq	.L431
 796:quantum/rgblight.c ****     } else {
 5537              		.loc 1 796 9 is_stmt 1 view .LVU1354
 5538 0018 FFF7FEFF 		bl	rgblight_timer_disable
 5539              	.LVL345:
 5540              	.L429:
 800:quantum/rgblight.c **** 
 5541              		.loc 1 800 1 is_stmt 0 view .LVU1355
 5542              		@ sp needed
 5543 001c 10BD     		pop	{r4, pc}
 5544              	.L431:
 798:quantum/rgblight.c ****     }
 5545              		.loc 1 798 9 is_stmt 1 view .LVU1356
 5546 001e FFF7FEFF 		bl	rgblight_timer_enable
 5547              	.LVL346:
 800:quantum/rgblight.c **** 
 5548              		.loc 1 800 1 is_stmt 0 view .LVU1357
 5549 0022 FBE7     		b	.L429
 5550              	.L437:
 5551              		.align	2
 5552              	.L436:
 5553 0024 00000000 		.word	debug_config
 5554 0028 00000000 		.word	.LC166
 5555 002c 00000000 		.word	.LANCHOR9
 5556              		.cfi_endproc
 5557              	.LFE336:
 5559              		.section	.text.rgblight_show_solid_color,"ax",%progbits
 5560              		.align	1
 5561              		.global	rgblight_show_solid_color
 5562              		.syntax unified
 5563              		.code	16
 5564              		.thumb_func
 5565              		.fpu softvfp
 5567              	rgblight_show_solid_color:
 5568              	.LVL347:
 5569              	.LFB337:
 802:quantum/rgblight.c ****     rgblight_enable();
 5570              		.loc 1 802 65 is_stmt 1 view -0
 5571              		.cfi_startproc
 5572              		@ args = 0, pretend = 0, frame = 0
 5573              		@ frame_needed = 0, uses_anonymous_args = 0
 803:quantum/rgblight.c ****     rgblight_mode(RGBLIGHT_MODE_STATIC_LIGHT);
 5574              		.loc 1 803 5 view .LVU1359
 802:quantum/rgblight.c ****     rgblight_enable();
 5575              		.loc 1 802 65 is_stmt 0 view .LVU1360
 5576 0000 70B5     		push	{r4, r5, r6, lr}
 5577              		.cfi_def_cfa_offset 16
 5578              		.cfi_offset 4, -16
 5579              		.cfi_offset 5, -12
 5580              		.cfi_offset 6, -8
 5581              		.cfi_offset 14, -4
 802:quantum/rgblight.c ****     rgblight_enable();
 5582              		.loc 1 802 65 view .LVU1361
 5583 0002 0D00     		movs	r5, r1
 5584 0004 1600     		movs	r6, r2
 5585 0006 0400     		movs	r4, r0
 803:quantum/rgblight.c ****     rgblight_mode(RGBLIGHT_MODE_STATIC_LIGHT);
 5586              		.loc 1 803 5 view .LVU1362
 5587 0008 FFF7FEFF 		bl	rgblight_enable
 5588              	.LVL348:
 804:quantum/rgblight.c ****     rgblight_setrgb(r, g, b);
 5589              		.loc 1 804 5 is_stmt 1 view .LVU1363
 5590 000c 0120     		movs	r0, #1
 5591 000e FFF7FEFF 		bl	rgblight_mode
 5592              	.LVL349:
 805:quantum/rgblight.c **** }
 5593              		.loc 1 805 5 view .LVU1364
 5594 0012 3200     		movs	r2, r6
 5595 0014 2900     		movs	r1, r5
 5596 0016 2000     		movs	r0, r4
 5597 0018 FFF7FEFF 		bl	rgblight_setrgb
 5598              	.LVL350:
 806:quantum/rgblight.c **** 
 5599              		.loc 1 806 1 is_stmt 0 view .LVU1365
 5600              		@ sp needed
 5601 001c 70BD     		pop	{r4, r5, r6, pc}
 5602              		.cfi_endproc
 5603              	.LFE337:
 5605              		.section	.text.rgblight_task,"ax",%progbits
 5606              		.align	1
 5607              		.global	rgblight_task
 5608              		.syntax unified
 5609              		.code	16
 5610              		.thumb_func
 5611              		.fpu softvfp
 5613              	rgblight_task:
 5614              	.LFB339:
 820:quantum/rgblight.c ****     if (rgblight_status.timer_enabled) {
 5615              		.loc 1 820 26 is_stmt 1 view -0
 5616              		.cfi_startproc
 5617              		@ args = 0, pretend = 0, frame = 0
 5618              		@ frame_needed = 0, uses_anonymous_args = 0
 821:quantum/rgblight.c ****         effect_func_t effect_func   = rgblight_effect_dummy;
 5619              		.loc 1 821 5 view .LVU1367
 820:quantum/rgblight.c ****     if (rgblight_status.timer_enabled) {
 5620              		.loc 1 820 26 is_stmt 0 view .LVU1368
 5621 0000 F8B5     		push	{r3, r4, r5, r6, r7, lr}
 5622              		.cfi_def_cfa_offset 24
 5623              		.cfi_offset 3, -24
 5624              		.cfi_offset 4, -20
 5625              		.cfi_offset 5, -16
 5626              		.cfi_offset 6, -12
 5627              		.cfi_offset 7, -8
 5628              		.cfi_offset 14, -4
 821:quantum/rgblight.c ****         effect_func_t effect_func   = rgblight_effect_dummy;
 5629              		.loc 1 821 24 view .LVU1369
 5630 0002 2B4B     		ldr	r3, .L456
 821:quantum/rgblight.c ****         effect_func_t effect_func   = rgblight_effect_dummy;
 5631              		.loc 1 821 8 view .LVU1370
 5632 0004 5A78     		ldrb	r2, [r3, #1]
 5633 0006 002A     		cmp	r2, #0
 5634 0008 21D0     		beq	.L439
 5635              	.LBB228:
 822:quantum/rgblight.c ****         uint16_t      interval_time = 2000;  // dummy interval
 5636              		.loc 1 822 9 is_stmt 1 view .LVU1371
 823:quantum/rgblight.c ****         uint8_t       delta         = rgblight_config.mode - rgblight_status.base_mode;
 5637              		.loc 1 823 9 view .LVU1372
 5638              	.LVL351:
 824:quantum/rgblight.c ****         animation_status.delta      = delta;
 5639              		.loc 1 824 9 view .LVU1373
 824:quantum/rgblight.c ****         animation_status.delta      = delta;
 5640              		.loc 1 824 77 is_stmt 0 view .LVU1374
 5641 000a 1A78     		ldrb	r2, [r3]
 824:quantum/rgblight.c ****         animation_status.delta      = delta;
 5642              		.loc 1 824 54 view .LVU1375
 5643 000c 294B     		ldr	r3, .L456+4
 825:quantum/rgblight.c **** 
 5644              		.loc 1 825 37 view .LVU1376
 5645 000e 2A4C     		ldr	r4, .L456+8
 824:quantum/rgblight.c ****         animation_status.delta      = delta;
 5646              		.loc 1 824 54 view .LVU1377
 5647 0010 1B78     		ldrb	r3, [r3]
 5648 0012 5B08     		lsrs	r3, r3, #1
 824:quantum/rgblight.c ****         animation_status.delta      = delta;
 5649              		.loc 1 824 23 view .LVU1378
 5650 0014 9B1A     		subs	r3, r3, r2
 5651 0016 DBB2     		uxtb	r3, r3
 5652              	.LVL352:
 825:quantum/rgblight.c **** 
 5653              		.loc 1 825 9 is_stmt 1 view .LVU1379
 825:quantum/rgblight.c **** 
 5654              		.loc 1 825 37 is_stmt 0 view .LVU1380
 5655 0018 A370     		strb	r3, [r4, #2]
 828:quantum/rgblight.c ****         }
 5656              		.loc 1 828 9 is_stmt 1 view .LVU1381
 831:quantum/rgblight.c ****             // breathing mode
 5657              		.loc 1 831 14 view .LVU1382
 831:quantum/rgblight.c ****             // breathing mode
 5658              		.loc 1 831 17 is_stmt 0 view .LVU1383
 5659 001a 022A     		cmp	r2, #2
 5660 001c 18D1     		bne	.L442
 833:quantum/rgblight.c ****             effect_func   = rgblight_effect_breathing;
 5661              		.loc 1 833 13 is_stmt 1 view .LVU1384
 5662              	.LVL353:
 833:quantum/rgblight.c ****             effect_func   = rgblight_effect_breathing;
 5663              		.loc 1 833 13 is_stmt 0 view .LVU1385
 5664              	.LBE228:
 571:quantum/rgblight.c **** #    ifdef VELOCIKEY_ENABLE
 5665              		.loc 1 571 5 is_stmt 1 view .LVU1386
 5666              	.LBB229:
 833:quantum/rgblight.c ****             effect_func   = rgblight_effect_breathing;
 5667              		.loc 1 833 27 is_stmt 0 view .LVU1387
 5668 001e 274A     		ldr	r2, .L456+12
 834:quantum/rgblight.c ****         }
 5669              		.loc 1 834 27 view .LVU1388
 5670 0020 274E     		ldr	r6, .L456+16
 833:quantum/rgblight.c ****             effect_func   = rgblight_effect_breathing;
 5671              		.loc 1 833 27 view .LVU1389
 5672 0022 D55C     		ldrb	r5, [r2, r3]
 5673              	.LVL354:
 834:quantum/rgblight.c ****         }
 5674              		.loc 1 834 13 is_stmt 1 view .LVU1390
 5675              	.L443:
 885:quantum/rgblight.c ****             animation_status.restart    = false;
 5676              		.loc 1 885 9 view .LVU1391
 885:quantum/rgblight.c ****             animation_status.restart    = false;
 5677              		.loc 1 885 12 is_stmt 0 view .LVU1392
 5678 0024 E378     		ldrb	r3, [r4, #3]
 5679 0026 002B     		cmp	r3, #0
 5680 0028 07D0     		beq	.L449
 886:quantum/rgblight.c ****             animation_status.last_timer = timer_read() - interval_time - 1;
 5681              		.loc 1 886 13 is_stmt 1 view .LVU1393
 886:quantum/rgblight.c ****             animation_status.last_timer = timer_read() - interval_time - 1;
 5682              		.loc 1 886 41 is_stmt 0 view .LVU1394
 5683 002a 0027     		movs	r7, #0
 5684 002c E770     		strb	r7, [r4, #3]
 887:quantum/rgblight.c ****             animation_status.pos16      = 0;  // restart signal to local each effect
 5685              		.loc 1 887 13 is_stmt 1 view .LVU1395
 887:quantum/rgblight.c ****             animation_status.pos16      = 0;  // restart signal to local each effect
 5686              		.loc 1 887 43 is_stmt 0 view .LVU1396
 5687 002e FFF7FEFF 		bl	timer_read
 5688              	.LVL355:
 887:quantum/rgblight.c ****             animation_status.pos16      = 0;  // restart signal to local each effect
 5689              		.loc 1 887 72 view .LVU1397
 5690 0032 EB43     		mvns	r3, r5
 5691 0034 C018     		adds	r0, r0, r3
 887:quantum/rgblight.c ****             animation_status.pos16      = 0;  // restart signal to local each effect
 5692              		.loc 1 887 41 view .LVU1398
 5693 0036 2080     		strh	r0, [r4]
 888:quantum/rgblight.c ****         }
 5694              		.loc 1 888 13 is_stmt 1 view .LVU1399
 888:quantum/rgblight.c ****         }
 5695              		.loc 1 888 41 is_stmt 0 view .LVU1400
 5696 0038 A780     		strh	r7, [r4, #4]
 5697              	.L449:
 890:quantum/rgblight.c **** #    if defined(RGBLIGHT_SPLIT) && !defined(RGBLIGHT_SPLIT_NO_ANIMATION_SYNC)
 5698              		.loc 1 890 9 is_stmt 1 view .LVU1401
 890:quantum/rgblight.c **** #    if defined(RGBLIGHT_SPLIT) && !defined(RGBLIGHT_SPLIT_NO_ANIMATION_SYNC)
 5699              		.loc 1 890 13 is_stmt 0 view .LVU1402
 5700 003a 2088     		ldrh	r0, [r4]
 5701 003c FFF7FEFF 		bl	timer_elapsed
 5702              	.LVL356:
 890:quantum/rgblight.c **** #    if defined(RGBLIGHT_SPLIT) && !defined(RGBLIGHT_SPLIT_NO_ANIMATION_SYNC)
 5703              		.loc 1 890 12 view .LVU1403
 5704 0040 A842     		cmp	r0, r5
 5705 0042 04D3     		bcc	.L439
 905:quantum/rgblight.c ****             effect_func(&animation_status);
 5706              		.loc 1 905 13 is_stmt 1 view .LVU1404
 905:quantum/rgblight.c ****             effect_func(&animation_status);
 5707              		.loc 1 905 41 is_stmt 0 view .LVU1405
 5708 0044 2388     		ldrh	r3, [r4]
 906:quantum/rgblight.c **** #    if defined(RGBLIGHT_SPLIT) && !defined(RGBLIGHT_SPLIT_NO_ANIMATION_SYNC)
 5709              		.loc 1 906 13 view .LVU1406
 5710 0046 2000     		movs	r0, r4
 905:quantum/rgblight.c ****             effect_func(&animation_status);
 5711              		.loc 1 905 41 view .LVU1407
 5712 0048 ED18     		adds	r5, r5, r3
 5713              	.LVL357:
 905:quantum/rgblight.c ****             effect_func(&animation_status);
 5714              		.loc 1 905 41 view .LVU1408
 5715 004a 2580     		strh	r5, [r4]
 906:quantum/rgblight.c **** #    if defined(RGBLIGHT_SPLIT) && !defined(RGBLIGHT_SPLIT_NO_ANIMATION_SYNC)
 5716              		.loc 1 906 13 is_stmt 1 view .LVU1409
 5717 004c B047     		blx	r6
 5718              	.LVL358:
 5719              	.L439:
 906:quantum/rgblight.c **** #    if defined(RGBLIGHT_SPLIT) && !defined(RGBLIGHT_SPLIT_NO_ANIMATION_SYNC)
 5720              		.loc 1 906 13 is_stmt 0 view .LVU1410
 5721              	.LBE229:
 914:quantum/rgblight.c **** 
 5722              		.loc 1 914 1 view .LVU1411
 5723              		@ sp needed
 5724 004e F8BD     		pop	{r3, r4, r5, r6, r7, pc}
 5725              	.LVL359:
 5726              	.L442:
 5727              	.LBB230:
 838:quantum/rgblight.c ****             // rainbow mood mode
 5728              		.loc 1 838 14 is_stmt 1 view .LVU1412
 838:quantum/rgblight.c ****             // rainbow mood mode
 5729              		.loc 1 838 17 is_stmt 0 view .LVU1413
 5730 0050 062A     		cmp	r2, #6
 5731 0052 03D1     		bne	.L444
 840:quantum/rgblight.c ****             effect_func   = rgblight_effect_rainbow_mood;
 5732              		.loc 1 840 13 is_stmt 1 view .LVU1414
 5733              	.LVL360:
 840:quantum/rgblight.c ****             effect_func   = rgblight_effect_rainbow_mood;
 5734              		.loc 1 840 13 is_stmt 0 view .LVU1415
 5735              	.LBE230:
 571:quantum/rgblight.c **** #    ifdef VELOCIKEY_ENABLE
 5736              		.loc 1 571 5 is_stmt 1 view .LVU1416
 5737              	.LBB231:
 840:quantum/rgblight.c ****             effect_func   = rgblight_effect_rainbow_mood;
 5738              		.loc 1 840 27 is_stmt 0 view .LVU1417
 5739 0054 1B4A     		ldr	r2, .L456+20
 841:quantum/rgblight.c ****         }
 5740              		.loc 1 841 27 view .LVU1418
 5741 0056 1C4E     		ldr	r6, .L456+24
 840:quantum/rgblight.c ****             effect_func   = rgblight_effect_rainbow_mood;
 5742              		.loc 1 840 27 view .LVU1419
 5743 0058 D55C     		ldrb	r5, [r2, r3]
 5744              	.LVL361:
 841:quantum/rgblight.c ****         }
 5745              		.loc 1 841 13 is_stmt 1 view .LVU1420
 5746 005a E3E7     		b	.L443
 5747              	.LVL362:
 5748              	.L444:
 845:quantum/rgblight.c ****             // rainbow swirl mode
 5749              		.loc 1 845 14 view .LVU1421
 845:quantum/rgblight.c ****             // rainbow swirl mode
 5750              		.loc 1 845 17 is_stmt 0 view .LVU1422
 5751 005c 092A     		cmp	r2, #9
 5752 005e 04D1     		bne	.L445
 847:quantum/rgblight.c ****             effect_func   = rgblight_effect_rainbow_swirl;
 5753              		.loc 1 847 13 is_stmt 1 view .LVU1423
 5754              	.LVL363:
 847:quantum/rgblight.c ****             effect_func   = rgblight_effect_rainbow_swirl;
 5755              		.loc 1 847 13 is_stmt 0 view .LVU1424
 5756              	.LBE231:
 571:quantum/rgblight.c **** #    ifdef VELOCIKEY_ENABLE
 5757              		.loc 1 571 5 is_stmt 1 view .LVU1425
 5758              	.LBB232:
 847:quantum/rgblight.c ****             effect_func   = rgblight_effect_rainbow_swirl;
 5759              		.loc 1 847 27 is_stmt 0 view .LVU1426
 5760 0060 1A4A     		ldr	r2, .L456+28
 847:quantum/rgblight.c ****             effect_func   = rgblight_effect_rainbow_swirl;
 5761              		.loc 1 847 85 view .LVU1427
 5762 0062 5B08     		lsrs	r3, r3, #1
 5763              	.LVL364:
 847:quantum/rgblight.c ****             effect_func   = rgblight_effect_rainbow_swirl;
 5764              		.loc 1 847 27 view .LVU1428
 5765 0064 D55C     		ldrb	r5, [r2, r3]
 5766              	.LVL365:
 848:quantum/rgblight.c ****         }
 5767              		.loc 1 848 13 is_stmt 1 view .LVU1429
 848:quantum/rgblight.c ****         }
 5768              		.loc 1 848 27 is_stmt 0 view .LVU1430
 5769 0066 1A4E     		ldr	r6, .L456+32
 5770 0068 DCE7     		b	.L443
 5771              	.LVL366:
 5772              	.L445:
 852:quantum/rgblight.c ****             // snake mode
 5773              		.loc 1 852 14 is_stmt 1 view .LVU1431
 852:quantum/rgblight.c ****             // snake mode
 5774              		.loc 1 852 17 is_stmt 0 view .LVU1432
 5775 006a 0F2A     		cmp	r2, #15
 5776 006c 04D1     		bne	.L446
 854:quantum/rgblight.c ****             effect_func   = rgblight_effect_snake;
 5777              		.loc 1 854 13 is_stmt 1 view .LVU1433
 5778              	.LVL367:
 854:quantum/rgblight.c ****             effect_func   = rgblight_effect_snake;
 5779              		.loc 1 854 13 is_stmt 0 view .LVU1434
 5780              	.LBE232:
 571:quantum/rgblight.c **** #    ifdef VELOCIKEY_ENABLE
 5781              		.loc 1 571 5 is_stmt 1 view .LVU1435
 5782              	.LBB233:
 854:quantum/rgblight.c ****             effect_func   = rgblight_effect_snake;
 5783              		.loc 1 854 27 is_stmt 0 view .LVU1436
 5784 006e 194A     		ldr	r2, .L456+36
 854:quantum/rgblight.c ****             effect_func   = rgblight_effect_snake;
 5785              		.loc 1 854 77 view .LVU1437
 5786 0070 5B08     		lsrs	r3, r3, #1
 5787              	.LVL368:
 854:quantum/rgblight.c ****             effect_func   = rgblight_effect_snake;
 5788              		.loc 1 854 27 view .LVU1438
 5789 0072 D55C     		ldrb	r5, [r2, r3]
 5790              	.LVL369:
 855:quantum/rgblight.c ****         }
 5791              		.loc 1 855 13 is_stmt 1 view .LVU1439
 855:quantum/rgblight.c ****         }
 5792              		.loc 1 855 27 is_stmt 0 view .LVU1440
 5793 0074 184E     		ldr	r6, .L456+40
 5794 0076 D5E7     		b	.L443
 5795              	.LVL370:
 5796              	.L446:
 859:quantum/rgblight.c ****             // knight mode
 5797              		.loc 1 859 14 is_stmt 1 view .LVU1441
 859:quantum/rgblight.c ****             // knight mode
 5798              		.loc 1 859 17 is_stmt 0 view .LVU1442
 5799 0078 152A     		cmp	r2, #21
 5800 007a 03D1     		bne	.L447
 861:quantum/rgblight.c ****             effect_func   = rgblight_effect_knight;
 5801              		.loc 1 861 13 is_stmt 1 view .LVU1443
 5802              	.LVL371:
 861:quantum/rgblight.c ****             effect_func   = rgblight_effect_knight;
 5803              		.loc 1 861 13 is_stmt 0 view .LVU1444
 5804              	.LBE233:
 571:quantum/rgblight.c **** #    ifdef VELOCIKEY_ENABLE
 5805              		.loc 1 571 5 is_stmt 1 view .LVU1445
 5806              	.LBB234:
 861:quantum/rgblight.c ****             effect_func   = rgblight_effect_knight;
 5807              		.loc 1 861 27 is_stmt 0 view .LVU1446
 5808 007c 174A     		ldr	r2, .L456+44
 862:quantum/rgblight.c ****         }
 5809              		.loc 1 862 27 view .LVU1447
 5810 007e 184E     		ldr	r6, .L456+48
 861:quantum/rgblight.c ****             effect_func   = rgblight_effect_knight;
 5811              		.loc 1 861 27 view .LVU1448
 5812 0080 D55C     		ldrb	r5, [r2, r3]
 5813              	.LVL372:
 862:quantum/rgblight.c ****         }
 5814              		.loc 1 862 13 is_stmt 1 view .LVU1449
 5815 0082 CFE7     		b	.L443
 5816              	.LVL373:
 5817              	.L447:
 866:quantum/rgblight.c ****             // christmas mode
 5818              		.loc 1 866 14 view .LVU1450
 866:quantum/rgblight.c ****             // christmas mode
 5819              		.loc 1 866 17 is_stmt 0 view .LVU1451
 5820 0084 182A     		cmp	r2, #24
 5821 0086 0BD0     		beq	.L451
 873:quantum/rgblight.c ****             // RGB test mode
 5822              		.loc 1 873 14 is_stmt 1 view .LVU1452
 873:quantum/rgblight.c ****             // RGB test mode
 5823              		.loc 1 873 17 is_stmt 0 view .LVU1453
 5824 0088 232A     		cmp	r2, #35
 5825 008a 03D1     		bne	.L448
 875:quantum/rgblight.c ****             effect_func   = (effect_func_t)rgblight_effect_rgbtest;
 5826              		.loc 1 875 13 is_stmt 1 view .LVU1454
 875:quantum/rgblight.c ****             effect_func   = (effect_func_t)rgblight_effect_rgbtest;
 5827              		.loc 1 875 27 is_stmt 0 view .LVU1455
 5828 008c 154B     		ldr	r3, .L456+52
 5829              	.LVL374:
 876:quantum/rgblight.c ****         }
 5830              		.loc 1 876 27 view .LVU1456
 5831 008e 164E     		ldr	r6, .L456+56
 875:quantum/rgblight.c ****             effect_func   = (effect_func_t)rgblight_effect_rgbtest;
 5832              		.loc 1 875 27 view .LVU1457
 5833 0090 1D88     		ldrh	r5, [r3]
 5834              	.LVL375:
 876:quantum/rgblight.c ****         }
 5835              		.loc 1 876 13 is_stmt 1 view .LVU1458
 5836 0092 C7E7     		b	.L443
 5837              	.LVL376:
 5838              	.L448:
 880:quantum/rgblight.c ****             interval_time = 500;
 5839              		.loc 1 880 14 view .LVU1459
 881:quantum/rgblight.c ****             effect_func   = (effect_func_t)rgblight_effect_alternating;
 5840              		.loc 1 881 27 is_stmt 0 view .LVU1460
 5841 0094 FA25     		movs	r5, #250
 880:quantum/rgblight.c ****             interval_time = 500;
 5842              		.loc 1 880 17 view .LVU1461
 5843 0096 242A     		cmp	r2, #36
 5844 0098 06D1     		bne	.L452
 881:quantum/rgblight.c ****             effect_func   = (effect_func_t)rgblight_effect_alternating;
 5845              		.loc 1 881 27 view .LVU1462
 5846 009a 6D00     		lsls	r5, r5, #1
 882:quantum/rgblight.c ****         }
 5847              		.loc 1 882 27 view .LVU1463
 5848 009c 134E     		ldr	r6, .L456+60
 5849 009e C1E7     		b	.L443
 5850              	.L451:
 868:quantum/rgblight.c ****             effect_func   = (effect_func_t)rgblight_effect_christmas;
 5851              		.loc 1 868 27 view .LVU1464
 5852 00a0 FA25     		movs	r5, #250
 869:quantum/rgblight.c ****         }
 5853              		.loc 1 869 27 view .LVU1465
 5854 00a2 134E     		ldr	r6, .L456+64
 868:quantum/rgblight.c ****             effect_func   = (effect_func_t)rgblight_effect_christmas;
 5855              		.loc 1 868 27 view .LVU1466
 5856 00a4 AD00     		lsls	r5, r5, #2
 5857 00a6 BDE7     		b	.L443
 5858              	.L452:
 823:quantum/rgblight.c ****         uint8_t       delta         = rgblight_config.mode - rgblight_status.base_mode;
 5859              		.loc 1 823 23 view .LVU1467
 5860 00a8 ED00     		lsls	r5, r5, #3
 822:quantum/rgblight.c ****         uint16_t      interval_time = 2000;  // dummy interval
 5861              		.loc 1 822 23 view .LVU1468
 5862 00aa 124E     		ldr	r6, .L456+68
 5863 00ac BAE7     		b	.L443
 5864              	.L457:
 5865 00ae C046     		.align	2
 5866              	.L456:
 5867 00b0 00000000 		.word	.LANCHOR9
 5868 00b4 00000000 		.word	.LANCHOR5
 5869 00b8 00000000 		.word	.LANCHOR15
 5870 00bc 00000000 		.word	RGBLED_BREATHING_INTERVALS
 5871 00c0 00000000 		.word	rgblight_effect_breathing
 5872 00c4 00000000 		.word	RGBLED_RAINBOW_MOOD_INTERVALS
 5873 00c8 00000000 		.word	rgblight_effect_rainbow_mood
 5874 00cc 00000000 		.word	RGBLED_RAINBOW_SWIRL_INTERVALS
 5875 00d0 00000000 		.word	rgblight_effect_rainbow_swirl
 5876 00d4 00000000 		.word	RGBLED_SNAKE_INTERVALS
 5877 00d8 00000000 		.word	rgblight_effect_snake
 5878 00dc 00000000 		.word	RGBLED_KNIGHT_INTERVALS
 5879 00e0 00000000 		.word	rgblight_effect_knight
 5880 00e4 00000000 		.word	RGBLED_RGBTEST_INTERVALS
 5881 00e8 00000000 		.word	rgblight_effect_rgbtest
 5882 00ec 00000000 		.word	rgblight_effect_alternating
 5883 00f0 00000000 		.word	rgblight_effect_christmas
 5884 00f4 00000000 		.word	rgblight_effect_dummy
 5885              	.LBE234:
 5886              		.cfi_endproc
 5887              	.LFE339:
 5889              		.weak	RGBLED_RGBTEST_INTERVALS
 5890              		.weak	RGBLED_KNIGHT_INTERVALS
 5891              		.weak	RGBLED_SNAKE_INTERVALS
 5892              		.weak	RGBLED_RAINBOW_SWIRL_INTERVALS
 5893              		.weak	RGBLED_RAINBOW_MOOD_INTERVALS
 5894              		.weak	RGBLED_BREATHING_INTERVALS
 5895              		.global	rgblight_effect_breathe_table
 5896              		.global	led
 5897              		.global	animation_status
 5898              		.global	is_rgblight_initialized
 5899              		.global	rgblight_status
 5900              		.global	rgblight_config
 5901              		.weak	RGBLED_GRADIENT_RANGES
 5902              		.section	.bss.animation_status,"aw",%nobits
 5903              		.align	1
 5904              		.set	.LANCHOR15,. + 0
 5907              	animation_status:
 5908 0000 00000000 		.space	6
 5908      0000
 5909              		.section	.bss.clipping_start_pos,"aw",%nobits
 5910              		.set	.LANCHOR0,. + 0
 5913              	clipping_start_pos:
 5914 0000 00       		.space	1
 5915              		.section	.bss.effect_start_pos,"aw",%nobits
 5916              		.set	.LANCHOR2,. + 0
 5919              	effect_start_pos:
 5920 0000 00       		.space	1
 5921              		.section	.bss.is_rgblight_initialized,"aw",%nobits
 5922              		.set	.LANCHOR16,. + 0
 5925              	is_rgblight_initialized:
 5926 0000 00       		.space	1
 5927              		.section	.bss.led,"aw",%nobits
 5928              		.set	.LANCHOR6,. + 0
 5931              	led:
 5932 0000 00000000 		.space	42
 5932      00000000 
 5932      00000000 
 5932      00000000 
 5932      00000000 
 5933              		.section	.bss.low_bound.9564,"aw",%nobits
 5934              		.set	.LANCHOR11,. + 0
 5937              	low_bound.9564:
 5938 0000 00       		.space	1
 5939              		.section	.bss.maxval.9587,"aw",%nobits
 5940              		.set	.LANCHOR7,. + 0
 5943              	maxval.9587:
 5944 0000 00       		.space	1
 5945              		.section	.bss.pos.9548,"aw",%nobits
 5946              		.set	.LANCHOR10,. + 0
 5949              	pos.9548:
 5950 0000 00       		.space	1
 5951              		.section	.bss.rgblight_config,"aw",%nobits
 5952              		.align	2
 5953              		.set	.LANCHOR5,. + 0
 5956              	rgblight_config:
 5957 0000 00000000 		.space	8
 5957      00000000 
 5958              		.section	.bss.rgblight_status,"aw",%nobits
 5959              		.set	.LANCHOR9,. + 0
 5962              	rgblight_status:
 5963 0000 0000     		.space	2
 5964              		.section	.data.clipping_num_leds,"aw"
 5965              		.set	.LANCHOR1,. + 0
 5968              	clipping_num_leds:
 5969 0000 0E       		.byte	14
 5970              		.section	.data.effect_end_pos,"aw"
 5971              		.set	.LANCHOR3,. + 0
 5974              	effect_end_pos:
 5975 0000 0E       		.byte	14
 5976              		.section	.data.effect_num_leds,"aw"
 5977              		.set	.LANCHOR4,. + 0
 5980              	effect_num_leds:
 5981 0000 0E       		.byte	14
 5982              		.section	.data.high_bound.9565,"aw"
 5983              		.set	.LANCHOR12,. + 0
 5986              	high_bound.9565:
 5987 0000 02       		.byte	2
 5988              		.section	.data.increment.9566,"aw"
 5989              		.set	.LANCHOR13,. + 0
 5992              	increment.9566:
 5993 0000 01       		.byte	1
 5994              		.section	.data.static_effect_table,"aw"
 5995              		.set	.LANCHOR14,. + 0
 5998              	static_effect_table:
 5999 0000 01       		.byte	1
 6000 0001 19       		.byte	25
 6001 0002 1A       		.byte	26
 6002 0003 1B       		.byte	27
 6003 0004 1C       		.byte	28
 6004 0005 1D       		.byte	29
 6005 0006 1E       		.byte	30
 6006 0007 1F       		.byte	31
 6007 0008 20       		.byte	32
 6008 0009 21       		.byte	33
 6009 000a 22       		.byte	34
 6010              		.section	.rodata.RGBLED_BREATHING_INTERVALS,"a"
 6013              	RGBLED_BREATHING_INTERVALS:
 6014 0000 1E       		.byte	30
 6015 0001 14       		.byte	20
 6016 0002 0A       		.byte	10
 6017 0003 05       		.byte	5
 6018              		.section	.rodata.RGBLED_GRADIENT_RANGES,"a"
 6021              	RGBLED_GRADIENT_RANGES:
 6022 0000 FF       		.byte	-1
 6023 0001 AA       		.byte	-86
 6024 0002 7F       		.byte	127
 6025 0003 55       		.byte	85
 6026 0004 40       		.byte	64
 6027              		.section	.rodata.RGBLED_KNIGHT_INTERVALS,"a"
 6030              	RGBLED_KNIGHT_INTERVALS:
 6031 0000 7F       		.byte	127
 6032 0001 3F       		.byte	63
 6033 0002 1F       		.byte	31
 6034              		.section	.rodata.RGBLED_RAINBOW_MOOD_INTERVALS,"a"
 6037              	RGBLED_RAINBOW_MOOD_INTERVALS:
 6038 0000 78       		.byte	120
 6039 0001 3C       		.byte	60
 6040 0002 1E       		.byte	30
 6041              		.section	.rodata.RGBLED_RAINBOW_SWIRL_INTERVALS,"a"
 6044              	RGBLED_RAINBOW_SWIRL_INTERVALS:
 6045 0000 64       		.byte	100
 6046 0001 32       		.byte	50
 6047 0002 14       		.byte	20
 6048              		.section	.rodata.RGBLED_RGBTEST_INTERVALS,"a"
 6049              		.align	1
 6052              	RGBLED_RGBTEST_INTERVALS:
 6053 0000 0004     		.short	1024
 6054              		.section	.rodata.RGBLED_SNAKE_INTERVALS,"a"
 6057              	RGBLED_SNAKE_INTERVALS:
 6058 0000 64       		.byte	100
 6059 0001 32       		.byte	50
 6060 0002 14       		.byte	20
 6061              		.section	.rodata.eeconfig_debug_rgblight.str1.1,"aMS",%progbits,1
 6062              	.LC9:
 6063 0000 7267626C 		.ascii	"rgblight_config EEPROM:\012\000"
 6063      69676874 
 6063      5F636F6E 
 6063      66696720 
 6063      45455052 
 6064              	.LC12:
 6065 0019 7267626C 		.ascii	"rgblight_config.enable = %d\012\000"
 6065      69676874 
 6065      5F636F6E 
 6065      6669672E 
 6065      656E6162 
 6066              	.LC14:
 6067 0036 7267686C 		.ascii	"rghlight_config.mode = %d\012\000"
 6067      69676874 
 6067      5F636F6E 
 6067      6669672E 
 6067      6D6F6465 
 6068              	.LC16:
 6069 0051 7267626C 		.ascii	"rgblight_config.hue = %d\012\000"
 6069      69676874 
 6069      5F636F6E 
 6069      6669672E 
 6069      68756520 
 6070              	.LC18:
 6071 006b 7267626C 		.ascii	"rgblight_config.sat = %d\012\000"
 6071      69676874 
 6071      5F636F6E 
 6071      6669672E 
 6071      73617420 
 6072              	.LC20:
 6073 0085 7267626C 		.ascii	"rgblight_config.val = %d\012\000"
 6073      69676874 
 6073      5F636F6E 
 6073      6669672E 
 6073      76616C20 
 6074              	.LC22:
 6075 009f 7267626C 		.ascii	"rgblight_config.speed = %d\012\000"
 6075      69676874 
 6075      5F636F6E 
 6075      6669672E 
 6075      73706565 
 6076              		.section	.rodata.mode_base_table,"a"
 6077              		.set	.LANCHOR8,. + 0
 6080              	mode_base_table:
 6081 0000 00       		.byte	0
 6082 0001 01       		.byte	1
 6083 0002 02       		.byte	2
 6084 0003 02       		.byte	2
 6085 0004 02       		.byte	2
 6086 0005 02       		.byte	2
 6087 0006 06       		.byte	6
 6088 0007 06       		.byte	6
 6089 0008 06       		.byte	6
 6090 0009 09       		.byte	9
 6091 000a 09       		.byte	9
 6092 000b 09       		.byte	9
 6093 000c 09       		.byte	9
 6094 000d 09       		.byte	9
 6095 000e 09       		.byte	9
 6096 000f 0F       		.byte	15
 6097 0010 0F       		.byte	15
 6098 0011 0F       		.byte	15
 6099 0012 0F       		.byte	15
 6100 0013 0F       		.byte	15
 6101 0014 0F       		.byte	15
 6102 0015 15       		.byte	21
 6103 0016 15       		.byte	21
 6104 0017 15       		.byte	21
 6105 0018 18       		.byte	24
 6106 0019 19       		.byte	25
 6107 001a 19       		.byte	25
 6108 001b 19       		.byte	25
 6109 001c 19       		.byte	25
 6110 001d 19       		.byte	25
 6111 001e 19       		.byte	25
 6112 001f 19       		.byte	25
 6113 0020 19       		.byte	25
 6114 0021 19       		.byte	25
 6115 0022 19       		.byte	25
 6116 0023 23       		.byte	35
 6117 0024 24       		.byte	36
 6118              		.section	.rodata.rgblight_disable.str1.1,"aMS",%progbits,1
 6119              	.LC151:
 6120 0000 7267626C 		.ascii	"rgblight disable [EEPROM]: rgblight_config.enable ="
 6120      69676874 
 6120      20646973 
 6120      61626C65 
 6120      205B4545 
 6121 0033 2025750A 		.ascii	" %u\012\000"
 6121      00
 6122              		.section	.rodata.rgblight_disable_noeeprom.str1.1,"aMS",%progbits,1
 6123              	.LC159:
 6124 0000 7267626C 		.ascii	"rgblight disable [NOEEPROM]: rgblight_config.enable"
 6124      69676874 
 6124      20646973 
 6124      61626C65 
 6124      205B4E4F 
 6125 0033 203D2025 		.ascii	" = %u\012\000"
 6125      750A00
 6126              		.section	.rodata.rgblight_effect_breathe_table,"a"
 6129              	rgblight_effect_breathe_table:
 6130 0000 22       		.byte	34
 6131 0001 23       		.byte	35
 6132 0002 25       		.byte	37
 6133 0003 26       		.byte	38
 6134 0004 28       		.byte	40
 6135 0005 29       		.byte	41
 6136 0006 2A       		.byte	42
 6137 0007 2C       		.byte	44
 6138 0008 2D       		.byte	45
 6139 0009 2F       		.byte	47
 6140 000a 30       		.byte	48
 6141 000b 32       		.byte	50
 6142 000c 33       		.byte	51
 6143 000d 35       		.byte	53
 6144 000e 36       		.byte	54
 6145 000f 38       		.byte	56
 6146 0010 3A       		.byte	58
 6147 0011 3B       		.byte	59
 6148 0012 3D       		.byte	61
 6149 0013 3E       		.byte	62
 6150 0014 40       		.byte	64
 6151 0015 42       		.byte	66
 6152 0016 43       		.byte	67
 6153 0017 45       		.byte	69
 6154 0018 47       		.byte	71
 6155 0019 49       		.byte	73
 6156 001a 4A       		.byte	74
 6157 001b 4C       		.byte	76
 6158 001c 4E       		.byte	78
 6159 001d 50       		.byte	80
 6160 001e 51       		.byte	81
 6161 001f 53       		.byte	83
 6162 0020 55       		.byte	85
 6163 0021 57       		.byte	87
 6164 0022 59       		.byte	89
 6165 0023 5A       		.byte	90
 6166 0024 5C       		.byte	92
 6167 0025 5E       		.byte	94
 6168 0026 60       		.byte	96
 6169 0027 62       		.byte	98
 6170 0028 64       		.byte	100
 6171 0029 66       		.byte	102
 6172 002a 68       		.byte	104
 6173 002b 69       		.byte	105
 6174 002c 6B       		.byte	107
 6175 002d 6D       		.byte	109
 6176 002e 6F       		.byte	111
 6177 002f 71       		.byte	113
 6178 0030 73       		.byte	115
 6179 0031 75       		.byte	117
 6180 0032 77       		.byte	119
 6181 0033 79       		.byte	121
 6182 0034 7B       		.byte	123
 6183 0035 7D       		.byte	125
 6184 0036 7F       		.byte	127
 6185 0037 81       		.byte	-127
 6186 0038 83       		.byte	-125
 6187 0039 85       		.byte	-123
 6188 003a 87       		.byte	-121
 6189 003b 89       		.byte	-119
 6190 003c 8A       		.byte	-118
 6191 003d 8C       		.byte	-116
 6192 003e 8E       		.byte	-114
 6193 003f 90       		.byte	-112
 6194 0040 92       		.byte	-110
 6195 0041 94       		.byte	-108
 6196 0042 96       		.byte	-106
 6197 0043 98       		.byte	-104
 6198 0044 9A       		.byte	-102
 6199 0045 9C       		.byte	-100
 6200 0046 9E       		.byte	-98
 6201 0047 9F       		.byte	-97
 6202 0048 A1       		.byte	-95
 6203 0049 A3       		.byte	-93
 6204 004a A5       		.byte	-91
 6205 004b A7       		.byte	-89
 6206 004c A8       		.byte	-88
 6207 004d AA       		.byte	-86
 6208 004e AC       		.byte	-84
 6209 004f AE       		.byte	-82
 6210 0050 AF       		.byte	-81
 6211 0051 B1       		.byte	-79
 6212 0052 B3       		.byte	-77
 6213 0053 B4       		.byte	-76
 6214 0054 B6       		.byte	-74
 6215 0055 B8       		.byte	-72
 6216 0056 B9       		.byte	-71
 6217 0057 BB       		.byte	-69
 6218 0058 BC       		.byte	-68
 6219 0059 BE       		.byte	-66
 6220 005a BF       		.byte	-65
 6221 005b C1       		.byte	-63
 6222 005c C2       		.byte	-62
 6223 005d C3       		.byte	-61
 6224 005e C5       		.byte	-59
 6225 005f C6       		.byte	-58
 6226 0060 C7       		.byte	-57
 6227 0061 C9       		.byte	-55
 6228 0062 CA       		.byte	-54
 6229 0063 CB       		.byte	-53
 6230 0064 CC       		.byte	-52
 6231 0065 CD       		.byte	-51
 6232 0066 CE       		.byte	-50
 6233 0067 D0       		.byte	-48
 6234 0068 D1       		.byte	-47
 6235 0069 D2       		.byte	-46
 6236 006a D2       		.byte	-46
 6237 006b D3       		.byte	-45
 6238 006c D4       		.byte	-44
 6239 006d D5       		.byte	-43
 6240 006e D6       		.byte	-42
 6241 006f D7       		.byte	-41
 6242 0070 D7       		.byte	-41
 6243 0071 D8       		.byte	-40
 6244 0072 D9       		.byte	-39
 6245 0073 D9       		.byte	-39
 6246 0074 DA       		.byte	-38
 6247 0075 DA       		.byte	-38
 6248 0076 DB       		.byte	-37
 6249 0077 DB       		.byte	-37
 6250 0078 DB       		.byte	-37
 6251 0079 DC       		.byte	-36
 6252 007a DC       		.byte	-36
 6253 007b DC       		.byte	-36
 6254 007c DC       		.byte	-36
 6255 007d DC       		.byte	-36
 6256 007e DD       		.byte	-35
 6257 007f DD       		.byte	-35
 6258 0080 DD       		.byte	-35
 6259 0081 DD       		.byte	-35
 6260 0082 DC       		.byte	-36
 6261 0083 DC       		.byte	-36
 6262 0084 DC       		.byte	-36
 6263 0085 DC       		.byte	-36
 6264 0086 DC       		.byte	-36
 6265 0087 DB       		.byte	-37
 6266 0088 DB       		.byte	-37
 6267 0089 DB       		.byte	-37
 6268 008a DA       		.byte	-38
 6269 008b DA       		.byte	-38
 6270 008c D9       		.byte	-39
 6271 008d D9       		.byte	-39
 6272 008e D8       		.byte	-40
 6273 008f D7       		.byte	-41
 6274 0090 D7       		.byte	-41
 6275 0091 D6       		.byte	-42
 6276 0092 D5       		.byte	-43
 6277 0093 D4       		.byte	-44
 6278 0094 D3       		.byte	-45
 6279 0095 D2       		.byte	-46
 6280 0096 D2       		.byte	-46
 6281 0097 D1       		.byte	-47
 6282 0098 D0       		.byte	-48
 6283 0099 CE       		.byte	-50
 6284 009a CD       		.byte	-51
 6285 009b CC       		.byte	-52
 6286 009c CB       		.byte	-53
 6287 009d CA       		.byte	-54
 6288 009e C9       		.byte	-55
 6289 009f C7       		.byte	-57
 6290 00a0 C6       		.byte	-58
 6291 00a1 C5       		.byte	-59
 6292 00a2 C3       		.byte	-61
 6293 00a3 C2       		.byte	-62
 6294 00a4 C1       		.byte	-63
 6295 00a5 BF       		.byte	-65
 6296 00a6 BE       		.byte	-66
 6297 00a7 BC       		.byte	-68
 6298 00a8 BB       		.byte	-69
 6299 00a9 B9       		.byte	-71
 6300 00aa B8       		.byte	-72
 6301 00ab B6       		.byte	-74
 6302 00ac B4       		.byte	-76
 6303 00ad B3       		.byte	-77
 6304 00ae B1       		.byte	-79
 6305 00af AF       		.byte	-81
 6306 00b0 AE       		.byte	-82
 6307 00b1 AC       		.byte	-84
 6308 00b2 AA       		.byte	-86
 6309 00b3 A8       		.byte	-88
 6310 00b4 A7       		.byte	-89
 6311 00b5 A5       		.byte	-91
 6312 00b6 A3       		.byte	-93
 6313 00b7 A1       		.byte	-95
 6314 00b8 9F       		.byte	-97
 6315 00b9 9E       		.byte	-98
 6316 00ba 9C       		.byte	-100
 6317 00bb 9A       		.byte	-102
 6318 00bc 98       		.byte	-104
 6319 00bd 96       		.byte	-106
 6320 00be 94       		.byte	-108
 6321 00bf 92       		.byte	-110
 6322 00c0 90       		.byte	-112
 6323 00c1 8E       		.byte	-114
 6324 00c2 8C       		.byte	-116
 6325 00c3 8A       		.byte	-118
 6326 00c4 89       		.byte	-119
 6327 00c5 87       		.byte	-121
 6328 00c6 85       		.byte	-123
 6329 00c7 83       		.byte	-125
 6330 00c8 81       		.byte	-127
 6331 00c9 7F       		.byte	127
 6332 00ca 7D       		.byte	125
 6333 00cb 7B       		.byte	123
 6334 00cc 79       		.byte	121
 6335 00cd 77       		.byte	119
 6336 00ce 75       		.byte	117
 6337 00cf 73       		.byte	115
 6338 00d0 71       		.byte	113
 6339 00d1 6F       		.byte	111
 6340 00d2 6D       		.byte	109
 6341 00d3 6B       		.byte	107
 6342 00d4 69       		.byte	105
 6343 00d5 68       		.byte	104
 6344 00d6 66       		.byte	102
 6345 00d7 64       		.byte	100
 6346 00d8 62       		.byte	98
 6347 00d9 60       		.byte	96
 6348 00da 5E       		.byte	94
 6349 00db 5C       		.byte	92
 6350 00dc 5A       		.byte	90
 6351 00dd 59       		.byte	89
 6352 00de 57       		.byte	87
 6353 00df 55       		.byte	85
 6354 00e0 53       		.byte	83
 6355 00e1 51       		.byte	81
 6356 00e2 50       		.byte	80
 6357 00e3 4E       		.byte	78
 6358 00e4 4C       		.byte	76
 6359 00e5 4A       		.byte	74
 6360 00e6 49       		.byte	73
 6361 00e7 47       		.byte	71
 6362 00e8 45       		.byte	69
 6363 00e9 43       		.byte	67
 6364 00ea 42       		.byte	66
 6365 00eb 40       		.byte	64
 6366 00ec 3E       		.byte	62
 6367 00ed 3D       		.byte	61
 6368 00ee 3B       		.byte	59
 6369 00ef 3A       		.byte	58
 6370 00f0 38       		.byte	56
 6371 00f1 36       		.byte	54
 6372 00f2 35       		.byte	53
 6373 00f3 33       		.byte	51
 6374 00f4 32       		.byte	50
 6375 00f5 30       		.byte	48
 6376 00f6 2F       		.byte	47
 6377 00f7 2D       		.byte	45
 6378 00f8 2C       		.byte	44
 6379 00f9 2A       		.byte	42
 6380 00fa 29       		.byte	41
 6381 00fb 28       		.byte	40
 6382 00fc 26       		.byte	38
 6383 00fd 25       		.byte	37
 6384 00fe 23       		.byte	35
 6385 00ff 22       		.byte	34
 6386              		.section	.rodata.rgblight_enable.str1.1,"aMS",%progbits,1
 6387              	.LC130:
 6388 0000 7267626C 		.ascii	"rgblight enable [EEPROM]: rgblight_config.enable = "
 6388      69676874 
 6388      20656E61 
 6388      626C6520 
 6388      5B454550 
 6389 0033 25750A00 		.ascii	"%u\012\000"
 6390              		.section	.rodata.rgblight_enable_noeeprom.str1.1,"aMS",%progbits,1
 6391              	.LC146:
 6392 0000 7267626C 		.ascii	"rgblight enable [NOEEPROM]: rgblight_config.enable "
 6392      69676874 
 6392      20656E61 
 6392      626C6520 
 6392      5B4E4F45 
 6393 0033 3D202575 		.ascii	"= %u\012\000"
 6393      0A00
 6394              		.section	.rodata.rgblight_init.str1.1,"aMS",%progbits,1
 6395              	.LC134:
 6396 0000 7267626C 		.ascii	"rgblight_init called.\012\000"
 6396      69676874 
 6396      5F696E69 
 6396      74206361 
 6396      6C6C6564 
 6397              	.LC136:
 6398 0017 7267626C 		.ascii	"rgblight_init start!\012\000"
 6398      69676874 
 6398      5F696E69 
 6398      74207374 
 6398      61727421 
 6399              	.LC138:
 6400 002d 7267626C 		.ascii	"rgblight_init eeconfig is not enabled.\012\000"
 6400      69676874 
 6400      5F696E69 
 6400      74206565 
 6400      636F6E66 
 6401              	.LC141:
 6402 0055 7267626C 		.ascii	"rgblight_init rgblight_config.mode = 0. Write defau"
 6402      69676874 
 6402      5F696E69 
 6402      74207267 
 6402      626C6967 
 6403 0088 6C742076 		.ascii	"lt values to EEPROM.\012\000"
 6403      616C7565 
 6403      7320746F 
 6403      20454550 
 6403      524F4D2E 
 6404              		.section	.rodata.rgblight_mode_eeprom_helper.str1.1,"aMS",%progbits,1
 6405              	.LC118:
 6406 0000 7267626C 		.ascii	"rgblight mode [EEPROM]: %u\012\000"
 6406      69676874 
 6406      206D6F64 
 6406      65205B45 
 6406      4550524F 
 6407              	.LC120:
 6408 001c 7267626C 		.ascii	"rgblight mode [NOEEPROM]: %u\012\000"
 6408      69676874 
 6408      206D6F64 
 6408      65205B4E 
 6408      4F454550 
 6409              		.section	.rodata.rgblight_set_speed_eeprom_helper.str1.1,"aMS",%progbits,1
 6410              	.LC31:
 6411 0000 7267626C 		.ascii	"rgblight set speed [EEPROM]: %u\012\000"
 6411      69676874 
 6411      20736574 
 6411      20737065 
 6411      6564205B 
 6412              	.LC33:
 6413 0021 7267626C 		.ascii	"rgblight set speed [NOEEPROM]: %u\012\000"
 6413      69676874 
 6413      20736574 
 6413      20737065 
 6413      6564205B 
 6414              		.section	.rodata.rgblight_sethsv_eeprom_helper.str1.1,"aMS",%progbits,1
 6415              	.LC58:
 6416 0000 7267626C 		.ascii	"rgblight rainbow set hsv: %d,%d,%d,%u\012\000"
 6416      69676874 
 6416      20726169 
 6416      6E626F77 
 6416      20736574 
 6417              	.LC63:
 6418 0027 7267626C 		.ascii	"rgblight set hsv [EEPROM]: %u,%u,%u\012\000"
 6418      69676874 
 6418      20736574 
 6418      20687376 
 6418      205B4545 
 6419              	.LC65:
 6420 004c 7267626C 		.ascii	"rgblight set hsv [NOEEPROM]: %u,%u,%u\012\000"
 6420      69676874 
 6420      20736574 
 6420      20687376 
 6420      205B4E4F 
 6421              		.section	.rodata.rgblight_timer_disable.str1.1,"aMS",%progbits,1
 6422              	.LC114:
 6423 0000 7267626C 		.ascii	"rgblight timer disable.\012\000"
 6423      69676874 
 6423      2074696D 
 6423      65722064 
 6423      69736162 
 6424              		.section	.rodata.rgblight_timer_enable.str1.1,"aMS",%progbits,1
 6425              	.LC110:
 6426 0000 7267626C 		.ascii	"rgblight timer enabled.\012\000"
 6426      69676874 
 6426      2074696D 
 6426      65722065 
 6426      6E61626C 
 6427              		.section	.rodata.rgblight_timer_toggle.str1.1,"aMS",%progbits,1
 6428              	.LC166:
 6429 0000 7267626C 		.ascii	"rgblight timer toggle.\012\000"
 6429      69676874 
 6429      2074696D 
 6429      65722074 
 6429      6F67676C 
 6430              		.section	.rodata.rgblight_toggle.str1.1,"aMS",%progbits,1
 6431              	.LC155:
 6432 0000 7267626C 		.ascii	"rgblight toggle [EEPROM]: rgblight_config.enable = "
 6432      69676874 
 6432      20746F67 
 6432      676C6520 
 6432      5B454550 
 6433 0033 25750A00 		.ascii	"%u\012\000"
 6434              		.section	.rodata.rgblight_toggle_noeeprom.str1.1,"aMS",%progbits,1
 6435              	.LC163:
 6436 0000 7267626C 		.ascii	"rgblight toggle [NOEEPROM]: rgblight_config.enable "
 6436      69676874 
 6436      20746F67 
 6436      676C6520 
 6436      5B4E4F45 
 6437 0033 3D202575 		.ascii	"= %u\012\000"
 6437      0A00
 6438              		.text
 6439              	.Letext0:
 6440              		.file 3 "c:\\msys64\\home\\kyleo\\qmk_utils\\gcc-arm-none-eabi\\lib\\gcc\\arm-none-eabi\\8.3.1\\in
 6441              		.file 4 "c:\\msys64\\home\\kyleo\\qmk_utils\\gcc-arm-none-eabi\\arm-none-eabi\\include\\machine\\_
 6442              		.file 5 "c:\\msys64\\home\\kyleo\\qmk_utils\\gcc-arm-none-eabi\\arm-none-eabi\\include\\sys\\_type
 6443              		.file 6 "c:\\msys64\\home\\kyleo\\qmk_utils\\gcc-arm-none-eabi\\arm-none-eabi\\include\\sys\\reent
 6444              		.file 7 "c:\\msys64\\home\\kyleo\\qmk_utils\\gcc-arm-none-eabi\\arm-none-eabi\\include\\sys\\lock.
 6445              		.file 8 "c:\\msys64\\home\\kyleo\\qmk_utils\\gcc-arm-none-eabi\\arm-none-eabi\\include\\math.h"
 6446              		.file 9 "c:\\msys64\\home\\kyleo\\qmk_utils\\gcc-arm-none-eabi\\arm-none-eabi\\include\\sys\\_stdi
 6447              		.file 10 "c:\\msys64\\home\\kyleo\\qmk_utils\\gcc-arm-none-eabi\\arm-none-eabi\\include\\stdint.h"
 6448              		.file 11 "c:\\msys64\\home\\kyleo\\qmk_utils\\gcc-arm-none-eabi\\arm-none-eabi\\include\\stdlib.h"
 6449              		.file 12 "./lib/chibios/os/common/ports/ARMCMx/compilers/GCC/chtypes.h"
 6450              		.file 13 "./lib/chibios/os/rt/include/chsystypes.h"
 6451              		.file 14 "./lib/chibios/os/rt/include/chschd.h"
 6452              		.file 15 "./lib/chibios/os/rt/include/chtime.h"
 6453              		.file 16 "./lib/chibios/os/common/ext/ST/STM32F0xx/system_stm32f0xx.h"
 6454              		.file 17 "./lib/chibios/os/common/ext/ST/STM32F0xx/stm32f072xb.h"
 6455              		.file 18 "./lib/chibios/os/common/ports/ARMCMx/chcore.h"
 6456              		.file 19 "./lib/chibios/os/common/ports/ARMCMx/chcore_v6m.h"
 6457              		.file 20 "./lib/chibios/os/hal/ports/STM32/LLD/TIMv1/stm32_tim.h"
 6458              		.file 21 "./lib/chibios/os/rt/include/chsem.h"
 6459              		.file 22 "./lib/chibios/os/rt/include/chmtx.h"
 6460              		.file 23 "./lib/chibios/os/rt/include/chsys.h"
 6461              		.file 24 "./lib/chibios/os/rt/include/chregistry.h"
 6462              		.file 25 "./lib/chibios/os/oslib/include/chmemcore.h"
 6463              		.file 26 "./lib/chibios/os/hal/ports/STM32/LLD/DMAv1/stm32_dma.h"
 6464              		.file 27 "./lib/chibios/os/hal/ports/STM32/LLD/GPIOv2/stm32_gpio.h"
 6465              		.file 28 "./lib/chibios/os/hal/ports/STM32/LLD/GPIOv2/hal_pal_lld.h"
 6466              		.file 29 "./lib/chibios/os/hal/include/hal_i2c.h"
 6467              		.file 30 "./lib/chibios/os/hal/ports/STM32/LLD/I2Cv2/hal_i2c_lld.h"
 6468              		.file 31 "./lib/chibios/os/hal/include/hal_pwm.h"
 6469              		.file 32 "./lib/chibios/os/hal/ports/STM32/LLD/TIMv1/hal_pwm_lld.h"
 6470              		.file 33 "./lib/chibios/os/hal/include/hal_spi.h"
 6471              		.file 34 "./lib/chibios/os/hal/ports/STM32/LLD/SPIv2/hal_spi_lld.h"
 6472              		.file 35 "./lib/chibios/os/hal/include/hal_usb.h"
 6473              		.file 36 "./lib/chibios/os/hal/ports/STM32/LLD/USBv1/hal_usb_lld.h"
 6474              		.file 37 "tmk_core/common/timer.h"
 6475              		.file 38 "quantum/rgblight.h"
 6476              		.file 39 "./quantum/color.h"
 6477              		.file 40 "tmk_core/common/debug.h"
 6478              		.file 41 "quantum/led_tables.h"
 6479              		.file 42 "./lib/lib8tion/random8.h"
 6480              		.file 43 "./lib/lib8tion/trig8.h"
 6481              		.file 44 "quantum/rgblight_breathe_table.h"
 6482              		.file 45 "tmk_core/common/chibios/printf.h"
 6483              		.file 46 "c:\\msys64\\home\\kyleo\\qmk_utils\\gcc-arm-none-eabi\\arm-none-eabi\\include\\string.h"
 6484              		.file 47 "drivers/chibios/ws2812.h"
 6485              		.file 48 "./lib/chibios/os/rt/include/chthreads.h"
 6486              		.file 49 "tmk_core/common/eeconfig.h"
 6487              		.file 50 "tmk_core/common/eeprom.h"
DEFINED SYMBOLS
                            *ABS*:00000000 rgblight.c
C:\Users\kyleo\AppData\Local\Temp\ccncTvOo.s:16     .text.rgblight_effect_dummy:00000000 $t
C:\Users\kyleo\AppData\Local\Temp\ccncTvOo.s:23     .text.rgblight_effect_dummy:00000000 rgblight_effect_dummy
C:\Users\kyleo\AppData\Local\Temp\ccncTvOo.s:39     .text.rgblight_set_clipping_range:00000000 $t
C:\Users\kyleo\AppData\Local\Temp\ccncTvOo.s:46     .text.rgblight_set_clipping_range:00000000 rgblight_set_clipping_range
C:\Users\kyleo\AppData\Local\Temp\ccncTvOo.s:70     .text.rgblight_set_clipping_range:0000000c $d
C:\Users\kyleo\AppData\Local\Temp\ccncTvOo.s:76     .text.rgblight_set_effect_range:00000000 $t
C:\Users\kyleo\AppData\Local\Temp\ccncTvOo.s:83     .text.rgblight_set_effect_range:00000000 rgblight_set_effect_range
C:\Users\kyleo\AppData\Local\Temp\ccncTvOo.s:120    .text.rgblight_set_effect_range:00000018 $d
C:\Users\kyleo\AppData\Local\Temp\ccncTvOo.s:127    .text.sethsv_raw:00000000 $t
C:\Users\kyleo\AppData\Local\Temp\ccncTvOo.s:134    .text.sethsv_raw:00000000 sethsv_raw
C:\Users\kyleo\AppData\Local\Temp\ccncTvOo.s:200    .text.sethsv:00000000 $t
C:\Users\kyleo\AppData\Local\Temp\ccncTvOo.s:207    .text.sethsv:00000000 sethsv
C:\Users\kyleo\AppData\Local\Temp\ccncTvOo.s:230    .text.setrgb:00000000 $t
C:\Users\kyleo\AppData\Local\Temp\ccncTvOo.s:237    .text.setrgb:00000000 setrgb
C:\Users\kyleo\AppData\Local\Temp\ccncTvOo.s:261    .text.rgblight_check_config:00000000 $t
C:\Users\kyleo\AppData\Local\Temp\ccncTvOo.s:268    .text.rgblight_check_config:00000000 rgblight_check_config
C:\Users\kyleo\AppData\Local\Temp\ccncTvOo.s:318    .text.rgblight_check_config:00000020 $d
C:\Users\kyleo\AppData\Local\Temp\ccncTvOo.s:325    .text.eeconfig_read_rgblight:00000000 $t
C:\Users\kyleo\AppData\Local\Temp\ccncTvOo.s:332    .text.eeconfig_read_rgblight:00000000 eeconfig_read_rgblight
C:\Users\kyleo\AppData\Local\Temp\ccncTvOo.s:355    .text.eeconfig_update_rgblight:00000000 $t
C:\Users\kyleo\AppData\Local\Temp\ccncTvOo.s:362    .text.eeconfig_update_rgblight:00000000 eeconfig_update_rgblight
C:\Users\kyleo\AppData\Local\Temp\ccncTvOo.s:394    .text.eeconfig_update_rgblight_current:00000000 $t
C:\Users\kyleo\AppData\Local\Temp\ccncTvOo.s:401    .text.eeconfig_update_rgblight_current:00000000 eeconfig_update_rgblight_current
C:\Users\kyleo\AppData\Local\Temp\ccncTvOo.s:426    .text.eeconfig_update_rgblight_current:0000000c $d
C:\Users\kyleo\AppData\Local\Temp\ccncTvOo.s:431    .text.eeconfig_update_rgblight_default:00000000 $t
C:\Users\kyleo\AppData\Local\Temp\ccncTvOo.s:438    .text.eeconfig_update_rgblight_default:00000000 eeconfig_update_rgblight_default
C:\Users\kyleo\AppData\Local\Temp\ccncTvOo.s:475    .text.eeconfig_update_rgblight_default:00000014 $d
C:\Users\kyleo\AppData\Local\Temp\ccncTvOo.s:481    .text.eeconfig_debug_rgblight:00000000 $t
C:\Users\kyleo\AppData\Local\Temp\ccncTvOo.s:488    .text.eeconfig_debug_rgblight:00000000 eeconfig_debug_rgblight
C:\Users\kyleo\AppData\Local\Temp\ccncTvOo.s:584    .text.eeconfig_debug_rgblight:00000070 $d
C:\Users\kyleo\AppData\Local\Temp\ccncTvOo.s:597    .text.rgblight_read_dword:00000000 $t
C:\Users\kyleo\AppData\Local\Temp\ccncTvOo.s:604    .text.rgblight_read_dword:00000000 rgblight_read_dword
C:\Users\kyleo\AppData\Local\Temp\ccncTvOo.s:623    .text.rgblight_read_dword:00000008 $d
C:\Users\kyleo\AppData\Local\Temp\ccncTvOo.s:628    .text.rgblight_get_mode:00000000 $t
C:\Users\kyleo\AppData\Local\Temp\ccncTvOo.s:635    .text.rgblight_get_mode:00000000 rgblight_get_mode
C:\Users\kyleo\AppData\Local\Temp\ccncTvOo.s:663    .text.rgblight_get_mode:00000010 $d
C:\Users\kyleo\AppData\Local\Temp\ccncTvOo.s:668    .text.rgblight_increase_speed:00000000 $t
C:\Users\kyleo\AppData\Local\Temp\ccncTvOo.s:675    .text.rgblight_increase_speed:00000000 rgblight_increase_speed
C:\Users\kyleo\AppData\Local\Temp\ccncTvOo.s:708    .text.rgblight_increase_speed:00000018 $d
C:\Users\kyleo\AppData\Local\Temp\ccncTvOo.s:713    .text.rgblight_decrease_speed:00000000 $t
C:\Users\kyleo\AppData\Local\Temp\ccncTvOo.s:720    .text.rgblight_decrease_speed:00000000 rgblight_decrease_speed
C:\Users\kyleo\AppData\Local\Temp\ccncTvOo.s:753    .text.rgblight_decrease_speed:00000018 $d
C:\Users\kyleo\AppData\Local\Temp\ccncTvOo.s:758    .text.rgblight_get_speed:00000000 $t
C:\Users\kyleo\AppData\Local\Temp\ccncTvOo.s:765    .text.rgblight_get_speed:00000000 rgblight_get_speed
C:\Users\kyleo\AppData\Local\Temp\ccncTvOo.s:784    .text.rgblight_get_speed:00000008 $d
C:\Users\kyleo\AppData\Local\Temp\ccncTvOo.s:789    .text.rgblight_set_speed_eeprom_helper:00000000 $t
C:\Users\kyleo\AppData\Local\Temp\ccncTvOo.s:796    .text.rgblight_set_speed_eeprom_helper:00000000 rgblight_set_speed_eeprom_helper
C:\Users\kyleo\AppData\Local\Temp\ccncTvOo.s:868    .text.rgblight_set_speed_eeprom_helper:00000030 $d
C:\Users\kyleo\AppData\Local\Temp\ccncTvOo.s:876    .text.rgblight_set_speed:00000000 $t
C:\Users\kyleo\AppData\Local\Temp\ccncTvOo.s:883    .text.rgblight_set_speed:00000000 rgblight_set_speed
C:\Users\kyleo\AppData\Local\Temp\ccncTvOo.s:907    .text.rgblight_set_speed_noeeprom:00000000 $t
C:\Users\kyleo\AppData\Local\Temp\ccncTvOo.s:914    .text.rgblight_set_speed_noeeprom:00000000 rgblight_set_speed_noeeprom
C:\Users\kyleo\AppData\Local\Temp\ccncTvOo.s:938    .text.rgblight_get_hue:00000000 $t
C:\Users\kyleo\AppData\Local\Temp\ccncTvOo.s:945    .text.rgblight_get_hue:00000000 rgblight_get_hue
C:\Users\kyleo\AppData\Local\Temp\ccncTvOo.s:964    .text.rgblight_get_hue:00000008 $d
C:\Users\kyleo\AppData\Local\Temp\ccncTvOo.s:969    .text.rgblight_get_sat:00000000 $t
C:\Users\kyleo\AppData\Local\Temp\ccncTvOo.s:976    .text.rgblight_get_sat:00000000 rgblight_get_sat
C:\Users\kyleo\AppData\Local\Temp\ccncTvOo.s:995    .text.rgblight_get_sat:00000008 $d
C:\Users\kyleo\AppData\Local\Temp\ccncTvOo.s:1000   .text.rgblight_get_val:00000000 $t
C:\Users\kyleo\AppData\Local\Temp\ccncTvOo.s:1007   .text.rgblight_get_val:00000000 rgblight_get_val
C:\Users\kyleo\AppData\Local\Temp\ccncTvOo.s:1026   .text.rgblight_get_val:00000008 $d
C:\Users\kyleo\AppData\Local\Temp\ccncTvOo.s:1031   .text.rgblight_set:00000000 $t
C:\Users\kyleo\AppData\Local\Temp\ccncTvOo.s:1038   .text.rgblight_set:00000000 rgblight_set
C:\Users\kyleo\AppData\Local\Temp\ccncTvOo.s:1125   .text.rgblight_set:00000044 $d
C:\Users\kyleo\AppData\Local\Temp\ccncTvOo.s:1136   .text.rgblight_setrgb:00000000 $t
C:\Users\kyleo\AppData\Local\Temp\ccncTvOo.s:1143   .text.rgblight_setrgb:00000000 rgblight_setrgb
C:\Users\kyleo\AppData\Local\Temp\ccncTvOo.s:1226   .text.rgblight_setrgb:00000034 $d
C:\Users\kyleo\AppData\Local\Temp\ccncTvOo.s:1237   .text.rgblight_sethsv_noeeprom_old:00000000 $t
C:\Users\kyleo\AppData\Local\Temp\ccncTvOo.s:1244   .text.rgblight_sethsv_noeeprom_old:00000000 rgblight_sethsv_noeeprom_old
C:\Users\kyleo\AppData\Local\Temp\ccncTvOo.s:1303   .text.rgblight_sethsv_noeeprom_old:00000020 $d
C:\Users\kyleo\AppData\Local\Temp\ccncTvOo.s:1308   .text.rgblight_effect_breathing:00000000 $t
C:\Users\kyleo\AppData\Local\Temp\ccncTvOo.s:1315   .text.rgblight_effect_breathing:00000000 rgblight_effect_breathing
C:\Users\kyleo\AppData\Local\Temp\ccncTvOo.s:1359   .text.rgblight_effect_breathing:0000001c $d
C:\Users\kyleo\AppData\Local\Temp\ccncTvOo.s:6129   .rodata.rgblight_effect_breathe_table:00000000 rgblight_effect_breathe_table
C:\Users\kyleo\AppData\Local\Temp\ccncTvOo.s:1365   .text.rgblight_effect_rainbow_mood:00000000 $t
C:\Users\kyleo\AppData\Local\Temp\ccncTvOo.s:1372   .text.rgblight_effect_rainbow_mood:00000000 rgblight_effect_rainbow_mood
C:\Users\kyleo\AppData\Local\Temp\ccncTvOo.s:1410   .text.rgblight_effect_rainbow_mood:00000018 $d
C:\Users\kyleo\AppData\Local\Temp\ccncTvOo.s:1417   .text.rgblight_effect_rgbtest:00000000 $t
C:\Users\kyleo\AppData\Local\Temp\ccncTvOo.s:1424   .text.rgblight_effect_rgbtest:00000000 rgblight_effect_rgbtest
C:\Users\kyleo\AppData\Local\Temp\ccncTvOo.s:1561   .text.rgblight_effect_rgbtest:00000058 $d
C:\Users\kyleo\AppData\Local\Temp\ccncTvOo.s:1568   .text.rgblight_sethsv_eeprom_helper:00000000 $t
C:\Users\kyleo\AppData\Local\Temp\ccncTvOo.s:1575   .text.rgblight_sethsv_eeprom_helper:00000000 rgblight_sethsv_eeprom_helper
C:\Users\kyleo\AppData\Local\Temp\ccncTvOo.s:1910   .text.rgblight_sethsv_eeprom_helper:00000110 $d
C:\Users\kyleo\AppData\Local\Temp\ccncTvOo.s:6021   .rodata.RGBLED_GRADIENT_RANGES:00000000 RGBLED_GRADIENT_RANGES
C:\Users\kyleo\AppData\Local\Temp\ccncTvOo.s:1925   .text.rgblight_increase_hue_helper:00000000 $t
C:\Users\kyleo\AppData\Local\Temp\ccncTvOo.s:1932   .text.rgblight_increase_hue_helper:00000000 rgblight_increase_hue_helper
C:\Users\kyleo\AppData\Local\Temp\ccncTvOo.s:1970   .text.rgblight_increase_hue_helper:00000018 $d
C:\Users\kyleo\AppData\Local\Temp\ccncTvOo.s:1975   .text.rgblight_increase_hue_noeeprom:00000000 $t
C:\Users\kyleo\AppData\Local\Temp\ccncTvOo.s:1982   .text.rgblight_increase_hue_noeeprom:00000000 rgblight_increase_hue_noeeprom
C:\Users\kyleo\AppData\Local\Temp\ccncTvOo.s:2005   .text.rgblight_increase_hue:00000000 $t
C:\Users\kyleo\AppData\Local\Temp\ccncTvOo.s:2012   .text.rgblight_increase_hue:00000000 rgblight_increase_hue
C:\Users\kyleo\AppData\Local\Temp\ccncTvOo.s:2035   .text.rgblight_decrease_hue_helper:00000000 $t
C:\Users\kyleo\AppData\Local\Temp\ccncTvOo.s:2042   .text.rgblight_decrease_hue_helper:00000000 rgblight_decrease_hue_helper
C:\Users\kyleo\AppData\Local\Temp\ccncTvOo.s:2080   .text.rgblight_decrease_hue_helper:00000018 $d
C:\Users\kyleo\AppData\Local\Temp\ccncTvOo.s:2085   .text.rgblight_decrease_hue_noeeprom:00000000 $t
C:\Users\kyleo\AppData\Local\Temp\ccncTvOo.s:2092   .text.rgblight_decrease_hue_noeeprom:00000000 rgblight_decrease_hue_noeeprom
C:\Users\kyleo\AppData\Local\Temp\ccncTvOo.s:2115   .text.rgblight_decrease_hue:00000000 $t
C:\Users\kyleo\AppData\Local\Temp\ccncTvOo.s:2122   .text.rgblight_decrease_hue:00000000 rgblight_decrease_hue
C:\Users\kyleo\AppData\Local\Temp\ccncTvOo.s:2145   .text.rgblight_increase_sat_helper:00000000 $t
C:\Users\kyleo\AppData\Local\Temp\ccncTvOo.s:2152   .text.rgblight_increase_sat_helper:00000000 rgblight_increase_sat_helper
C:\Users\kyleo\AppData\Local\Temp\ccncTvOo.s:2223   .text.rgblight_increase_sat_helper:00000020 $d
C:\Users\kyleo\AppData\Local\Temp\ccncTvOo.s:2228   .text.rgblight_increase_sat_noeeprom:00000000 $t
C:\Users\kyleo\AppData\Local\Temp\ccncTvOo.s:2235   .text.rgblight_increase_sat_noeeprom:00000000 rgblight_increase_sat_noeeprom
C:\Users\kyleo\AppData\Local\Temp\ccncTvOo.s:2258   .text.rgblight_increase_sat:00000000 $t
C:\Users\kyleo\AppData\Local\Temp\ccncTvOo.s:2265   .text.rgblight_increase_sat:00000000 rgblight_increase_sat
C:\Users\kyleo\AppData\Local\Temp\ccncTvOo.s:2288   .text.rgblight_decrease_sat_helper:00000000 $t
C:\Users\kyleo\AppData\Local\Temp\ccncTvOo.s:2295   .text.rgblight_decrease_sat_helper:00000000 rgblight_decrease_sat_helper
C:\Users\kyleo\AppData\Local\Temp\ccncTvOo.s:2367   .text.rgblight_decrease_sat_helper:00000020 $d
C:\Users\kyleo\AppData\Local\Temp\ccncTvOo.s:2372   .text.rgblight_decrease_sat_noeeprom:00000000 $t
C:\Users\kyleo\AppData\Local\Temp\ccncTvOo.s:2379   .text.rgblight_decrease_sat_noeeprom:00000000 rgblight_decrease_sat_noeeprom
C:\Users\kyleo\AppData\Local\Temp\ccncTvOo.s:2402   .text.rgblight_decrease_sat:00000000 $t
C:\Users\kyleo\AppData\Local\Temp\ccncTvOo.s:2409   .text.rgblight_decrease_sat:00000000 rgblight_decrease_sat
C:\Users\kyleo\AppData\Local\Temp\ccncTvOo.s:2432   .text.rgblight_increase_val_helper:00000000 $t
C:\Users\kyleo\AppData\Local\Temp\ccncTvOo.s:2439   .text.rgblight_increase_val_helper:00000000 rgblight_increase_val_helper
C:\Users\kyleo\AppData\Local\Temp\ccncTvOo.s:2502   .text.rgblight_increase_val_helper:00000020 $d
C:\Users\kyleo\AppData\Local\Temp\ccncTvOo.s:2507   .text.rgblight_increase_val_noeeprom:00000000 $t
C:\Users\kyleo\AppData\Local\Temp\ccncTvOo.s:2514   .text.rgblight_increase_val_noeeprom:00000000 rgblight_increase_val_noeeprom
C:\Users\kyleo\AppData\Local\Temp\ccncTvOo.s:2537   .text.rgblight_increase_val:00000000 $t
C:\Users\kyleo\AppData\Local\Temp\ccncTvOo.s:2544   .text.rgblight_increase_val:00000000 rgblight_increase_val
C:\Users\kyleo\AppData\Local\Temp\ccncTvOo.s:2567   .text.rgblight_decrease_val_helper:00000000 $t
C:\Users\kyleo\AppData\Local\Temp\ccncTvOo.s:2574   .text.rgblight_decrease_val_helper:00000000 rgblight_decrease_val_helper
C:\Users\kyleo\AppData\Local\Temp\ccncTvOo.s:2638   .text.rgblight_decrease_val_helper:00000020 $d
C:\Users\kyleo\AppData\Local\Temp\ccncTvOo.s:2643   .text.rgblight_decrease_val_noeeprom:00000000 $t
C:\Users\kyleo\AppData\Local\Temp\ccncTvOo.s:2650   .text.rgblight_decrease_val_noeeprom:00000000 rgblight_decrease_val_noeeprom
C:\Users\kyleo\AppData\Local\Temp\ccncTvOo.s:2673   .text.rgblight_decrease_val:00000000 $t
C:\Users\kyleo\AppData\Local\Temp\ccncTvOo.s:2680   .text.rgblight_decrease_val:00000000 rgblight_decrease_val
C:\Users\kyleo\AppData\Local\Temp\ccncTvOo.s:2703   .text.rgblight_sethsv:00000000 $t
C:\Users\kyleo\AppData\Local\Temp\ccncTvOo.s:2710   .text.rgblight_sethsv:00000000 rgblight_sethsv
C:\Users\kyleo\AppData\Local\Temp\ccncTvOo.s:2734   .text.rgblight_sethsv_noeeprom:00000000 $t
C:\Users\kyleo\AppData\Local\Temp\ccncTvOo.s:2741   .text.rgblight_sethsv_noeeprom:00000000 rgblight_sethsv_noeeprom
C:\Users\kyleo\AppData\Local\Temp\ccncTvOo.s:2765   .text.rgblight_setrgb_at:00000000 $t
C:\Users\kyleo\AppData\Local\Temp\ccncTvOo.s:2772   .text.rgblight_setrgb_at:00000000 rgblight_setrgb_at
C:\Users\kyleo\AppData\Local\Temp\ccncTvOo.s:2821   .text.rgblight_setrgb_at:00000024 $d
C:\Users\kyleo\AppData\Local\Temp\ccncTvOo.s:2827   .text.rgblight_sethsv_at:00000000 $t
C:\Users\kyleo\AppData\Local\Temp\ccncTvOo.s:2834   .text.rgblight_sethsv_at:00000000 rgblight_sethsv_at
C:\Users\kyleo\AppData\Local\Temp\ccncTvOo.s:2892   .text.rgblight_sethsv_at:00000024 $d
C:\Users\kyleo\AppData\Local\Temp\ccncTvOo.s:2897   .text.rgblight_setrgb_range:00000000 $t
C:\Users\kyleo\AppData\Local\Temp\ccncTvOo.s:2904   .text.rgblight_setrgb_range:00000000 rgblight_setrgb_range
C:\Users\kyleo\AppData\Local\Temp\ccncTvOo.s:2987   .text.rgblight_setrgb_range:0000003c $d
C:\Users\kyleo\AppData\Local\Temp\ccncTvOo.s:2993   .text.rgblight_sethsv_range:00000000 $t
C:\Users\kyleo\AppData\Local\Temp\ccncTvOo.s:3000   .text.rgblight_sethsv_range:00000000 rgblight_sethsv_range
C:\Users\kyleo\AppData\Local\Temp\ccncTvOo.s:3072   .text.rgblight_sethsv_range:00000028 $d
C:\Users\kyleo\AppData\Local\Temp\ccncTvOo.s:3077   .text.rgblight_sethsv_master:00000000 $t
C:\Users\kyleo\AppData\Local\Temp\ccncTvOo.s:3084   .text.rgblight_sethsv_master:00000000 rgblight_sethsv_master
C:\Users\kyleo\AppData\Local\Temp\ccncTvOo.s:3112   .text.rgblight_sethsv_slave:00000000 $t
C:\Users\kyleo\AppData\Local\Temp\ccncTvOo.s:3119   .text.rgblight_sethsv_slave:00000000 rgblight_sethsv_slave
C:\Users\kyleo\AppData\Local\Temp\ccncTvOo.s:3147   .text.rgblight_setrgb_master:00000000 $t
C:\Users\kyleo\AppData\Local\Temp\ccncTvOo.s:3154   .text.rgblight_setrgb_master:00000000 rgblight_setrgb_master
C:\Users\kyleo\AppData\Local\Temp\ccncTvOo.s:3182   .text.rgblight_setrgb_slave:00000000 $t
C:\Users\kyleo\AppData\Local\Temp\ccncTvOo.s:3189   .text.rgblight_setrgb_slave:00000000 rgblight_setrgb_slave
C:\Users\kyleo\AppData\Local\Temp\ccncTvOo.s:3217   .text.rgblight_effect_rainbow_swirl:00000000 $t
C:\Users\kyleo\AppData\Local\Temp\ccncTvOo.s:3224   .text.rgblight_effect_rainbow_swirl:00000000 rgblight_effect_rainbow_swirl
C:\Users\kyleo\AppData\Local\Temp\ccncTvOo.s:3361   .text.rgblight_effect_rainbow_swirl:0000005c $d
C:\Users\kyleo\AppData\Local\Temp\ccncTvOo.s:3369   .text.rgblight_effect_snake:00000000 $t
C:\Users\kyleo\AppData\Local\Temp\ccncTvOo.s:3376   .text.rgblight_effect_snake:00000000 rgblight_effect_snake
C:\Users\kyleo\AppData\Local\Temp\ccncTvOo.s:3617   .text.rgblight_effect_snake:000000b4 $d
C:\Users\kyleo\AppData\Local\Temp\ccncTvOo.s:3626   .text.rgblight_effect_knight:00000000 $t
C:\Users\kyleo\AppData\Local\Temp\ccncTvOo.s:3633   .text.rgblight_effect_knight:00000000 rgblight_effect_knight
C:\Users\kyleo\AppData\Local\Temp\ccncTvOo.s:3837   .text.rgblight_effect_knight:000000a4 $d
C:\Users\kyleo\AppData\Local\Temp\ccncTvOo.s:3849   .text.rgblight_effect_christmas:00000000 $t
C:\Users\kyleo\AppData\Local\Temp\ccncTvOo.s:3856   .text.rgblight_effect_christmas:00000000 rgblight_effect_christmas
C:\Users\kyleo\AppData\Local\Temp\ccncTvOo.s:3985   .text.rgblight_effect_christmas:00000050 $d
C:\Users\kyleo\AppData\Local\Temp\ccncTvOo.s:3993   .text.rgblight_effect_alternating:00000000 $t
C:\Users\kyleo\AppData\Local\Temp\ccncTvOo.s:4000   .text.rgblight_effect_alternating:00000000 rgblight_effect_alternating
C:\Users\kyleo\AppData\Local\Temp\ccncTvOo.s:4139   .text.rgblight_effect_alternating:00000058 $d
C:\Users\kyleo\AppData\Local\Temp\ccncTvOo.s:4151   .text.rgblight_timer_init:00000000 $t
C:\Users\kyleo\AppData\Local\Temp\ccncTvOo.s:4158   .text.rgblight_timer_init:00000000 rgblight_timer_init
C:\Users\kyleo\AppData\Local\Temp\ccncTvOo.s:4179   .text.rgblight_timer_init:00000008 $d
C:\Users\kyleo\AppData\Local\Temp\ccncTvOo.s:4184   .text.rgblight_timer_enable:00000000 $t
C:\Users\kyleo\AppData\Local\Temp\ccncTvOo.s:4191   .text.rgblight_timer_enable:00000000 rgblight_timer_enable
C:\Users\kyleo\AppData\Local\Temp\ccncTvOo.s:4260   .text.rgblight_timer_enable:00000034 $d
C:\Users\kyleo\AppData\Local\Temp\ccncTvOo.s:4270   .text.rgblight_timer_disable:00000000 $t
C:\Users\kyleo\AppData\Local\Temp\ccncTvOo.s:4277   .text.rgblight_timer_disable:00000000 rgblight_timer_disable
C:\Users\kyleo\AppData\Local\Temp\ccncTvOo.s:4312   .text.rgblight_timer_disable:00000018 $d
C:\Users\kyleo\AppData\Local\Temp\ccncTvOo.s:4319   .text.rgblight_mode_eeprom_helper:00000000 $t
C:\Users\kyleo\AppData\Local\Temp\ccncTvOo.s:4326   .text.rgblight_mode_eeprom_helper:00000000 rgblight_mode_eeprom_helper
C:\Users\kyleo\AppData\Local\Temp\ccncTvOo.s:4481   .text.rgblight_mode_eeprom_helper:00000080 $d
C:\Users\kyleo\AppData\Local\Temp\ccncTvOo.s:4493   .text.rgblight_step_helper:00000000 $t
C:\Users\kyleo\AppData\Local\Temp\ccncTvOo.s:4500   .text.rgblight_step_helper:00000000 rgblight_step_helper
C:\Users\kyleo\AppData\Local\Temp\ccncTvOo.s:4542   .text.rgblight_step_helper:00000018 $d
C:\Users\kyleo\AppData\Local\Temp\ccncTvOo.s:4547   .text.rgblight_step_noeeprom:00000000 $t
C:\Users\kyleo\AppData\Local\Temp\ccncTvOo.s:4554   .text.rgblight_step_noeeprom:00000000 rgblight_step_noeeprom
C:\Users\kyleo\AppData\Local\Temp\ccncTvOo.s:4577   .text.rgblight_step:00000000 $t
C:\Users\kyleo\AppData\Local\Temp\ccncTvOo.s:4584   .text.rgblight_step:00000000 rgblight_step
C:\Users\kyleo\AppData\Local\Temp\ccncTvOo.s:4607   .text.rgblight_step_reverse_helper:00000000 $t
C:\Users\kyleo\AppData\Local\Temp\ccncTvOo.s:4614   .text.rgblight_step_reverse_helper:00000000 rgblight_step_reverse_helper
C:\Users\kyleo\AppData\Local\Temp\ccncTvOo.s:4657   .text.rgblight_step_reverse_helper:0000001c $d
C:\Users\kyleo\AppData\Local\Temp\ccncTvOo.s:4662   .text.rgblight_step_reverse_noeeprom:00000000 $t
C:\Users\kyleo\AppData\Local\Temp\ccncTvOo.s:4669   .text.rgblight_step_reverse_noeeprom:00000000 rgblight_step_reverse_noeeprom
C:\Users\kyleo\AppData\Local\Temp\ccncTvOo.s:4692   .text.rgblight_step_reverse:00000000 $t
C:\Users\kyleo\AppData\Local\Temp\ccncTvOo.s:4699   .text.rgblight_step_reverse:00000000 rgblight_step_reverse
C:\Users\kyleo\AppData\Local\Temp\ccncTvOo.s:4722   .text.rgblight_mode:00000000 $t
C:\Users\kyleo\AppData\Local\Temp\ccncTvOo.s:4729   .text.rgblight_mode:00000000 rgblight_mode
C:\Users\kyleo\AppData\Local\Temp\ccncTvOo.s:4753   .text.rgblight_increase:00000000 $t
C:\Users\kyleo\AppData\Local\Temp\ccncTvOo.s:4760   .text.rgblight_increase:00000000 rgblight_increase
C:\Users\kyleo\AppData\Local\Temp\ccncTvOo.s:4799   .text.rgblight_increase:00000018 $d
C:\Users\kyleo\AppData\Local\Temp\ccncTvOo.s:4804   .text.rgblight_decrease:00000000 $t
C:\Users\kyleo\AppData\Local\Temp\ccncTvOo.s:4811   .text.rgblight_decrease:00000000 rgblight_decrease
C:\Users\kyleo\AppData\Local\Temp\ccncTvOo.s:4851   .text.rgblight_decrease:00000018 $d
C:\Users\kyleo\AppData\Local\Temp\ccncTvOo.s:4856   .text.rgblight_enable:00000000 $t
C:\Users\kyleo\AppData\Local\Temp\ccncTvOo.s:4863   .text.rgblight_enable:00000000 rgblight_enable
C:\Users\kyleo\AppData\Local\Temp\ccncTvOo.s:4907   .text.rgblight_enable:00000024 $d
C:\Users\kyleo\AppData\Local\Temp\ccncTvOo.s:4914   .text.rgblight_mode_noeeprom:00000000 $t
C:\Users\kyleo\AppData\Local\Temp\ccncTvOo.s:4921   .text.rgblight_mode_noeeprom:00000000 rgblight_mode_noeeprom
C:\Users\kyleo\AppData\Local\Temp\ccncTvOo.s:4945   .text.rgblight_init:00000000 $t
C:\Users\kyleo\AppData\Local\Temp\ccncTvOo.s:4952   .text.rgblight_init:00000000 rgblight_init
C:\Users\kyleo\AppData\Local\Temp\ccncTvOo.s:5100   .text.rgblight_init:0000008c $d
C:\Users\kyleo\AppData\Local\Temp\ccncTvOo.s:5112   .text.rgblight_enable_noeeprom:00000000 $t
C:\Users\kyleo\AppData\Local\Temp\ccncTvOo.s:5119   .text.rgblight_enable_noeeprom:00000000 rgblight_enable_noeeprom
C:\Users\kyleo\AppData\Local\Temp\ccncTvOo.s:5163   .text.rgblight_enable_noeeprom:00000024 $d
C:\Users\kyleo\AppData\Local\Temp\ccncTvOo.s:5170   .text.rgblight_update_dword:00000000 $t
C:\Users\kyleo\AppData\Local\Temp\ccncTvOo.s:5177   .text.rgblight_update_dword:00000000 rgblight_update_dword
C:\Users\kyleo\AppData\Local\Temp\ccncTvOo.s:5224   .text.rgblight_update_dword:00000020 $d
C:\Users\kyleo\AppData\Local\Temp\ccncTvOo.s:5229   .text.rgblight_disable:00000000 $t
C:\Users\kyleo\AppData\Local\Temp\ccncTvOo.s:5236   .text.rgblight_disable:00000000 rgblight_disable
C:\Users\kyleo\AppData\Local\Temp\ccncTvOo.s:5296   .text.rgblight_disable:00000038 $d
C:\Users\kyleo\AppData\Local\Temp\ccncTvOo.s:5303   .text.rgblight_toggle:00000000 $t
C:\Users\kyleo\AppData\Local\Temp\ccncTvOo.s:5310   .text.rgblight_toggle:00000000 rgblight_toggle
C:\Users\kyleo\AppData\Local\Temp\ccncTvOo.s:5361   .text.rgblight_toggle:00000030 $d
C:\Users\kyleo\AppData\Local\Temp\ccncTvOo.s:5368   .text.rgblight_disable_noeeprom:00000000 $t
C:\Users\kyleo\AppData\Local\Temp\ccncTvOo.s:5375   .text.rgblight_disable_noeeprom:00000000 rgblight_disable_noeeprom
C:\Users\kyleo\AppData\Local\Temp\ccncTvOo.s:5428   .text.rgblight_disable_noeeprom:00000030 $d
C:\Users\kyleo\AppData\Local\Temp\ccncTvOo.s:5435   .text.rgblight_toggle_noeeprom:00000000 $t
C:\Users\kyleo\AppData\Local\Temp\ccncTvOo.s:5442   .text.rgblight_toggle_noeeprom:00000000 rgblight_toggle_noeeprom
C:\Users\kyleo\AppData\Local\Temp\ccncTvOo.s:5493   .text.rgblight_toggle_noeeprom:00000030 $d
C:\Users\kyleo\AppData\Local\Temp\ccncTvOo.s:5500   .text.rgblight_timer_toggle:00000000 $t
C:\Users\kyleo\AppData\Local\Temp\ccncTvOo.s:5507   .text.rgblight_timer_toggle:00000000 rgblight_timer_toggle
C:\Users\kyleo\AppData\Local\Temp\ccncTvOo.s:5553   .text.rgblight_timer_toggle:00000024 $d
C:\Users\kyleo\AppData\Local\Temp\ccncTvOo.s:5560   .text.rgblight_show_solid_color:00000000 $t
C:\Users\kyleo\AppData\Local\Temp\ccncTvOo.s:5567   .text.rgblight_show_solid_color:00000000 rgblight_show_solid_color
C:\Users\kyleo\AppData\Local\Temp\ccncTvOo.s:5606   .text.rgblight_task:00000000 $t
C:\Users\kyleo\AppData\Local\Temp\ccncTvOo.s:5613   .text.rgblight_task:00000000 rgblight_task
C:\Users\kyleo\AppData\Local\Temp\ccncTvOo.s:5867   .text.rgblight_task:000000b0 $d
C:\Users\kyleo\AppData\Local\Temp\ccncTvOo.s:6013   .rodata.RGBLED_BREATHING_INTERVALS:00000000 RGBLED_BREATHING_INTERVALS
C:\Users\kyleo\AppData\Local\Temp\ccncTvOo.s:6037   .rodata.RGBLED_RAINBOW_MOOD_INTERVALS:00000000 RGBLED_RAINBOW_MOOD_INTERVALS
C:\Users\kyleo\AppData\Local\Temp\ccncTvOo.s:6044   .rodata.RGBLED_RAINBOW_SWIRL_INTERVALS:00000000 RGBLED_RAINBOW_SWIRL_INTERVALS
C:\Users\kyleo\AppData\Local\Temp\ccncTvOo.s:6057   .rodata.RGBLED_SNAKE_INTERVALS:00000000 RGBLED_SNAKE_INTERVALS
C:\Users\kyleo\AppData\Local\Temp\ccncTvOo.s:6030   .rodata.RGBLED_KNIGHT_INTERVALS:00000000 RGBLED_KNIGHT_INTERVALS
C:\Users\kyleo\AppData\Local\Temp\ccncTvOo.s:6052   .rodata.RGBLED_RGBTEST_INTERVALS:00000000 RGBLED_RGBTEST_INTERVALS
C:\Users\kyleo\AppData\Local\Temp\ccncTvOo.s:5931   .bss.led:00000000 led
C:\Users\kyleo\AppData\Local\Temp\ccncTvOo.s:5907   .bss.animation_status:00000000 animation_status
C:\Users\kyleo\AppData\Local\Temp\ccncTvOo.s:5925   .bss.is_rgblight_initialized:00000000 is_rgblight_initialized
C:\Users\kyleo\AppData\Local\Temp\ccncTvOo.s:5962   .bss.rgblight_status:00000000 rgblight_status
C:\Users\kyleo\AppData\Local\Temp\ccncTvOo.s:5956   .bss.rgblight_config:00000000 rgblight_config
C:\Users\kyleo\AppData\Local\Temp\ccncTvOo.s:5903   .bss.animation_status:00000000 $d
C:\Users\kyleo\AppData\Local\Temp\ccncTvOo.s:5913   .bss.clipping_start_pos:00000000 clipping_start_pos
C:\Users\kyleo\AppData\Local\Temp\ccncTvOo.s:5914   .bss.clipping_start_pos:00000000 $d
C:\Users\kyleo\AppData\Local\Temp\ccncTvOo.s:5919   .bss.effect_start_pos:00000000 effect_start_pos
C:\Users\kyleo\AppData\Local\Temp\ccncTvOo.s:5920   .bss.effect_start_pos:00000000 $d
C:\Users\kyleo\AppData\Local\Temp\ccncTvOo.s:5926   .bss.is_rgblight_initialized:00000000 $d
C:\Users\kyleo\AppData\Local\Temp\ccncTvOo.s:5932   .bss.led:00000000 $d
C:\Users\kyleo\AppData\Local\Temp\ccncTvOo.s:5937   .bss.low_bound.9564:00000000 low_bound.9564
C:\Users\kyleo\AppData\Local\Temp\ccncTvOo.s:5938   .bss.low_bound.9564:00000000 $d
C:\Users\kyleo\AppData\Local\Temp\ccncTvOo.s:5943   .bss.maxval.9587:00000000 maxval.9587
C:\Users\kyleo\AppData\Local\Temp\ccncTvOo.s:5944   .bss.maxval.9587:00000000 $d
C:\Users\kyleo\AppData\Local\Temp\ccncTvOo.s:5949   .bss.pos.9548:00000000 pos.9548
C:\Users\kyleo\AppData\Local\Temp\ccncTvOo.s:5950   .bss.pos.9548:00000000 $d
C:\Users\kyleo\AppData\Local\Temp\ccncTvOo.s:5952   .bss.rgblight_config:00000000 $d
C:\Users\kyleo\AppData\Local\Temp\ccncTvOo.s:5963   .bss.rgblight_status:00000000 $d
C:\Users\kyleo\AppData\Local\Temp\ccncTvOo.s:5968   .data.clipping_num_leds:00000000 clipping_num_leds
C:\Users\kyleo\AppData\Local\Temp\ccncTvOo.s:5974   .data.effect_end_pos:00000000 effect_end_pos
C:\Users\kyleo\AppData\Local\Temp\ccncTvOo.s:5980   .data.effect_num_leds:00000000 effect_num_leds
C:\Users\kyleo\AppData\Local\Temp\ccncTvOo.s:5986   .data.high_bound.9565:00000000 high_bound.9565
C:\Users\kyleo\AppData\Local\Temp\ccncTvOo.s:5992   .data.increment.9566:00000000 increment.9566
C:\Users\kyleo\AppData\Local\Temp\ccncTvOo.s:5998   .data.static_effect_table:00000000 static_effect_table
C:\Users\kyleo\AppData\Local\Temp\ccncTvOo.s:6049   .rodata.RGBLED_RGBTEST_INTERVALS:00000000 $d
C:\Users\kyleo\AppData\Local\Temp\ccncTvOo.s:6080   .rodata.mode_base_table:00000000 mode_base_table

UNDEFINED SYMBOLS
hsv_to_rgb
eeprom_read_dword
eeprom_update_dword
tfp_printf
debug_config
ws2812_setleds
__aeabi_uidivmod
__aeabi_idivmod
__aeabi_uidiv
__aeabi_idiv
chThdSleep
memchr
timer_read
eeconfig_is_enabled
eeconfig_init
timer_elapsed
