   1              		.cpu cortex-m0
   2              		.eabi_attribute 20, 1
   3              		.eabi_attribute 21, 1
   4              		.eabi_attribute 23, 3
   5              		.eabi_attribute 24, 1
   6              		.eabi_attribute 25, 1
   7              		.eabi_attribute 26, 1
   8              		.eabi_attribute 30, 4
   9              		.eabi_attribute 34, 0
  10              		.eabi_attribute 18, 2
  11              		.file	"rgblight.c"
  12              		.text
  13              	.Ltext0:
  14              		.cfi_sections	.debug_frame
  15              		.section	.text.rgblight_effect_dummy,"ax",%progbits
  16              		.align	1
  17              		.arch armv6s-m
  18              		.syntax unified
  19              		.code	16
  20              		.thumb_func
  21              		.fpu softvfp
  23              	rgblight_effect_dummy:
  24              	.LVL0:
  25              	.LFB338:
  26              		.file 1 "quantum/rgblight.c"
   1:quantum/rgblight.c **** /* Copyright 2016-2017 Yang Liu
   2:quantum/rgblight.c ****  *
   3:quantum/rgblight.c ****  * This program is free software: you can redistribute it and/or modify
   4:quantum/rgblight.c ****  * it under the terms of the GNU General Public License as published by
   5:quantum/rgblight.c ****  * the Free Software Foundation, either version 2 of the License, or
   6:quantum/rgblight.c ****  * (at your option) any later version.
   7:quantum/rgblight.c ****  *
   8:quantum/rgblight.c ****  * This program is distributed in the hope that it will be useful,
   9:quantum/rgblight.c ****  * but WITHOUT ANY WARRANTY; without even the implied warranty of
  10:quantum/rgblight.c ****  * MERCHANTABILITY or FITNESS FOR A PARTICULAR PURPOSE.  See the
  11:quantum/rgblight.c ****  * GNU General Public License for more details.
  12:quantum/rgblight.c ****  *
  13:quantum/rgblight.c ****  * You should have received a copy of the GNU General Public License
  14:quantum/rgblight.c ****  * along with this program.  If not, see <http://www.gnu.org/licenses/>.
  15:quantum/rgblight.c ****  */
  16:quantum/rgblight.c **** #include <math.h>
  17:quantum/rgblight.c **** #include <string.h>
  18:quantum/rgblight.c **** #ifdef __AVR__
  19:quantum/rgblight.c **** #    include <avr/eeprom.h>
  20:quantum/rgblight.c **** #    include <avr/interrupt.h>
  21:quantum/rgblight.c **** #endif
  22:quantum/rgblight.c **** #ifdef EEPROM_ENABLE
  23:quantum/rgblight.c **** #    include "eeprom.h"
  24:quantum/rgblight.c **** #endif
  25:quantum/rgblight.c **** #ifdef STM32_EEPROM_ENABLE
  26:quantum/rgblight.c **** #    include "hal.h"
  27:quantum/rgblight.c **** #    include "eeprom_stm32.h"
  28:quantum/rgblight.c **** #endif
  29:quantum/rgblight.c **** #include "wait.h"
  30:quantum/rgblight.c **** #include "progmem.h"
  31:quantum/rgblight.c **** #include "timer.h"
  32:quantum/rgblight.c **** #include "rgblight.h"
  33:quantum/rgblight.c **** #include "color.h"
  34:quantum/rgblight.c **** #include "debug.h"
  35:quantum/rgblight.c **** #include "led_tables.h"
  36:quantum/rgblight.c **** #include "lib/lib8tion/lib8tion.h"
  37:quantum/rgblight.c **** #ifdef VELOCIKEY_ENABLE
  38:quantum/rgblight.c **** #    include "velocikey.h"
  39:quantum/rgblight.c **** #endif
  40:quantum/rgblight.c **** 
  41:quantum/rgblight.c **** #ifndef MIN
  42:quantum/rgblight.c **** #    define MIN(a, b) (((a) < (b)) ? (a) : (b))
  43:quantum/rgblight.c **** #endif
  44:quantum/rgblight.c **** 
  45:quantum/rgblight.c **** #ifdef RGBLIGHT_SPLIT
  46:quantum/rgblight.c **** /* for split keyboard */
  47:quantum/rgblight.c **** #    define RGBLIGHT_SPLIT_SET_CHANGE_MODE rgblight_status.change_flags |= RGBLIGHT_STATUS_CHANGE_M
  48:quantum/rgblight.c **** #    define RGBLIGHT_SPLIT_SET_CHANGE_HSVS rgblight_status.change_flags |= RGBLIGHT_STATUS_CHANGE_H
  49:quantum/rgblight.c **** #    define RGBLIGHT_SPLIT_SET_CHANGE_MODEHSVS rgblight_status.change_flags |= (RGBLIGHT_STATUS_CHA
  50:quantum/rgblight.c **** #    define RGBLIGHT_SPLIT_SET_CHANGE_LAYERS rgblight_status.change_flags |= RGBLIGHT_STATUS_CHANGE
  51:quantum/rgblight.c **** #    define RGBLIGHT_SPLIT_SET_CHANGE_TIMER_ENABLE rgblight_status.change_flags |= RGBLIGHT_STATUS_
  52:quantum/rgblight.c **** #    define RGBLIGHT_SPLIT_ANIMATION_TICK rgblight_status.change_flags |= RGBLIGHT_STATUS_ANIMATION
  53:quantum/rgblight.c **** #else
  54:quantum/rgblight.c **** #    define RGBLIGHT_SPLIT_SET_CHANGE_MODE
  55:quantum/rgblight.c **** #    define RGBLIGHT_SPLIT_SET_CHANGE_HSVS
  56:quantum/rgblight.c **** #    define RGBLIGHT_SPLIT_SET_CHANGE_MODEHSVS
  57:quantum/rgblight.c **** #    define RGBLIGHT_SPLIT_SET_CHANGE_LAYERS
  58:quantum/rgblight.c **** #    define RGBLIGHT_SPLIT_SET_CHANGE_TIMER_ENABLE
  59:quantum/rgblight.c **** #    define RGBLIGHT_SPLIT_ANIMATION_TICK
  60:quantum/rgblight.c **** #endif
  61:quantum/rgblight.c **** 
  62:quantum/rgblight.c **** #define _RGBM_SINGLE_STATIC(sym) RGBLIGHT_MODE_##sym,
  63:quantum/rgblight.c **** #define _RGBM_SINGLE_DYNAMIC(sym)
  64:quantum/rgblight.c **** #define _RGBM_MULTI_STATIC(sym) RGBLIGHT_MODE_##sym,
  65:quantum/rgblight.c **** #define _RGBM_MULTI_DYNAMIC(sym)
  66:quantum/rgblight.c **** #define _RGBM_TMP_STATIC(sym, msym) RGBLIGHT_MODE_##sym,
  67:quantum/rgblight.c **** #define _RGBM_TMP_DYNAMIC(sym, msym)
  68:quantum/rgblight.c **** static uint8_t static_effect_table[] = {
  69:quantum/rgblight.c **** #include "rgblight_modes.h"
  70:quantum/rgblight.c **** };
  71:quantum/rgblight.c **** 
  72:quantum/rgblight.c **** #define _RGBM_SINGLE_STATIC(sym) RGBLIGHT_MODE_##sym,
  73:quantum/rgblight.c **** #define _RGBM_SINGLE_DYNAMIC(sym) RGBLIGHT_MODE_##sym,
  74:quantum/rgblight.c **** #define _RGBM_MULTI_STATIC(sym) RGBLIGHT_MODE_##sym,
  75:quantum/rgblight.c **** #define _RGBM_MULTI_DYNAMIC(sym) RGBLIGHT_MODE_##sym,
  76:quantum/rgblight.c **** #define _RGBM_TMP_STATIC(sym, msym) RGBLIGHT_MODE_##msym,
  77:quantum/rgblight.c **** #define _RGBM_TMP_DYNAMIC(sym, msym) RGBLIGHT_MODE_##msym,
  78:quantum/rgblight.c **** static uint8_t mode_base_table[] = {
  79:quantum/rgblight.c ****     0,  // RGBLIGHT_MODE_zero
  80:quantum/rgblight.c **** #include "rgblight_modes.h"
  81:quantum/rgblight.c **** };
  82:quantum/rgblight.c **** 
  83:quantum/rgblight.c **** static inline int is_static_effect(uint8_t mode) { return memchr(static_effect_table, mode, sizeof(
  84:quantum/rgblight.c **** 
  85:quantum/rgblight.c **** #ifdef RGBLIGHT_LED_MAP
  86:quantum/rgblight.c **** const uint8_t led_map[] PROGMEM = RGBLIGHT_LED_MAP;
  87:quantum/rgblight.c **** #endif
  88:quantum/rgblight.c **** 
  89:quantum/rgblight.c **** #ifdef RGBLIGHT_EFFECT_STATIC_GRADIENT
  90:quantum/rgblight.c **** __attribute__((weak)) const uint8_t RGBLED_GRADIENT_RANGES[] PROGMEM = {255, 170, 127, 85, 64};
  91:quantum/rgblight.c **** #endif
  92:quantum/rgblight.c **** 
  93:quantum/rgblight.c **** rgblight_config_t rgblight_config;
  94:quantum/rgblight.c **** rgblight_status_t rgblight_status         = {.timer_enabled = false};
  95:quantum/rgblight.c **** bool              is_rgblight_initialized = false;
  96:quantum/rgblight.c **** 
  97:quantum/rgblight.c **** #ifdef RGBLIGHT_USE_TIMER
  98:quantum/rgblight.c **** animation_status_t animation_status = {};
  99:quantum/rgblight.c **** #endif
 100:quantum/rgblight.c **** 
 101:quantum/rgblight.c **** #ifndef LED_ARRAY
 102:quantum/rgblight.c **** LED_TYPE led[RGBLED_NUM];
 103:quantum/rgblight.c **** #    define LED_ARRAY led
 104:quantum/rgblight.c **** #endif
 105:quantum/rgblight.c **** 
 106:quantum/rgblight.c **** #ifdef RGBLIGHT_LAYERS
 107:quantum/rgblight.c **** rgblight_segment_t const *const *rgblight_layers = NULL;
 108:quantum/rgblight.c **** #endif
 109:quantum/rgblight.c **** 
 110:quantum/rgblight.c **** static uint8_t clipping_start_pos = 0;
 111:quantum/rgblight.c **** static uint8_t clipping_num_leds  = RGBLED_NUM;
 112:quantum/rgblight.c **** static uint8_t effect_start_pos   = 0;
 113:quantum/rgblight.c **** static uint8_t effect_end_pos     = RGBLED_NUM;
 114:quantum/rgblight.c **** static uint8_t effect_num_leds    = RGBLED_NUM;
 115:quantum/rgblight.c **** 
 116:quantum/rgblight.c **** void rgblight_set_clipping_range(uint8_t start_pos, uint8_t num_leds) {
 117:quantum/rgblight.c ****     clipping_start_pos = start_pos;
 118:quantum/rgblight.c ****     clipping_num_leds  = num_leds;
 119:quantum/rgblight.c **** }
 120:quantum/rgblight.c **** 
 121:quantum/rgblight.c **** void rgblight_set_effect_range(uint8_t start_pos, uint8_t num_leds) {
 122:quantum/rgblight.c ****     if (start_pos >= RGBLED_NUM) return;
 123:quantum/rgblight.c ****     if (start_pos + num_leds > RGBLED_NUM) return;
 124:quantum/rgblight.c ****     effect_start_pos = start_pos;
 125:quantum/rgblight.c ****     effect_end_pos   = start_pos + num_leds;
 126:quantum/rgblight.c ****     effect_num_leds  = num_leds;
 127:quantum/rgblight.c **** }
 128:quantum/rgblight.c **** 
 129:quantum/rgblight.c **** void sethsv_raw(uint8_t hue, uint8_t sat, uint8_t val, LED_TYPE *led1) {
 130:quantum/rgblight.c ****     HSV hsv = {hue, sat, val};
 131:quantum/rgblight.c ****     RGB rgb = hsv_to_rgb(hsv);
 132:quantum/rgblight.c ****     setrgb(rgb.r, rgb.g, rgb.b, led1);
 133:quantum/rgblight.c **** }
 134:quantum/rgblight.c **** 
 135:quantum/rgblight.c **** void sethsv(uint8_t hue, uint8_t sat, uint8_t val, LED_TYPE *led1) { sethsv_raw(hue, sat, val > RGB
 136:quantum/rgblight.c **** 
 137:quantum/rgblight.c **** void setrgb(uint8_t r, uint8_t g, uint8_t b, LED_TYPE *led1) {
 138:quantum/rgblight.c ****     (*led1).r = r;
 139:quantum/rgblight.c ****     (*led1).g = g;
 140:quantum/rgblight.c ****     (*led1).b = b;
 141:quantum/rgblight.c **** #ifdef RGBW
 142:quantum/rgblight.c ****     (*led1).w = 0;
 143:quantum/rgblight.c **** #endif
 144:quantum/rgblight.c **** }
 145:quantum/rgblight.c **** 
 146:quantum/rgblight.c **** void rgblight_check_config(void) {
 147:quantum/rgblight.c ****     /* Add some out of bound checks for RGB light config */
 148:quantum/rgblight.c **** 
 149:quantum/rgblight.c ****     if (rgblight_config.mode < RGBLIGHT_MODE_STATIC_LIGHT) {
 150:quantum/rgblight.c ****         rgblight_config.mode = RGBLIGHT_MODE_STATIC_LIGHT;
 151:quantum/rgblight.c ****     } else if (rgblight_config.mode > RGBLIGHT_MODES) {
 152:quantum/rgblight.c ****         rgblight_config.mode = RGBLIGHT_MODES;
 153:quantum/rgblight.c ****     }
 154:quantum/rgblight.c **** 
 155:quantum/rgblight.c ****     if (rgblight_config.val > RGBLIGHT_LIMIT_VAL) {
 156:quantum/rgblight.c ****         rgblight_config.val = RGBLIGHT_LIMIT_VAL;
 157:quantum/rgblight.c ****     }
 158:quantum/rgblight.c **** }
 159:quantum/rgblight.c **** 
 160:quantum/rgblight.c **** uint32_t eeconfig_read_rgblight(void) {
 161:quantum/rgblight.c **** #ifdef EEPROM_ENABLE
 162:quantum/rgblight.c ****     return eeprom_read_dword(EECONFIG_RGBLIGHT);
 163:quantum/rgblight.c **** #else
 164:quantum/rgblight.c ****     return 0;
 165:quantum/rgblight.c **** #endif
 166:quantum/rgblight.c **** }
 167:quantum/rgblight.c **** 
 168:quantum/rgblight.c **** void eeconfig_update_rgblight(uint32_t val) {
 169:quantum/rgblight.c **** #ifdef EEPROM_ENABLE
 170:quantum/rgblight.c ****     rgblight_check_config();
 171:quantum/rgblight.c ****     eeprom_update_dword(EECONFIG_RGBLIGHT, val);
 172:quantum/rgblight.c **** #endif
 173:quantum/rgblight.c **** }
 174:quantum/rgblight.c **** 
 175:quantum/rgblight.c **** void eeconfig_update_rgblight_current(void) { eeconfig_update_rgblight(rgblight_config.raw); }
 176:quantum/rgblight.c **** 
 177:quantum/rgblight.c **** void eeconfig_update_rgblight_default(void) {
 178:quantum/rgblight.c ****     rgblight_config.enable = 1;
 179:quantum/rgblight.c ****     rgblight_config.mode   = RGBLIGHT_MODE_STATIC_LIGHT;
 180:quantum/rgblight.c ****     rgblight_config.hue    = 0;
 181:quantum/rgblight.c ****     rgblight_config.sat    = UINT8_MAX;
 182:quantum/rgblight.c ****     rgblight_config.val    = RGBLIGHT_LIMIT_VAL;
 183:quantum/rgblight.c ****     rgblight_config.speed  = 0;
 184:quantum/rgblight.c ****     RGBLIGHT_SPLIT_SET_CHANGE_MODEHSVS;
 185:quantum/rgblight.c ****     eeconfig_update_rgblight(rgblight_config.raw);
 186:quantum/rgblight.c **** }
 187:quantum/rgblight.c **** 
 188:quantum/rgblight.c **** void eeconfig_debug_rgblight(void) {
 189:quantum/rgblight.c ****     dprintf("rgblight_config EEPROM:\n");
 190:quantum/rgblight.c ****     dprintf("rgblight_config.enable = %d\n", rgblight_config.enable);
 191:quantum/rgblight.c ****     dprintf("rghlight_config.mode = %d\n", rgblight_config.mode);
 192:quantum/rgblight.c ****     dprintf("rgblight_config.hue = %d\n", rgblight_config.hue);
 193:quantum/rgblight.c ****     dprintf("rgblight_config.sat = %d\n", rgblight_config.sat);
 194:quantum/rgblight.c ****     dprintf("rgblight_config.val = %d\n", rgblight_config.val);
 195:quantum/rgblight.c ****     dprintf("rgblight_config.speed = %d\n", rgblight_config.speed);
 196:quantum/rgblight.c **** }
 197:quantum/rgblight.c **** 
 198:quantum/rgblight.c **** void rgblight_init(void) {
 199:quantum/rgblight.c ****     /* if already initialized, don't do it again.
 200:quantum/rgblight.c ****        If you must do it again, extern this and set to false, first.
 201:quantum/rgblight.c ****        This is a dirty, dirty hack until proper hooks can be added for keyboard startup. */
 202:quantum/rgblight.c ****     if (is_rgblight_initialized) {
 203:quantum/rgblight.c ****         return;
 204:quantum/rgblight.c ****     }
 205:quantum/rgblight.c **** 
 206:quantum/rgblight.c ****     dprintf("rgblight_init called.\n");
 207:quantum/rgblight.c ****     dprintf("rgblight_init start!\n");
 208:quantum/rgblight.c ****     if (!eeconfig_is_enabled()) {
 209:quantum/rgblight.c ****         dprintf("rgblight_init eeconfig is not enabled.\n");
 210:quantum/rgblight.c ****         eeconfig_init();
 211:quantum/rgblight.c ****         eeconfig_update_rgblight_default();
 212:quantum/rgblight.c ****     }
 213:quantum/rgblight.c ****     rgblight_config.raw = eeconfig_read_rgblight();
 214:quantum/rgblight.c ****     RGBLIGHT_SPLIT_SET_CHANGE_MODEHSVS;
 215:quantum/rgblight.c ****     if (!rgblight_config.mode) {
 216:quantum/rgblight.c ****         dprintf("rgblight_init rgblight_config.mode = 0. Write default values to EEPROM.\n");
 217:quantum/rgblight.c ****         eeconfig_update_rgblight_default();
 218:quantum/rgblight.c ****         rgblight_config.raw = eeconfig_read_rgblight();
 219:quantum/rgblight.c ****     }
 220:quantum/rgblight.c ****     rgblight_check_config();
 221:quantum/rgblight.c **** 
 222:quantum/rgblight.c ****     eeconfig_debug_rgblight();  // display current eeprom values
 223:quantum/rgblight.c **** 
 224:quantum/rgblight.c ****     rgblight_timer_init();  // setup the timer
 225:quantum/rgblight.c **** 
 226:quantum/rgblight.c ****     if (rgblight_config.enable) {
 227:quantum/rgblight.c ****         rgblight_mode_noeeprom(rgblight_config.mode);
 228:quantum/rgblight.c ****     }
 229:quantum/rgblight.c **** 
 230:quantum/rgblight.c ****     is_rgblight_initialized = true;
 231:quantum/rgblight.c **** }
 232:quantum/rgblight.c **** 
 233:quantum/rgblight.c **** uint32_t rgblight_read_dword(void) { return rgblight_config.raw; }
 234:quantum/rgblight.c **** 
 235:quantum/rgblight.c **** void rgblight_update_dword(uint32_t dword) {
 236:quantum/rgblight.c ****     RGBLIGHT_SPLIT_SET_CHANGE_MODEHSVS;
 237:quantum/rgblight.c ****     rgblight_config.raw = dword;
 238:quantum/rgblight.c ****     if (rgblight_config.enable)
 239:quantum/rgblight.c ****         rgblight_mode_noeeprom(rgblight_config.mode);
 240:quantum/rgblight.c ****     else {
 241:quantum/rgblight.c ****         rgblight_timer_disable();
 242:quantum/rgblight.c ****         rgblight_set();
 243:quantum/rgblight.c ****     }
 244:quantum/rgblight.c **** }
 245:quantum/rgblight.c **** 
 246:quantum/rgblight.c **** void rgblight_increase(void) {
 247:quantum/rgblight.c ****     uint8_t mode = 0;
 248:quantum/rgblight.c ****     if (rgblight_config.mode < RGBLIGHT_MODES) {
 249:quantum/rgblight.c ****         mode = rgblight_config.mode + 1;
 250:quantum/rgblight.c ****     }
 251:quantum/rgblight.c ****     rgblight_mode(mode);
 252:quantum/rgblight.c **** }
 253:quantum/rgblight.c **** void rgblight_decrease(void) {
 254:quantum/rgblight.c ****     uint8_t mode = 0;
 255:quantum/rgblight.c ****     // Mode will never be < 1. If it ever is, eeprom needs to be initialized.
 256:quantum/rgblight.c ****     if (rgblight_config.mode > RGBLIGHT_MODE_STATIC_LIGHT) {
 257:quantum/rgblight.c ****         mode = rgblight_config.mode - 1;
 258:quantum/rgblight.c ****     }
 259:quantum/rgblight.c ****     rgblight_mode(mode);
 260:quantum/rgblight.c **** }
 261:quantum/rgblight.c **** void rgblight_step_helper(bool write_to_eeprom) {
 262:quantum/rgblight.c ****     uint8_t mode = 0;
 263:quantum/rgblight.c ****     mode         = rgblight_config.mode + 1;
 264:quantum/rgblight.c ****     if (mode > RGBLIGHT_MODES) {
 265:quantum/rgblight.c ****         mode = 1;
 266:quantum/rgblight.c ****     }
 267:quantum/rgblight.c ****     rgblight_mode_eeprom_helper(mode, write_to_eeprom);
 268:quantum/rgblight.c **** }
 269:quantum/rgblight.c **** void rgblight_step_noeeprom(void) { rgblight_step_helper(false); }
 270:quantum/rgblight.c **** void rgblight_step(void) { rgblight_step_helper(true); }
 271:quantum/rgblight.c **** void rgblight_step_reverse_helper(bool write_to_eeprom) {
 272:quantum/rgblight.c ****     uint8_t mode = 0;
 273:quantum/rgblight.c ****     mode         = rgblight_config.mode - 1;
 274:quantum/rgblight.c ****     if (mode < 1) {
 275:quantum/rgblight.c ****         mode = RGBLIGHT_MODES;
 276:quantum/rgblight.c ****     }
 277:quantum/rgblight.c ****     rgblight_mode_eeprom_helper(mode, write_to_eeprom);
 278:quantum/rgblight.c **** }
 279:quantum/rgblight.c **** void rgblight_step_reverse_noeeprom(void) { rgblight_step_reverse_helper(false); }
 280:quantum/rgblight.c **** void rgblight_step_reverse(void) { rgblight_step_reverse_helper(true); }
 281:quantum/rgblight.c **** 
 282:quantum/rgblight.c **** uint8_t rgblight_get_mode(void) {
 283:quantum/rgblight.c ****     if (!rgblight_config.enable) {
 284:quantum/rgblight.c ****         return false;
 285:quantum/rgblight.c ****     }
 286:quantum/rgblight.c **** 
 287:quantum/rgblight.c ****     return rgblight_config.mode;
 288:quantum/rgblight.c **** }
 289:quantum/rgblight.c **** 
 290:quantum/rgblight.c **** void rgblight_mode_eeprom_helper(uint8_t mode, bool write_to_eeprom) {
 291:quantum/rgblight.c ****     if (!rgblight_config.enable) {
 292:quantum/rgblight.c ****         return;
 293:quantum/rgblight.c ****     }
 294:quantum/rgblight.c ****     if (mode < RGBLIGHT_MODE_STATIC_LIGHT) {
 295:quantum/rgblight.c ****         rgblight_config.mode = RGBLIGHT_MODE_STATIC_LIGHT;
 296:quantum/rgblight.c ****     } else if (mode > RGBLIGHT_MODES) {
 297:quantum/rgblight.c ****         rgblight_config.mode = RGBLIGHT_MODES;
 298:quantum/rgblight.c ****     } else {
 299:quantum/rgblight.c ****         rgblight_config.mode = mode;
 300:quantum/rgblight.c ****     }
 301:quantum/rgblight.c ****     RGBLIGHT_SPLIT_SET_CHANGE_MODE;
 302:quantum/rgblight.c ****     if (write_to_eeprom) {
 303:quantum/rgblight.c ****         eeconfig_update_rgblight(rgblight_config.raw);
 304:quantum/rgblight.c ****         dprintf("rgblight mode [EEPROM]: %u\n", rgblight_config.mode);
 305:quantum/rgblight.c ****     } else {
 306:quantum/rgblight.c ****         dprintf("rgblight mode [NOEEPROM]: %u\n", rgblight_config.mode);
 307:quantum/rgblight.c ****     }
 308:quantum/rgblight.c ****     if (is_static_effect(rgblight_config.mode)) {
 309:quantum/rgblight.c ****         rgblight_timer_disable();
 310:quantum/rgblight.c ****     } else {
 311:quantum/rgblight.c ****         rgblight_timer_enable();
 312:quantum/rgblight.c ****     }
 313:quantum/rgblight.c **** #ifdef RGBLIGHT_USE_TIMER
 314:quantum/rgblight.c ****     animation_status.restart = true;
 315:quantum/rgblight.c **** #endif
 316:quantum/rgblight.c ****     rgblight_sethsv_noeeprom(rgblight_config.hue, rgblight_config.sat, rgblight_config.val);
 317:quantum/rgblight.c **** }
 318:quantum/rgblight.c **** 
 319:quantum/rgblight.c **** void rgblight_mode(uint8_t mode) { rgblight_mode_eeprom_helper(mode, true); }
 320:quantum/rgblight.c **** 
 321:quantum/rgblight.c **** void rgblight_mode_noeeprom(uint8_t mode) { rgblight_mode_eeprom_helper(mode, false); }
 322:quantum/rgblight.c **** 
 323:quantum/rgblight.c **** void rgblight_toggle(void) {
 324:quantum/rgblight.c ****     dprintf("rgblight toggle [EEPROM]: rgblight_config.enable = %u\n", !rgblight_config.enable);
 325:quantum/rgblight.c ****     if (rgblight_config.enable) {
 326:quantum/rgblight.c ****         rgblight_disable();
 327:quantum/rgblight.c ****     } else {
 328:quantum/rgblight.c ****         rgblight_enable();
 329:quantum/rgblight.c ****     }
 330:quantum/rgblight.c **** }
 331:quantum/rgblight.c **** 
 332:quantum/rgblight.c **** void rgblight_toggle_noeeprom(void) {
 333:quantum/rgblight.c ****     dprintf("rgblight toggle [NOEEPROM]: rgblight_config.enable = %u\n", !rgblight_config.enable);
 334:quantum/rgblight.c ****     if (rgblight_config.enable) {
 335:quantum/rgblight.c ****         rgblight_disable_noeeprom();
 336:quantum/rgblight.c ****     } else {
 337:quantum/rgblight.c ****         rgblight_enable_noeeprom();
 338:quantum/rgblight.c ****     }
 339:quantum/rgblight.c **** }
 340:quantum/rgblight.c **** 
 341:quantum/rgblight.c **** void rgblight_enable(void) {
 342:quantum/rgblight.c ****     rgblight_config.enable = 1;
 343:quantum/rgblight.c ****     // No need to update EEPROM here. rgblight_mode() will do that, actually
 344:quantum/rgblight.c ****     // eeconfig_update_rgblight(rgblight_config.raw);
 345:quantum/rgblight.c ****     dprintf("rgblight enable [EEPROM]: rgblight_config.enable = %u\n", rgblight_config.enable);
 346:quantum/rgblight.c ****     rgblight_mode(rgblight_config.mode);
 347:quantum/rgblight.c **** }
 348:quantum/rgblight.c **** 
 349:quantum/rgblight.c **** void rgblight_enable_noeeprom(void) {
 350:quantum/rgblight.c ****     rgblight_config.enable = 1;
 351:quantum/rgblight.c ****     dprintf("rgblight enable [NOEEPROM]: rgblight_config.enable = %u\n", rgblight_config.enable);
 352:quantum/rgblight.c ****     rgblight_mode_noeeprom(rgblight_config.mode);
 353:quantum/rgblight.c **** }
 354:quantum/rgblight.c **** 
 355:quantum/rgblight.c **** void rgblight_disable(void) {
 356:quantum/rgblight.c ****     rgblight_config.enable = 0;
 357:quantum/rgblight.c ****     eeconfig_update_rgblight(rgblight_config.raw);
 358:quantum/rgblight.c ****     dprintf("rgblight disable [EEPROM]: rgblight_config.enable = %u\n", rgblight_config.enable);
 359:quantum/rgblight.c ****     rgblight_timer_disable();
 360:quantum/rgblight.c ****     RGBLIGHT_SPLIT_SET_CHANGE_MODE;
 361:quantum/rgblight.c ****     wait_ms(50);
 362:quantum/rgblight.c ****     rgblight_set();
 363:quantum/rgblight.c **** }
 364:quantum/rgblight.c **** 
 365:quantum/rgblight.c **** void rgblight_disable_noeeprom(void) {
 366:quantum/rgblight.c ****     rgblight_config.enable = 0;
 367:quantum/rgblight.c ****     dprintf("rgblight disable [NOEEPROM]: rgblight_config.enable = %u\n", rgblight_config.enable);
 368:quantum/rgblight.c ****     rgblight_timer_disable();
 369:quantum/rgblight.c ****     RGBLIGHT_SPLIT_SET_CHANGE_MODE;
 370:quantum/rgblight.c ****     wait_ms(50);
 371:quantum/rgblight.c ****     rgblight_set();
 372:quantum/rgblight.c **** }
 373:quantum/rgblight.c **** 
 374:quantum/rgblight.c **** void rgblight_increase_hue_helper(bool write_to_eeprom) {
 375:quantum/rgblight.c ****     uint8_t hue = rgblight_config.hue + RGBLIGHT_HUE_STEP;
 376:quantum/rgblight.c ****     rgblight_sethsv_eeprom_helper(hue, rgblight_config.sat, rgblight_config.val, write_to_eeprom);
 377:quantum/rgblight.c **** }
 378:quantum/rgblight.c **** void rgblight_increase_hue_noeeprom(void) { rgblight_increase_hue_helper(false); }
 379:quantum/rgblight.c **** void rgblight_increase_hue(void) { rgblight_increase_hue_helper(true); }
 380:quantum/rgblight.c **** void rgblight_decrease_hue_helper(bool write_to_eeprom) {
 381:quantum/rgblight.c ****     uint8_t hue = rgblight_config.hue - RGBLIGHT_HUE_STEP;
 382:quantum/rgblight.c ****     rgblight_sethsv_eeprom_helper(hue, rgblight_config.sat, rgblight_config.val, write_to_eeprom);
 383:quantum/rgblight.c **** }
 384:quantum/rgblight.c **** void rgblight_decrease_hue_noeeprom(void) { rgblight_decrease_hue_helper(false); }
 385:quantum/rgblight.c **** void rgblight_decrease_hue(void) { rgblight_decrease_hue_helper(true); }
 386:quantum/rgblight.c **** void rgblight_increase_sat_helper(bool write_to_eeprom) {
 387:quantum/rgblight.c ****     uint8_t sat = qadd8(rgblight_config.sat, RGBLIGHT_SAT_STEP);
 388:quantum/rgblight.c ****     rgblight_sethsv_eeprom_helper(rgblight_config.hue, sat, rgblight_config.val, write_to_eeprom);
 389:quantum/rgblight.c **** }
 390:quantum/rgblight.c **** void rgblight_increase_sat_noeeprom(void) { rgblight_increase_sat_helper(false); }
 391:quantum/rgblight.c **** void rgblight_increase_sat(void) { rgblight_increase_sat_helper(true); }
 392:quantum/rgblight.c **** void rgblight_decrease_sat_helper(bool write_to_eeprom) {
 393:quantum/rgblight.c ****     uint8_t sat = qsub8(rgblight_config.sat, RGBLIGHT_SAT_STEP);
 394:quantum/rgblight.c ****     rgblight_sethsv_eeprom_helper(rgblight_config.hue, sat, rgblight_config.val, write_to_eeprom);
 395:quantum/rgblight.c **** }
 396:quantum/rgblight.c **** void rgblight_decrease_sat_noeeprom(void) { rgblight_decrease_sat_helper(false); }
 397:quantum/rgblight.c **** void rgblight_decrease_sat(void) { rgblight_decrease_sat_helper(true); }
 398:quantum/rgblight.c **** void rgblight_increase_val_helper(bool write_to_eeprom) {
 399:quantum/rgblight.c ****     uint8_t val = qadd8(rgblight_config.val, RGBLIGHT_VAL_STEP);
 400:quantum/rgblight.c ****     rgblight_sethsv_eeprom_helper(rgblight_config.hue, rgblight_config.sat, val, write_to_eeprom);
 401:quantum/rgblight.c **** }
 402:quantum/rgblight.c **** void rgblight_increase_val_noeeprom(void) { rgblight_increase_val_helper(false); }
 403:quantum/rgblight.c **** void rgblight_increase_val(void) { rgblight_increase_val_helper(true); }
 404:quantum/rgblight.c **** void rgblight_decrease_val_helper(bool write_to_eeprom) {
 405:quantum/rgblight.c ****     uint8_t val = qsub8(rgblight_config.val, RGBLIGHT_VAL_STEP);
 406:quantum/rgblight.c ****     rgblight_sethsv_eeprom_helper(rgblight_config.hue, rgblight_config.sat, val, write_to_eeprom);
 407:quantum/rgblight.c **** }
 408:quantum/rgblight.c **** void rgblight_decrease_val_noeeprom(void) { rgblight_decrease_val_helper(false); }
 409:quantum/rgblight.c **** void rgblight_decrease_val(void) { rgblight_decrease_val_helper(true); }
 410:quantum/rgblight.c **** void rgblight_increase_speed(void) {
 411:quantum/rgblight.c ****     if (rgblight_config.speed < 3) rgblight_config.speed++;
 412:quantum/rgblight.c ****     // RGBLIGHT_SPLIT_SET_CHANGE_HSVS; // NEED?
 413:quantum/rgblight.c ****     eeconfig_update_rgblight(rgblight_config.raw);  // EECONFIG needs to be increased to support th
 414:quantum/rgblight.c **** }
 415:quantum/rgblight.c **** 
 416:quantum/rgblight.c **** void rgblight_decrease_speed(void) {
 417:quantum/rgblight.c ****     if (rgblight_config.speed > 0) rgblight_config.speed--;
 418:quantum/rgblight.c ****     // RGBLIGHT_SPLIT_SET_CHANGE_HSVS; // NEED??
 419:quantum/rgblight.c ****     eeconfig_update_rgblight(rgblight_config.raw);  // EECONFIG needs to be increased to support th
 420:quantum/rgblight.c **** }
 421:quantum/rgblight.c **** 
 422:quantum/rgblight.c **** void rgblight_sethsv_noeeprom_old(uint8_t hue, uint8_t sat, uint8_t val) {
 423:quantum/rgblight.c ****     if (rgblight_config.enable) {
 424:quantum/rgblight.c ****         LED_TYPE tmp_led;
 425:quantum/rgblight.c ****         sethsv(hue, sat, val, &tmp_led);
 426:quantum/rgblight.c ****         rgblight_setrgb(tmp_led.r, tmp_led.g, tmp_led.b);
 427:quantum/rgblight.c ****     }
 428:quantum/rgblight.c **** }
 429:quantum/rgblight.c **** 
 430:quantum/rgblight.c **** void rgblight_sethsv_eeprom_helper(uint8_t hue, uint8_t sat, uint8_t val, bool write_to_eeprom) {
 431:quantum/rgblight.c ****     if (rgblight_config.enable) {
 432:quantum/rgblight.c ****         rgblight_status.base_mode = mode_base_table[rgblight_config.mode];
 433:quantum/rgblight.c ****         if (rgblight_config.mode == RGBLIGHT_MODE_STATIC_LIGHT) {
 434:quantum/rgblight.c ****             // same static color
 435:quantum/rgblight.c ****             LED_TYPE tmp_led;
 436:quantum/rgblight.c ****             sethsv(hue, sat, val, &tmp_led);
 437:quantum/rgblight.c ****             rgblight_setrgb(tmp_led.r, tmp_led.g, tmp_led.b);
 438:quantum/rgblight.c ****         } else {
 439:quantum/rgblight.c ****             // all LEDs in same color
 440:quantum/rgblight.c ****             if (1 == 0) {  // dummy
 441:quantum/rgblight.c ****             }
 442:quantum/rgblight.c **** #ifdef RGBLIGHT_EFFECT_BREATHING
 443:quantum/rgblight.c ****             else if (rgblight_status.base_mode == RGBLIGHT_MODE_BREATHING) {
 444:quantum/rgblight.c ****                 // breathing mode, ignore the change of val, use in memory value instead
 445:quantum/rgblight.c ****                 val = rgblight_config.val;
 446:quantum/rgblight.c ****             }
 447:quantum/rgblight.c **** #endif
 448:quantum/rgblight.c **** #ifdef RGBLIGHT_EFFECT_RAINBOW_MOOD
 449:quantum/rgblight.c ****             else if (rgblight_status.base_mode == RGBLIGHT_MODE_RAINBOW_MOOD) {
 450:quantum/rgblight.c ****                 // rainbow mood, ignore the change of hue
 451:quantum/rgblight.c ****                 hue = rgblight_config.hue;
 452:quantum/rgblight.c ****             }
 453:quantum/rgblight.c **** #endif
 454:quantum/rgblight.c **** #ifdef RGBLIGHT_EFFECT_RAINBOW_SWIRL
 455:quantum/rgblight.c ****             else if (rgblight_status.base_mode == RGBLIGHT_MODE_RAINBOW_SWIRL) {
 456:quantum/rgblight.c ****                 // rainbow swirl, ignore the change of hue
 457:quantum/rgblight.c ****                 hue = rgblight_config.hue;
 458:quantum/rgblight.c ****             }
 459:quantum/rgblight.c **** #endif
 460:quantum/rgblight.c **** #ifdef RGBLIGHT_EFFECT_STATIC_GRADIENT
 461:quantum/rgblight.c ****             else if (rgblight_status.base_mode == RGBLIGHT_MODE_STATIC_GRADIENT) {
 462:quantum/rgblight.c ****                 // static gradient
 463:quantum/rgblight.c ****                 uint8_t delta     = rgblight_config.mode - rgblight_status.base_mode;
 464:quantum/rgblight.c ****                 bool    direction = (delta % 2) == 0;
 465:quantum/rgblight.c **** #    ifdef __AVR__
 466:quantum/rgblight.c ****                 // probably due to how pgm_read_word is defined for ARM, but the ARM compiler reall
 467:quantum/rgblight.c ****                 uint8_t range = pgm_read_word(&RGBLED_GRADIENT_RANGES[delta / 2]);
 468:quantum/rgblight.c **** #    else
 469:quantum/rgblight.c ****                 uint8_t range = RGBLED_GRADIENT_RANGES[delta / 2];
 470:quantum/rgblight.c **** #    endif
 471:quantum/rgblight.c ****                 for (uint8_t i = 0; i < effect_num_leds; i++) {
 472:quantum/rgblight.c ****                     uint8_t _hue = ((uint16_t)i * (uint16_t)range) / effect_num_leds;
 473:quantum/rgblight.c ****                     if (direction) {
 474:quantum/rgblight.c ****                         _hue = hue + _hue;
 475:quantum/rgblight.c ****                     } else {
 476:quantum/rgblight.c ****                         _hue = hue - _hue;
 477:quantum/rgblight.c ****                     }
 478:quantum/rgblight.c ****                     dprintf("rgblight rainbow set hsv: %d,%d,%d,%u\n", i, _hue, direction, range);
 479:quantum/rgblight.c ****                     sethsv(_hue, sat, val, (LED_TYPE *)&led[i + effect_start_pos]);
 480:quantum/rgblight.c ****                 }
 481:quantum/rgblight.c ****                 rgblight_set();
 482:quantum/rgblight.c ****             }
 483:quantum/rgblight.c **** #endif
 484:quantum/rgblight.c ****         }
 485:quantum/rgblight.c **** #ifdef RGBLIGHT_SPLIT
 486:quantum/rgblight.c ****         if (rgblight_config.hue != hue || rgblight_config.sat != sat || rgblight_config.val != val)
 487:quantum/rgblight.c ****             RGBLIGHT_SPLIT_SET_CHANGE_HSVS;
 488:quantum/rgblight.c ****         }
 489:quantum/rgblight.c **** #endif
 490:quantum/rgblight.c ****         rgblight_config.hue = hue;
 491:quantum/rgblight.c ****         rgblight_config.sat = sat;
 492:quantum/rgblight.c ****         rgblight_config.val = val;
 493:quantum/rgblight.c ****         if (write_to_eeprom) {
 494:quantum/rgblight.c ****             eeconfig_update_rgblight(rgblight_config.raw);
 495:quantum/rgblight.c ****             dprintf("rgblight set hsv [EEPROM]: %u,%u,%u\n", rgblight_config.hue, rgblight_config.s
 496:quantum/rgblight.c ****         } else {
 497:quantum/rgblight.c ****             dprintf("rgblight set hsv [NOEEPROM]: %u,%u,%u\n", rgblight_config.hue, rgblight_config
 498:quantum/rgblight.c ****         }
 499:quantum/rgblight.c ****     }
 500:quantum/rgblight.c **** }
 501:quantum/rgblight.c **** 
 502:quantum/rgblight.c **** void rgblight_sethsv(uint8_t hue, uint8_t sat, uint8_t val) { rgblight_sethsv_eeprom_helper(hue, sa
 503:quantum/rgblight.c **** 
 504:quantum/rgblight.c **** void rgblight_sethsv_noeeprom(uint8_t hue, uint8_t sat, uint8_t val) { rgblight_sethsv_eeprom_helpe
 505:quantum/rgblight.c **** 
 506:quantum/rgblight.c **** uint8_t rgblight_get_speed(void) { return rgblight_config.speed; }
 507:quantum/rgblight.c **** 
 508:quantum/rgblight.c **** void rgblight_set_speed_eeprom_helper(uint8_t speed, bool write_to_eeprom) {
 509:quantum/rgblight.c ****     rgblight_config.speed = speed;
 510:quantum/rgblight.c ****     if (write_to_eeprom) {
 511:quantum/rgblight.c ****         eeconfig_update_rgblight(rgblight_config.raw);  // EECONFIG needs to be increased to suppor
 512:quantum/rgblight.c ****         dprintf("rgblight set speed [EEPROM]: %u\n", rgblight_config.speed);
 513:quantum/rgblight.c ****     } else {
 514:quantum/rgblight.c ****         dprintf("rgblight set speed [NOEEPROM]: %u\n", rgblight_config.speed);
 515:quantum/rgblight.c ****     }
 516:quantum/rgblight.c **** }
 517:quantum/rgblight.c **** 
 518:quantum/rgblight.c **** void rgblight_set_speed(uint8_t speed) { rgblight_set_speed_eeprom_helper(speed, true); }
 519:quantum/rgblight.c **** 
 520:quantum/rgblight.c **** void rgblight_set_speed_noeeprom(uint8_t speed) { rgblight_set_speed_eeprom_helper(speed, false); }
 521:quantum/rgblight.c **** 
 522:quantum/rgblight.c **** uint8_t rgblight_get_hue(void) { return rgblight_config.hue; }
 523:quantum/rgblight.c **** 
 524:quantum/rgblight.c **** uint8_t rgblight_get_sat(void) { return rgblight_config.sat; }
 525:quantum/rgblight.c **** 
 526:quantum/rgblight.c **** uint8_t rgblight_get_val(void) { return rgblight_config.val; }
 527:quantum/rgblight.c **** 
 528:quantum/rgblight.c **** void rgblight_setrgb(uint8_t r, uint8_t g, uint8_t b) {
 529:quantum/rgblight.c ****     if (!rgblight_config.enable) {
 530:quantum/rgblight.c ****         return;
 531:quantum/rgblight.c ****     }
 532:quantum/rgblight.c **** 
 533:quantum/rgblight.c ****     for (uint8_t i = effect_start_pos; i < effect_end_pos; i++) {
 534:quantum/rgblight.c ****         led[i].r = r;
 535:quantum/rgblight.c ****         led[i].g = g;
 536:quantum/rgblight.c ****         led[i].b = b;
 537:quantum/rgblight.c **** #ifdef RGBW
 538:quantum/rgblight.c ****         led[i].w = 0;
 539:quantum/rgblight.c **** #endif
 540:quantum/rgblight.c ****     }
 541:quantum/rgblight.c ****     rgblight_set();
 542:quantum/rgblight.c **** }
 543:quantum/rgblight.c **** 
 544:quantum/rgblight.c **** void rgblight_setrgb_at(uint8_t r, uint8_t g, uint8_t b, uint8_t index) {
 545:quantum/rgblight.c ****     if (!rgblight_config.enable || index >= RGBLED_NUM) {
 546:quantum/rgblight.c ****         return;
 547:quantum/rgblight.c ****     }
 548:quantum/rgblight.c **** 
 549:quantum/rgblight.c ****     led[index].r = r;
 550:quantum/rgblight.c ****     led[index].g = g;
 551:quantum/rgblight.c ****     led[index].b = b;
 552:quantum/rgblight.c **** #ifdef RGBW
 553:quantum/rgblight.c ****     led[index].w = 0;
 554:quantum/rgblight.c **** #endif
 555:quantum/rgblight.c ****     rgblight_set();
 556:quantum/rgblight.c **** }
 557:quantum/rgblight.c **** 
 558:quantum/rgblight.c **** void rgblight_sethsv_at(uint8_t hue, uint8_t sat, uint8_t val, uint8_t index) {
 559:quantum/rgblight.c ****     if (!rgblight_config.enable) {
 560:quantum/rgblight.c ****         return;
 561:quantum/rgblight.c ****     }
 562:quantum/rgblight.c **** 
 563:quantum/rgblight.c ****     LED_TYPE tmp_led;
 564:quantum/rgblight.c ****     sethsv(hue, sat, val, &tmp_led);
 565:quantum/rgblight.c ****     rgblight_setrgb_at(tmp_led.r, tmp_led.g, tmp_led.b, index);
 566:quantum/rgblight.c **** }
 567:quantum/rgblight.c **** 
 568:quantum/rgblight.c **** #if defined(RGBLIGHT_EFFECT_BREATHING) || defined(RGBLIGHT_EFFECT_RAINBOW_MOOD) || defined(RGBLIGHT
 569:quantum/rgblight.c **** 
 570:quantum/rgblight.c **** static uint8_t get_interval_time(const uint8_t *default_interval_address, uint8_t velocikey_min, ui
 571:quantum/rgblight.c ****     return
 572:quantum/rgblight.c **** #    ifdef VELOCIKEY_ENABLE
 573:quantum/rgblight.c ****         velocikey_enabled() ? velocikey_match_speed(velocikey_min, velocikey_max) :
 574:quantum/rgblight.c **** #    endif
 575:quantum/rgblight.c ****                             pgm_read_byte(default_interval_address);
 576:quantum/rgblight.c **** }
 577:quantum/rgblight.c **** 
 578:quantum/rgblight.c **** #endif
 579:quantum/rgblight.c **** 
 580:quantum/rgblight.c **** void rgblight_setrgb_range(uint8_t r, uint8_t g, uint8_t b, uint8_t start, uint8_t end) {
 581:quantum/rgblight.c ****     if (!rgblight_config.enable || start < 0 || start >= end || end > RGBLED_NUM) {
 582:quantum/rgblight.c ****         return;
 583:quantum/rgblight.c ****     }
 584:quantum/rgblight.c **** 
 585:quantum/rgblight.c ****     for (uint8_t i = start; i < end; i++) {
 586:quantum/rgblight.c ****         led[i].r = r;
 587:quantum/rgblight.c ****         led[i].g = g;
 588:quantum/rgblight.c ****         led[i].b = b;
 589:quantum/rgblight.c **** #ifdef RGBW
 590:quantum/rgblight.c ****         led[i].w = 0;
 591:quantum/rgblight.c **** #endif
 592:quantum/rgblight.c ****     }
 593:quantum/rgblight.c ****     rgblight_set();
 594:quantum/rgblight.c ****     wait_ms(1);
 595:quantum/rgblight.c **** }
 596:quantum/rgblight.c **** 
 597:quantum/rgblight.c **** void rgblight_sethsv_range(uint8_t hue, uint8_t sat, uint8_t val, uint8_t start, uint8_t end) {
 598:quantum/rgblight.c ****     if (!rgblight_config.enable) {
 599:quantum/rgblight.c ****         return;
 600:quantum/rgblight.c ****     }
 601:quantum/rgblight.c **** 
 602:quantum/rgblight.c ****     LED_TYPE tmp_led;
 603:quantum/rgblight.c ****     sethsv(hue, sat, val, &tmp_led);
 604:quantum/rgblight.c ****     rgblight_setrgb_range(tmp_led.r, tmp_led.g, tmp_led.b, start, end);
 605:quantum/rgblight.c **** }
 606:quantum/rgblight.c **** 
 607:quantum/rgblight.c **** #ifndef RGBLIGHT_SPLIT
 608:quantum/rgblight.c **** void rgblight_setrgb_master(uint8_t r, uint8_t g, uint8_t b) { rgblight_setrgb_range(r, g, b, 0, (u
 609:quantum/rgblight.c **** 
 610:quantum/rgblight.c **** void rgblight_setrgb_slave(uint8_t r, uint8_t g, uint8_t b) { rgblight_setrgb_range(r, g, b, (uint8
 611:quantum/rgblight.c **** 
 612:quantum/rgblight.c **** void rgblight_sethsv_master(uint8_t hue, uint8_t sat, uint8_t val) { rgblight_sethsv_range(hue, sat
 613:quantum/rgblight.c **** 
 614:quantum/rgblight.c **** void rgblight_sethsv_slave(uint8_t hue, uint8_t sat, uint8_t val) { rgblight_sethsv_range(hue, sat,
 615:quantum/rgblight.c **** #endif  // ifndef RGBLIGHT_SPLIT
 616:quantum/rgblight.c **** 
 617:quantum/rgblight.c **** #ifdef RGBLIGHT_LAYERS
 618:quantum/rgblight.c **** void rgblight_set_layer_state(uint8_t layer, bool enabled) {
 619:quantum/rgblight.c ****     uint8_t mask = 1 << layer;
 620:quantum/rgblight.c ****     if (enabled) {
 621:quantum/rgblight.c ****         rgblight_status.enabled_layer_mask |= mask;
 622:quantum/rgblight.c ****     } else {
 623:quantum/rgblight.c ****         rgblight_status.enabled_layer_mask &= ~mask;
 624:quantum/rgblight.c ****     }
 625:quantum/rgblight.c ****     RGBLIGHT_SPLIT_SET_CHANGE_LAYERS;
 626:quantum/rgblight.c ****     // Static modes don't have a ticker running to update the LEDs
 627:quantum/rgblight.c ****     if (rgblight_status.timer_enabled == false) {
 628:quantum/rgblight.c ****         rgblight_mode_noeeprom(rgblight_config.mode);
 629:quantum/rgblight.c ****     }
 630:quantum/rgblight.c **** }
 631:quantum/rgblight.c **** 
 632:quantum/rgblight.c **** bool rgblight_get_layer_state(uint8_t layer) {
 633:quantum/rgblight.c ****     uint8_t mask = 1 << layer;
 634:quantum/rgblight.c ****     return (rgblight_status.enabled_layer_mask & mask) != 0;
 635:quantum/rgblight.c **** }
 636:quantum/rgblight.c **** 
 637:quantum/rgblight.c **** // Write any enabled LED layers into the buffer
 638:quantum/rgblight.c **** static void rgblight_layers_write(void) {
 639:quantum/rgblight.c ****     uint8_t i = 0;
 640:quantum/rgblight.c ****     // For each layer
 641:quantum/rgblight.c ****     for (const rgblight_segment_t *const *layer_ptr = rgblight_layers; i < RGBLIGHT_MAX_LAYERS; lay
 642:quantum/rgblight.c ****         if (!rgblight_get_layer_state(i)) {
 643:quantum/rgblight.c ****             continue;  // Layer is disabled
 644:quantum/rgblight.c ****         }
 645:quantum/rgblight.c ****         const rgblight_segment_t *segment_ptr = pgm_read_ptr(layer_ptr);
 646:quantum/rgblight.c ****         if (segment_ptr == NULL) {
 647:quantum/rgblight.c ****             break;  // No more layers
 648:quantum/rgblight.c ****         }
 649:quantum/rgblight.c ****         // For each segment
 650:quantum/rgblight.c ****         while (1) {
 651:quantum/rgblight.c ****             rgblight_segment_t segment;
 652:quantum/rgblight.c ****             memcpy_P(&segment, segment_ptr, sizeof(rgblight_segment_t));
 653:quantum/rgblight.c ****             if (segment.index == RGBLIGHT_END_SEGMENT_INDEX) {
 654:quantum/rgblight.c ****                 break;  // No more segments
 655:quantum/rgblight.c ****             }
 656:quantum/rgblight.c ****             // Write segment.count LEDs
 657:quantum/rgblight.c ****             LED_TYPE *const limit = &led[MIN(segment.index + segment.count, RGBLED_NUM)];
 658:quantum/rgblight.c ****             for (LED_TYPE *led_ptr = &led[segment.index]; led_ptr < limit; led_ptr++) {
 659:quantum/rgblight.c ****                 sethsv(segment.hue, segment.sat, segment.val, led_ptr);
 660:quantum/rgblight.c ****             }
 661:quantum/rgblight.c ****             segment_ptr++;
 662:quantum/rgblight.c ****         }
 663:quantum/rgblight.c ****     }
 664:quantum/rgblight.c **** }
 665:quantum/rgblight.c **** #endif
 666:quantum/rgblight.c **** 
 667:quantum/rgblight.c **** #ifndef RGBLIGHT_CUSTOM_DRIVER
 668:quantum/rgblight.c **** void rgblight_set(void) {
 669:quantum/rgblight.c ****     LED_TYPE *start_led;
 670:quantum/rgblight.c ****     uint16_t  num_leds = clipping_num_leds;
 671:quantum/rgblight.c **** 
 672:quantum/rgblight.c **** #    ifdef RGBLIGHT_LAYERS
 673:quantum/rgblight.c ****     if (rgblight_layers != NULL) {
 674:quantum/rgblight.c ****         rgblight_layers_write();
 675:quantum/rgblight.c ****     }
 676:quantum/rgblight.c **** #    endif
 677:quantum/rgblight.c **** 
 678:quantum/rgblight.c ****     if (!rgblight_config.enable) {
 679:quantum/rgblight.c ****         for (uint8_t i = effect_start_pos; i < effect_end_pos; i++) {
 680:quantum/rgblight.c ****             led[i].r = 0;
 681:quantum/rgblight.c ****             led[i].g = 0;
 682:quantum/rgblight.c ****             led[i].b = 0;
 683:quantum/rgblight.c **** #    ifdef RGBW
 684:quantum/rgblight.c ****             led[i].w = 0;
 685:quantum/rgblight.c **** #    endif
 686:quantum/rgblight.c ****         }
 687:quantum/rgblight.c ****     }
 688:quantum/rgblight.c **** 
 689:quantum/rgblight.c **** #    ifdef RGBLIGHT_LED_MAP
 690:quantum/rgblight.c ****     LED_TYPE led0[RGBLED_NUM];
 691:quantum/rgblight.c ****     for (uint8_t i = 0; i < RGBLED_NUM; i++) {
 692:quantum/rgblight.c ****         led0[i] = led[pgm_read_byte(&led_map[i])];
 693:quantum/rgblight.c ****     }
 694:quantum/rgblight.c ****     start_led = led0 + clipping_start_pos;
 695:quantum/rgblight.c **** #    else
 696:quantum/rgblight.c ****     start_led = led + clipping_start_pos;
 697:quantum/rgblight.c **** #    endif
 698:quantum/rgblight.c **** 
 699:quantum/rgblight.c **** #    ifdef RGBW
 700:quantum/rgblight.c ****     for (uint8_t i = 0; i < num_leds; i++) {
 701:quantum/rgblight.c ****         convert_rgb_to_rgbw(&start_led[i]);
 702:quantum/rgblight.c ****     }
 703:quantum/rgblight.c **** #    endif
 704:quantum/rgblight.c ****     ws2812_setleds(start_led, num_leds);
 705:quantum/rgblight.c **** }
 706:quantum/rgblight.c **** #endif
 707:quantum/rgblight.c **** 
 708:quantum/rgblight.c **** #ifdef RGBLIGHT_SPLIT
 709:quantum/rgblight.c **** /* for split keyboard master side */
 710:quantum/rgblight.c **** uint8_t rgblight_get_change_flags(void) { return rgblight_status.change_flags; }
 711:quantum/rgblight.c **** 
 712:quantum/rgblight.c **** void rgblight_clear_change_flags(void) { rgblight_status.change_flags = 0; }
 713:quantum/rgblight.c **** 
 714:quantum/rgblight.c **** void rgblight_get_syncinfo(rgblight_syncinfo_t *syncinfo) {
 715:quantum/rgblight.c ****     syncinfo->config = rgblight_config;
 716:quantum/rgblight.c ****     syncinfo->status = rgblight_status;
 717:quantum/rgblight.c **** }
 718:quantum/rgblight.c **** 
 719:quantum/rgblight.c **** /* for split keyboard slave side */
 720:quantum/rgblight.c **** void rgblight_update_sync(rgblight_syncinfo_t *syncinfo, bool write_to_eeprom) {
 721:quantum/rgblight.c **** #    ifdef RGBLIGHT_LAYERS
 722:quantum/rgblight.c ****     if (syncinfo->status.change_flags & RGBLIGHT_STATUS_CHANGE_LAYERS) {
 723:quantum/rgblight.c ****         rgblight_status.enabled_layer_mask = syncinfo->status.enabled_layer_mask;
 724:quantum/rgblight.c ****     }
 725:quantum/rgblight.c **** #    endif
 726:quantum/rgblight.c ****     if (syncinfo->status.change_flags & RGBLIGHT_STATUS_CHANGE_MODE) {
 727:quantum/rgblight.c ****         if (syncinfo->config.enable) {
 728:quantum/rgblight.c ****             rgblight_config.enable = 1;  // == rgblight_enable_noeeprom();
 729:quantum/rgblight.c ****             rgblight_mode_eeprom_helper(syncinfo->config.mode, write_to_eeprom);
 730:quantum/rgblight.c ****         } else {
 731:quantum/rgblight.c ****             rgblight_disable_noeeprom();
 732:quantum/rgblight.c ****         }
 733:quantum/rgblight.c ****     }
 734:quantum/rgblight.c ****     if (syncinfo->status.change_flags & RGBLIGHT_STATUS_CHANGE_HSVS) {
 735:quantum/rgblight.c ****         rgblight_sethsv_eeprom_helper(syncinfo->config.hue, syncinfo->config.sat, syncinfo->config.
 736:quantum/rgblight.c ****         // rgblight_config.speed = config->speed; // NEED???
 737:quantum/rgblight.c ****     }
 738:quantum/rgblight.c **** #    ifdef RGBLIGHT_USE_TIMER
 739:quantum/rgblight.c ****     if (syncinfo->status.change_flags & RGBLIGHT_STATUS_CHANGE_TIMER) {
 740:quantum/rgblight.c ****         if (syncinfo->status.timer_enabled) {
 741:quantum/rgblight.c ****             rgblight_timer_enable();
 742:quantum/rgblight.c ****         } else {
 743:quantum/rgblight.c ****             rgblight_timer_disable();
 744:quantum/rgblight.c ****         }
 745:quantum/rgblight.c ****     }
 746:quantum/rgblight.c **** #        ifndef RGBLIGHT_SPLIT_NO_ANIMATION_SYNC
 747:quantum/rgblight.c ****     if (syncinfo->status.change_flags & RGBLIGHT_STATUS_ANIMATION_TICK) {
 748:quantum/rgblight.c ****         animation_status.restart = true;
 749:quantum/rgblight.c ****     }
 750:quantum/rgblight.c **** #        endif /* RGBLIGHT_SPLIT_NO_ANIMATION_SYNC */
 751:quantum/rgblight.c **** #    endif     /* RGBLIGHT_USE_TIMER */
 752:quantum/rgblight.c **** }
 753:quantum/rgblight.c **** #endif /* RGBLIGHT_SPLIT */
 754:quantum/rgblight.c **** 
 755:quantum/rgblight.c **** #ifdef RGBLIGHT_USE_TIMER
 756:quantum/rgblight.c **** 
 757:quantum/rgblight.c **** typedef void (*effect_func_t)(animation_status_t *anim);
 758:quantum/rgblight.c **** 
 759:quantum/rgblight.c **** // Animation timer -- use system timer (AVR Timer0)
 760:quantum/rgblight.c **** void rgblight_timer_init(void) {
 761:quantum/rgblight.c ****     // OLD!!!! Animation timer -- AVR Timer3
 762:quantum/rgblight.c ****     // static uint8_t rgblight_timer_is_init = 0;
 763:quantum/rgblight.c ****     // if (rgblight_timer_is_init) {
 764:quantum/rgblight.c ****     //   return;
 765:quantum/rgblight.c ****     // }
 766:quantum/rgblight.c ****     // rgblight_timer_is_init = 1;
 767:quantum/rgblight.c ****     // /* Timer 3 setup */
 768:quantum/rgblight.c ****     // TCCR3B = _BV(WGM32) // CTC mode OCR3A as TOP
 769:quantum/rgblight.c ****     //       | _BV(CS30); // Clock selelct: clk/1
 770:quantum/rgblight.c ****     // /* Set TOP value */
 771:quantum/rgblight.c ****     // uint8_t sreg = SREG;
 772:quantum/rgblight.c ****     // cli();
 773:quantum/rgblight.c ****     // OCR3AH = (RGBLED_TIMER_TOP >> 8) & 0xff;
 774:quantum/rgblight.c ****     // OCR3AL = RGBLED_TIMER_TOP & 0xff;
 775:quantum/rgblight.c ****     // SREG = sreg;
 776:quantum/rgblight.c **** 
 777:quantum/rgblight.c ****     rgblight_status.timer_enabled = false;
 778:quantum/rgblight.c ****     RGBLIGHT_SPLIT_SET_CHANGE_TIMER_ENABLE;
 779:quantum/rgblight.c **** }
 780:quantum/rgblight.c **** void rgblight_timer_enable(void) {
 781:quantum/rgblight.c ****     if (!is_static_effect(rgblight_config.mode)) {
 782:quantum/rgblight.c ****         rgblight_status.timer_enabled = true;
 783:quantum/rgblight.c ****     }
 784:quantum/rgblight.c ****     animation_status.last_timer = timer_read();
 785:quantum/rgblight.c ****     RGBLIGHT_SPLIT_SET_CHANGE_TIMER_ENABLE;
 786:quantum/rgblight.c ****     dprintf("rgblight timer enabled.\n");
 787:quantum/rgblight.c **** }
 788:quantum/rgblight.c **** void rgblight_timer_disable(void) {
 789:quantum/rgblight.c ****     rgblight_status.timer_enabled = false;
 790:quantum/rgblight.c ****     RGBLIGHT_SPLIT_SET_CHANGE_TIMER_ENABLE;
 791:quantum/rgblight.c ****     dprintf("rgblight timer disable.\n");
 792:quantum/rgblight.c **** }
 793:quantum/rgblight.c **** void rgblight_timer_toggle(void) {
 794:quantum/rgblight.c ****     dprintf("rgblight timer toggle.\n");
 795:quantum/rgblight.c ****     if (rgblight_status.timer_enabled) {
 796:quantum/rgblight.c ****         rgblight_timer_disable();
 797:quantum/rgblight.c ****     } else {
 798:quantum/rgblight.c ****         rgblight_timer_enable();
 799:quantum/rgblight.c ****     }
 800:quantum/rgblight.c **** }
 801:quantum/rgblight.c **** 
 802:quantum/rgblight.c **** void rgblight_show_solid_color(uint8_t r, uint8_t g, uint8_t b) {
 803:quantum/rgblight.c ****     rgblight_enable();
 804:quantum/rgblight.c ****     rgblight_mode(RGBLIGHT_MODE_STATIC_LIGHT);
 805:quantum/rgblight.c ****     rgblight_setrgb(r, g, b);
 806:quantum/rgblight.c **** }
 807:quantum/rgblight.c **** 
 808:quantum/rgblight.c **** static void rgblight_effect_dummy(animation_status_t *anim) {
  27              		.loc 1 808 61 view -0
  28              		.cfi_startproc
  29              		@ args = 0, pretend = 0, frame = 0
  30              		@ frame_needed = 0, uses_anonymous_args = 0
  31              		@ link register save eliminated.
 809:quantum/rgblight.c ****     // do nothing
 810:quantum/rgblight.c ****     /********
 811:quantum/rgblight.c ****     dprintf("rgblight_task() what happened?\n");
 812:quantum/rgblight.c ****     dprintf("is_static_effect %d\n", is_static_effect(rgblight_config.mode));
 813:quantum/rgblight.c ****     dprintf("mode = %d, base_mode = %d, timer_enabled %d, ",
 814:quantum/rgblight.c ****             rgblight_config.mode, rgblight_status.base_mode,
 815:quantum/rgblight.c ****             rgblight_status.timer_enabled);
 816:quantum/rgblight.c ****     dprintf("last_timer = %d\n",anim->last_timer);
 817:quantum/rgblight.c ****     **/
 818:quantum/rgblight.c **** }
  32              		.loc 1 818 1 view .LVU1
  33              		@ sp needed
  34 0000 7047     		bx	lr
  35              		.cfi_endproc
  36              	.LFE338:
  38              		.section	.text.rgblight_set_clipping_range,"ax",%progbits
  39              		.align	1
  40              		.global	rgblight_set_clipping_range
  41              		.syntax unified
  42              		.code	16
  43              		.thumb_func
  44              		.fpu softvfp
  46              	rgblight_set_clipping_range:
  47              	.LVL1:
  48              	.LFB259:
 116:quantum/rgblight.c ****     clipping_start_pos = start_pos;
  49              		.loc 1 116 71 view -0
  50              		.cfi_startproc
  51              		@ args = 0, pretend = 0, frame = 0
  52              		@ frame_needed = 0, uses_anonymous_args = 0
  53              		@ link register save eliminated.
 117:quantum/rgblight.c ****     clipping_num_leds  = num_leds;
  54              		.loc 1 117 5 view .LVU3
 117:quantum/rgblight.c ****     clipping_num_leds  = num_leds;
  55              		.loc 1 117 24 is_stmt 0 view .LVU4
  56 0000 024B     		ldr	r3, .L3
 119:quantum/rgblight.c **** 
  57              		.loc 1 119 1 view .LVU5
  58              		@ sp needed
 117:quantum/rgblight.c ****     clipping_num_leds  = num_leds;
  59              		.loc 1 117 24 view .LVU6
  60 0002 1870     		strb	r0, [r3]
 118:quantum/rgblight.c **** }
  61              		.loc 1 118 5 is_stmt 1 view .LVU7
 118:quantum/rgblight.c **** }
  62              		.loc 1 118 24 is_stmt 0 view .LVU8
  63 0004 024B     		ldr	r3, .L3+4
  64 0006 1970     		strb	r1, [r3]
 119:quantum/rgblight.c **** 
  65              		.loc 1 119 1 view .LVU9
  66 0008 7047     		bx	lr
  67              	.L4:
  68 000a C046     		.align	2
  69              	.L3:
  70 000c 00000000 		.word	.LANCHOR0
  71 0010 00000000 		.word	.LANCHOR1
  72              		.cfi_endproc
  73              	.LFE259:
  75              		.section	.text.rgblight_set_effect_range,"ax",%progbits
  76              		.align	1
  77              		.global	rgblight_set_effect_range
  78              		.syntax unified
  79              		.code	16
  80              		.thumb_func
  81              		.fpu softvfp
  83              	rgblight_set_effect_range:
  84              	.LVL2:
  85              	.LFB260:
 121:quantum/rgblight.c ****     if (start_pos >= RGBLED_NUM) return;
  86              		.loc 1 121 69 is_stmt 1 view -0
  87              		.cfi_startproc
  88              		@ args = 0, pretend = 0, frame = 0
  89              		@ frame_needed = 0, uses_anonymous_args = 0
  90              		@ link register save eliminated.
 122:quantum/rgblight.c ****     if (start_pos + num_leds > RGBLED_NUM) return;
  91              		.loc 1 122 5 view .LVU11
 122:quantum/rgblight.c ****     if (start_pos + num_leds > RGBLED_NUM) return;
  92              		.loc 1 122 8 is_stmt 0 view .LVU12
  93 0000 0D28     		cmp	r0, #13
  94 0002 08D8     		bhi	.L5
 123:quantum/rgblight.c ****     effect_start_pos = start_pos;
  95              		.loc 1 123 5 is_stmt 1 view .LVU13
 123:quantum/rgblight.c ****     effect_start_pos = start_pos;
  96              		.loc 1 123 19 is_stmt 0 view .LVU14
  97 0004 4318     		adds	r3, r0, r1
 123:quantum/rgblight.c ****     effect_start_pos = start_pos;
  98              		.loc 1 123 8 view .LVU15
  99 0006 0E2B     		cmp	r3, #14
 100 0008 05DC     		bgt	.L5
 124:quantum/rgblight.c ****     effect_end_pos   = start_pos + num_leds;
 101              		.loc 1 124 5 is_stmt 1 view .LVU16
 124:quantum/rgblight.c ****     effect_end_pos   = start_pos + num_leds;
 102              		.loc 1 124 22 is_stmt 0 view .LVU17
 103 000a 034A     		ldr	r2, .L7
 104 000c 1070     		strb	r0, [r2]
 125:quantum/rgblight.c ****     effect_num_leds  = num_leds;
 105              		.loc 1 125 5 is_stmt 1 view .LVU18
 125:quantum/rgblight.c ****     effect_num_leds  = num_leds;
 106              		.loc 1 125 22 is_stmt 0 view .LVU19
 107 000e 034A     		ldr	r2, .L7+4
 108 0010 1370     		strb	r3, [r2]
 126:quantum/rgblight.c **** }
 109              		.loc 1 126 5 is_stmt 1 view .LVU20
 126:quantum/rgblight.c **** }
 110              		.loc 1 126 22 is_stmt 0 view .LVU21
 111 0012 034B     		ldr	r3, .L7+8
 112 0014 1970     		strb	r1, [r3]
 113              	.L5:
 127:quantum/rgblight.c **** 
 114              		.loc 1 127 1 view .LVU22
 115              		@ sp needed
 116 0016 7047     		bx	lr
 117              	.L8:
 118              		.align	2
 119              	.L7:
 120 0018 00000000 		.word	.LANCHOR2
 121 001c 00000000 		.word	.LANCHOR3
 122 0020 00000000 		.word	.LANCHOR4
 123              		.cfi_endproc
 124              	.LFE260:
 126              		.section	.text.sethsv_raw,"ax",%progbits
 127              		.align	1
 128              		.global	sethsv_raw
 129              		.syntax unified
 130              		.code	16
 131              		.thumb_func
 132              		.fpu softvfp
 134              	sethsv_raw:
 135              	.LVL3:
 136              	.LFB261:
 129:quantum/rgblight.c ****     HSV hsv = {hue, sat, val};
 137              		.loc 1 129 72 is_stmt 1 view -0
 138              		.cfi_startproc
 139              		@ args = 0, pretend = 0, frame = 8
 140              		@ frame_needed = 0, uses_anonymous_args = 0
 130:quantum/rgblight.c ****     RGB rgb = hsv_to_rgb(hsv);
 141              		.loc 1 130 5 view .LVU24
 129:quantum/rgblight.c ****     HSV hsv = {hue, sat, val};
 142              		.loc 1 129 72 is_stmt 0 view .LVU25
 143 0000 13B5     		push	{r0, r1, r4, lr}
 144              		.cfi_def_cfa_offset 16
 145              		.cfi_offset 0, -16
 146              		.cfi_offset 1, -12
 147              		.cfi_offset 4, -8
 148              		.cfi_offset 14, -4
 129:quantum/rgblight.c ****     HSV hsv = {hue, sat, val};
 149              		.loc 1 129 72 view .LVU26
 150 0002 1C00     		movs	r4, r3
 130:quantum/rgblight.c ****     RGB rgb = hsv_to_rgb(hsv);
 151              		.loc 1 130 9 view .LVU27
 152 0004 6B46     		mov	r3, sp
 153              	.LVL4:
 130:quantum/rgblight.c ****     RGB rgb = hsv_to_rgb(hsv);
 154              		.loc 1 130 9 view .LVU28
 155 0006 5970     		strb	r1, [r3, #1]
 156 0008 9A70     		strb	r2, [r3, #2]
 131:quantum/rgblight.c ****     setrgb(rgb.r, rgb.g, rgb.b, led1);
 157              		.loc 1 131 5 is_stmt 1 view .LVU29
 130:quantum/rgblight.c ****     RGB rgb = hsv_to_rgb(hsv);
 158              		.loc 1 130 9 is_stmt 0 view .LVU30
 159 000a 1870     		strb	r0, [r3]
 131:quantum/rgblight.c ****     setrgb(rgb.r, rgb.g, rgb.b, led1);
 160              		.loc 1 131 15 view .LVU31
 161 000c 0098     		ldr	r0, [sp]
 162              	.LVL5:
 131:quantum/rgblight.c ****     setrgb(rgb.r, rgb.g, rgb.b, led1);
 163              		.loc 1 131 15 view .LVU32
 164 000e FFF7FEFF 		bl	hsv_to_rgb
 165              	.LVL6:
 132:quantum/rgblight.c **** }
 166              		.loc 1 132 5 is_stmt 1 view .LVU33
 131:quantum/rgblight.c ****     setrgb(rgb.r, rgb.g, rgb.b, led1);
 167              		.loc 1 131 15 is_stmt 0 view .LVU34
 168 0012 0204     		lsls	r2, r0, #16
 169 0014 0302     		lsls	r3, r0, #8
 132:quantum/rgblight.c **** }
 170              		.loc 1 132 5 view .LVU35
 171 0016 1B0E     		lsrs	r3, r3, #24
 172              	.LVL7:
 173              	.LBB67:
 174              	.LBI67:
 137:quantum/rgblight.c ****     (*led1).r = r;
 175              		.loc 1 137 6 is_stmt 1 view .LVU36
 176              	.LBB68:
 138:quantum/rgblight.c ****     (*led1).g = g;
 177              		.loc 1 138 5 view .LVU37
 138:quantum/rgblight.c ****     (*led1).g = g;
 178              		.loc 1 138 15 is_stmt 0 view .LVU38
 179 0018 120E     		lsrs	r2, r2, #24
 180 001a 6270     		strb	r2, [r4, #1]
 139:quantum/rgblight.c ****     (*led1).b = b;
 181              		.loc 1 139 5 is_stmt 1 view .LVU39
 139:quantum/rgblight.c ****     (*led1).b = b;
 182              		.loc 1 139 15 is_stmt 0 view .LVU40
 183 001c 2070     		strb	r0, [r4]
 140:quantum/rgblight.c **** #ifdef RGBW
 184              		.loc 1 140 5 is_stmt 1 view .LVU41
 140:quantum/rgblight.c **** #ifdef RGBW
 185              		.loc 1 140 15 is_stmt 0 view .LVU42
 186 001e A370     		strb	r3, [r4, #2]
 187              	.LVL8:
 140:quantum/rgblight.c **** #ifdef RGBW
 188              		.loc 1 140 15 view .LVU43
 189              	.LBE68:
 190              	.LBE67:
 133:quantum/rgblight.c **** 
 191              		.loc 1 133 1 view .LVU44
 192              		@ sp needed
 193              	.LVL9:
 133:quantum/rgblight.c **** 
 194              		.loc 1 133 1 view .LVU45
 195 0020 13BD     		pop	{r0, r1, r4, pc}
 196              		.cfi_endproc
 197              	.LFE261:
 199              		.section	.text.sethsv,"ax",%progbits
 200              		.align	1
 201              		.global	sethsv
 202              		.syntax unified
 203              		.code	16
 204              		.thumb_func
 205              		.fpu softvfp
 207              	sethsv:
 208              	.LVL10:
 209              	.LFB262:
 135:quantum/rgblight.c **** 
 210              		.loc 1 135 68 is_stmt 1 view -0
 211              		.cfi_startproc
 212              		@ args = 0, pretend = 0, frame = 0
 213              		@ frame_needed = 0, uses_anonymous_args = 0
 135:quantum/rgblight.c **** 
 214              		.loc 1 135 70 view .LVU47
 135:quantum/rgblight.c **** 
 215              		.loc 1 135 68 is_stmt 0 view .LVU48
 216 0000 10B5     		push	{r4, lr}
 217              		.cfi_def_cfa_offset 8
 218              		.cfi_offset 4, -8
 219              		.cfi_offset 14, -4
 135:quantum/rgblight.c **** 
 220              		.loc 1 135 70 view .LVU49
 221 0002 FFF7FEFF 		bl	sethsv_raw
 222              	.LVL11:
 135:quantum/rgblight.c **** 
 223              		.loc 1 135 1 view .LVU50
 224              		@ sp needed
 225 0006 10BD     		pop	{r4, pc}
 226              		.cfi_endproc
 227              	.LFE262:
 229              		.section	.text.setrgb,"ax",%progbits
 230              		.align	1
 231              		.global	setrgb
 232              		.syntax unified
 233              		.code	16
 234              		.thumb_func
 235              		.fpu softvfp
 237              	setrgb:
 238              	.LVL12:
 239              	.LFB263:
 137:quantum/rgblight.c ****     (*led1).r = r;
 240              		.loc 1 137 62 is_stmt 1 view -0
 241              		.cfi_startproc
 242              		@ args = 0, pretend = 0, frame = 0
 243              		@ frame_needed = 0, uses_anonymous_args = 0
 244              		@ link register save eliminated.
 138:quantum/rgblight.c ****     (*led1).g = g;
 245              		.loc 1 138 5 view .LVU52
 138:quantum/rgblight.c ****     (*led1).g = g;
 246              		.loc 1 138 15 is_stmt 0 view .LVU53
 247 0000 5870     		strb	r0, [r3, #1]
 139:quantum/rgblight.c ****     (*led1).b = b;
 248              		.loc 1 139 5 is_stmt 1 view .LVU54
 139:quantum/rgblight.c ****     (*led1).b = b;
 249              		.loc 1 139 15 is_stmt 0 view .LVU55
 250 0002 1970     		strb	r1, [r3]
 140:quantum/rgblight.c **** #ifdef RGBW
 251              		.loc 1 140 5 is_stmt 1 view .LVU56
 140:quantum/rgblight.c **** #ifdef RGBW
 252              		.loc 1 140 15 is_stmt 0 view .LVU57
 253 0004 9A70     		strb	r2, [r3, #2]
 144:quantum/rgblight.c **** 
 254              		.loc 1 144 1 view .LVU58
 255              		@ sp needed
 256 0006 7047     		bx	lr
 257              		.cfi_endproc
 258              	.LFE263:
 260              		.section	.text.rgblight_check_config,"ax",%progbits
 261              		.align	1
 262              		.global	rgblight_check_config
 263              		.syntax unified
 264              		.code	16
 265              		.thumb_func
 266              		.fpu softvfp
 268              	rgblight_check_config:
 269              	.LFB264:
 146:quantum/rgblight.c ****     /* Add some out of bound checks for RGB light config */
 270              		.loc 1 146 34 is_stmt 1 view -0
 271              		.cfi_startproc
 272              		@ args = 0, pretend = 0, frame = 0
 273              		@ frame_needed = 0, uses_anonymous_args = 0
 274              		@ link register save eliminated.
 149:quantum/rgblight.c ****         rgblight_config.mode = RGBLIGHT_MODE_STATIC_LIGHT;
 275              		.loc 1 149 5 view .LVU60
 149:quantum/rgblight.c ****         rgblight_config.mode = RGBLIGHT_MODE_STATIC_LIGHT;
 276              		.loc 1 149 30 is_stmt 0 view .LVU61
 277 0000 074A     		ldr	r2, .L16
 278 0002 0121     		movs	r1, #1
 279 0004 1378     		ldrb	r3, [r2]
 149:quantum/rgblight.c ****         rgblight_config.mode = RGBLIGHT_MODE_STATIC_LIGHT;
 280              		.loc 1 149 8 view .LVU62
 281 0006 1800     		movs	r0, r3
 282 0008 8843     		bics	r0, r1
 283 000a 04D1     		bne	.L13
 150:quantum/rgblight.c ****     } else if (rgblight_config.mode > RGBLIGHT_MODES) {
 284              		.loc 1 150 9 is_stmt 1 view .LVU63
 150:quantum/rgblight.c ****     } else if (rgblight_config.mode > RGBLIGHT_MODES) {
 285              		.loc 1 150 30 is_stmt 0 view .LVU64
 286 000c 0B40     		ands	r3, r1
 287 000e 4918     		adds	r1, r1, r1
 288              	.L15:
 289              	.LBB71:
 290              	.LBB72:
 152:quantum/rgblight.c ****     }
 291              		.loc 1 152 30 view .LVU65
 292 0010 0B43     		orrs	r3, r1
 293 0012 1370     		strb	r3, [r2]
 294              	.LBE72:
 295              	.LBE71:
 155:quantum/rgblight.c ****         rgblight_config.val = RGBLIGHT_LIMIT_VAL;
 296              		.loc 1 155 5 is_stmt 1 view .LVU66
 297              	.L12:
 158:quantum/rgblight.c **** 
 298              		.loc 1 158 1 is_stmt 0 view .LVU67
 299              		@ sp needed
 300 0014 7047     		bx	lr
 301              	.L13:
 302              	.LBB74:
 303              	.LBI71:
 146:quantum/rgblight.c ****     /* Add some out of bound checks for RGB light config */
 304              		.loc 1 146 6 is_stmt 1 view .LVU68
 305              	.LBB73:
 151:quantum/rgblight.c ****         rgblight_config.mode = RGBLIGHT_MODES;
 306              		.loc 1 151 12 view .LVU69
 151:quantum/rgblight.c ****         rgblight_config.mode = RGBLIGHT_MODES;
 307              		.loc 1 151 15 is_stmt 0 view .LVU70
 308 0016 492B     		cmp	r3, #73
 309 0018 FCD9     		bls	.L12
 152:quantum/rgblight.c ****     }
 310              		.loc 1 152 9 is_stmt 1 view .LVU71
 152:quantum/rgblight.c ****     }
 311              		.loc 1 152 30 is_stmt 0 view .LVU72
 312 001a 0B40     		ands	r3, r1
 313 001c 4821     		movs	r1, #72
 314 001e F7E7     		b	.L15
 315              	.L17:
 316              		.align	2
 317              	.L16:
 318 0020 00000000 		.word	.LANCHOR5
 319              	.LBE73:
 320              	.LBE74:
 321              		.cfi_endproc
 322              	.LFE264:
 324              		.section	.text.eeconfig_read_rgblight,"ax",%progbits
 325              		.align	1
 326              		.global	eeconfig_read_rgblight
 327              		.syntax unified
 328              		.code	16
 329              		.thumb_func
 330              		.fpu softvfp
 332              	eeconfig_read_rgblight:
 333              	.LFB265:
 160:quantum/rgblight.c **** #ifdef EEPROM_ENABLE
 334              		.loc 1 160 39 is_stmt 1 view -0
 335              		.cfi_startproc
 336              		@ args = 0, pretend = 0, frame = 0
 337              		@ frame_needed = 0, uses_anonymous_args = 0
 162:quantum/rgblight.c **** #else
 338              		.loc 1 162 5 view .LVU74
 160:quantum/rgblight.c **** #ifdef EEPROM_ENABLE
 339              		.loc 1 160 39 is_stmt 0 view .LVU75
 340 0000 10B5     		push	{r4, lr}
 341              		.cfi_def_cfa_offset 8
 342              		.cfi_offset 4, -8
 343              		.cfi_offset 14, -4
 162:quantum/rgblight.c **** #else
 344              		.loc 1 162 12 view .LVU76
 345 0002 0820     		movs	r0, #8
 346 0004 FFF7FEFF 		bl	eeprom_read_dword
 347              	.LVL13:
 166:quantum/rgblight.c **** 
 348              		.loc 1 166 1 view .LVU77
 349              		@ sp needed
 350 0008 10BD     		pop	{r4, pc}
 351              		.cfi_endproc
 352              	.LFE265:
 354              		.section	.text.eeconfig_update_rgblight,"ax",%progbits
 355              		.align	1
 356              		.global	eeconfig_update_rgblight
 357              		.syntax unified
 358              		.code	16
 359              		.thumb_func
 360              		.fpu softvfp
 362              	eeconfig_update_rgblight:
 363              	.LVL14:
 364              	.LFB266:
 168:quantum/rgblight.c **** #ifdef EEPROM_ENABLE
 365              		.loc 1 168 45 is_stmt 1 view -0
 366              		.cfi_startproc
 367              		@ args = 0, pretend = 0, frame = 0
 368              		@ frame_needed = 0, uses_anonymous_args = 0
 170:quantum/rgblight.c ****     eeprom_update_dword(EECONFIG_RGBLIGHT, val);
 369              		.loc 1 170 5 view .LVU79
 168:quantum/rgblight.c **** #ifdef EEPROM_ENABLE
 370              		.loc 1 168 45 is_stmt 0 view .LVU80
 371 0000 10B5     		push	{r4, lr}
 372              		.cfi_def_cfa_offset 8
 373              		.cfi_offset 4, -8
 374              		.cfi_offset 14, -4
 168:quantum/rgblight.c **** #ifdef EEPROM_ENABLE
 375              		.loc 1 168 45 view .LVU81
 376 0002 0400     		movs	r4, r0
 170:quantum/rgblight.c ****     eeprom_update_dword(EECONFIG_RGBLIGHT, val);
 377              		.loc 1 170 5 view .LVU82
 378 0004 FFF7FEFF 		bl	rgblight_check_config
 379              	.LVL15:
 171:quantum/rgblight.c **** #endif
 380              		.loc 1 171 5 is_stmt 1 view .LVU83
 381 0008 2100     		movs	r1, r4
 382 000a 0820     		movs	r0, #8
 383 000c FFF7FEFF 		bl	eeprom_update_dword
 384              	.LVL16:
 173:quantum/rgblight.c **** 
 385              		.loc 1 173 1 is_stmt 0 view .LVU84
 386              		@ sp needed
 387              	.LVL17:
 173:quantum/rgblight.c **** 
 388              		.loc 1 173 1 view .LVU85
 389 0010 10BD     		pop	{r4, pc}
 390              		.cfi_endproc
 391              	.LFE266:
 393              		.section	.text.eeconfig_update_rgblight_current,"ax",%progbits
 394              		.align	1
 395              		.global	eeconfig_update_rgblight_current
 396              		.syntax unified
 397              		.code	16
 398              		.thumb_func
 399              		.fpu softvfp
 401              	eeconfig_update_rgblight_current:
 402              	.LFB267:
 175:quantum/rgblight.c **** 
 403              		.loc 1 175 45 is_stmt 1 view -0
 404              		.cfi_startproc
 405              		@ args = 0, pretend = 0, frame = 0
 406              		@ frame_needed = 0, uses_anonymous_args = 0
 175:quantum/rgblight.c **** 
 407              		.loc 1 175 47 view .LVU87
 175:quantum/rgblight.c **** 
 408              		.loc 1 175 45 is_stmt 0 view .LVU88
 409 0000 10B5     		push	{r4, lr}
 410              		.cfi_def_cfa_offset 8
 411              		.cfi_offset 4, -8
 412              		.cfi_offset 14, -4
 175:quantum/rgblight.c **** 
 413              		.loc 1 175 47 view .LVU89
 414 0002 024B     		ldr	r3, .L21
 175:quantum/rgblight.c **** 
 415              		.loc 1 175 1 view .LVU90
 416              		@ sp needed
 175:quantum/rgblight.c **** 
 417              		.loc 1 175 47 view .LVU91
 418 0004 1868     		ldr	r0, [r3]
 419 0006 FFF7FEFF 		bl	eeconfig_update_rgblight
 420              	.LVL18:
 175:quantum/rgblight.c **** 
 421              		.loc 1 175 1 view .LVU92
 422 000a 10BD     		pop	{r4, pc}
 423              	.L22:
 424              		.align	2
 425              	.L21:
 426 000c 00000000 		.word	.LANCHOR5
 427              		.cfi_endproc
 428              	.LFE267:
 430              		.section	.text.eeconfig_update_rgblight_default,"ax",%progbits
 431              		.align	1
 432              		.global	eeconfig_update_rgblight_default
 433              		.syntax unified
 434              		.code	16
 435              		.thumb_func
 436              		.fpu softvfp
 438              	eeconfig_update_rgblight_default:
 439              	.LFB268:
 177:quantum/rgblight.c ****     rgblight_config.enable = 1;
 440              		.loc 1 177 45 is_stmt 1 view -0
 441              		.cfi_startproc
 442              		@ args = 0, pretend = 0, frame = 0
 443              		@ frame_needed = 0, uses_anonymous_args = 0
 178:quantum/rgblight.c ****     rgblight_config.mode   = RGBLIGHT_MODE_STATIC_LIGHT;
 444              		.loc 1 178 5 view .LVU94
 179:quantum/rgblight.c ****     rgblight_config.hue    = 0;
 445              		.loc 1 179 5 view .LVU95
 180:quantum/rgblight.c ****     rgblight_config.sat    = UINT8_MAX;
 446              		.loc 1 180 5 view .LVU96
 181:quantum/rgblight.c ****     rgblight_config.val    = RGBLIGHT_LIMIT_VAL;
 447              		.loc 1 181 5 view .LVU97
 182:quantum/rgblight.c ****     rgblight_config.speed  = 0;
 448              		.loc 1 182 5 view .LVU98
 183:quantum/rgblight.c ****     RGBLIGHT_SPLIT_SET_CHANGE_MODEHSVS;
 449              		.loc 1 183 5 view .LVU99
 183:quantum/rgblight.c ****     RGBLIGHT_SPLIT_SET_CHANGE_MODEHSVS;
 450              		.loc 1 183 28 is_stmt 0 view .LVU100
 451 0000 0022     		movs	r2, #0
 177:quantum/rgblight.c ****     rgblight_config.enable = 1;
 452              		.loc 1 177 45 view .LVU101
 453 0002 10B5     		push	{r4, lr}
 454              		.cfi_def_cfa_offset 8
 455              		.cfi_offset 4, -8
 456              		.cfi_offset 14, -4
 178:quantum/rgblight.c ****     rgblight_config.mode   = RGBLIGHT_MODE_STATIC_LIGHT;
 457              		.loc 1 178 28 view .LVU102
 458 0004 034B     		ldr	r3, .L24
 459 0006 0448     		ldr	r0, .L24+4
 183:quantum/rgblight.c ****     RGBLIGHT_SPLIT_SET_CHANGE_MODEHSVS;
 460              		.loc 1 183 28 view .LVU103
 461 0008 1A71     		strb	r2, [r3, #4]
 184:quantum/rgblight.c ****     eeconfig_update_rgblight(rgblight_config.raw);
 462              		.loc 1 184 39 is_stmt 1 view .LVU104
 185:quantum/rgblight.c **** }
 463              		.loc 1 185 5 view .LVU105
 178:quantum/rgblight.c ****     rgblight_config.mode   = RGBLIGHT_MODE_STATIC_LIGHT;
 464              		.loc 1 178 28 is_stmt 0 view .LVU106
 465 000a 1860     		str	r0, [r3]
 185:quantum/rgblight.c **** }
 466              		.loc 1 185 5 view .LVU107
 467 000c FFF7FEFF 		bl	eeconfig_update_rgblight
 468              	.LVL19:
 186:quantum/rgblight.c **** 
 469              		.loc 1 186 1 view .LVU108
 470              		@ sp needed
 471 0010 10BD     		pop	{r4, pc}
 472              	.L25:
 473 0012 C046     		.align	2
 474              	.L24:
 475 0014 00000000 		.word	.LANCHOR5
 476 0018 0300FFFF 		.word	-65533
 477              		.cfi_endproc
 478              	.LFE268:
 480              		.section	.text.eeconfig_debug_rgblight,"ax",%progbits
 481              		.align	1
 482              		.global	eeconfig_debug_rgblight
 483              		.syntax unified
 484              		.code	16
 485              		.thumb_func
 486              		.fpu softvfp
 488              	eeconfig_debug_rgblight:
 489              	.LFB269:
 188:quantum/rgblight.c ****     dprintf("rgblight_config EEPROM:\n");
 490              		.loc 1 188 36 is_stmt 1 view -0
 491              		.cfi_startproc
 492              		@ args = 0, pretend = 0, frame = 0
 493              		@ frame_needed = 0, uses_anonymous_args = 0
 189:quantum/rgblight.c ****     dprintf("rgblight_config.enable = %d\n", rgblight_config.enable);
 494              		.loc 1 189 5 view .LVU110
 189:quantum/rgblight.c ****     dprintf("rgblight_config.enable = %d\n", rgblight_config.enable);
 495              		.loc 1 189 5 view .LVU111
 188:quantum/rgblight.c ****     dprintf("rgblight_config EEPROM:\n");
 496              		.loc 1 188 36 is_stmt 0 view .LVU112
 497 0000 70B5     		push	{r4, r5, r6, lr}
 498              		.cfi_def_cfa_offset 16
 499              		.cfi_offset 4, -16
 500              		.cfi_offset 5, -12
 501              		.cfi_offset 6, -8
 502              		.cfi_offset 14, -4
 189:quantum/rgblight.c ****     dprintf("rgblight_config.enable = %d\n", rgblight_config.enable);
 503              		.loc 1 189 5 view .LVU113
 504 0002 0124     		movs	r4, #1
 505 0004 1A4D     		ldr	r5, .L55
 506 0006 2B78     		ldrb	r3, [r5]
 507 0008 2342     		tst	r3, r4
 508 000a 30D0     		beq	.L26
 189:quantum/rgblight.c ****     dprintf("rgblight_config.enable = %d\n", rgblight_config.enable);
 509              		.loc 1 189 5 is_stmt 1 discriminator 1 view .LVU114
 510 000c 1948     		ldr	r0, .L55+4
 511 000e FFF7FEFF 		bl	tfp_printf
 512              	.LVL20:
 190:quantum/rgblight.c ****     dprintf("rghlight_config.mode = %d\n", rgblight_config.mode);
 513              		.loc 1 190 5 discriminator 1 view .LVU115
 190:quantum/rgblight.c ****     dprintf("rghlight_config.mode = %d\n", rgblight_config.mode);
 514              		.loc 1 190 5 discriminator 1 view .LVU116
 515 0012 2B78     		ldrb	r3, [r5]
 516 0014 2342     		tst	r3, r4
 517 0016 2AD0     		beq	.L26
 190:quantum/rgblight.c ****     dprintf("rghlight_config.mode = %d\n", rgblight_config.mode);
 518              		.loc 1 190 5 discriminator 1 view .LVU117
 519 0018 174E     		ldr	r6, .L55+8
 520 001a 1848     		ldr	r0, .L55+12
 521 001c 3178     		ldrb	r1, [r6]
 522 001e C907     		lsls	r1, r1, #31
 523 0020 C90F     		lsrs	r1, r1, #31
 524 0022 FFF7FEFF 		bl	tfp_printf
 525              	.LVL21:
 191:quantum/rgblight.c ****     dprintf("rgblight_config.hue = %d\n", rgblight_config.hue);
 526              		.loc 1 191 5 discriminator 1 view .LVU118
 191:quantum/rgblight.c ****     dprintf("rgblight_config.hue = %d\n", rgblight_config.hue);
 527              		.loc 1 191 5 discriminator 1 view .LVU119
 528 0026 2B78     		ldrb	r3, [r5]
 529 0028 2342     		tst	r3, r4
 530 002a 20D0     		beq	.L26
 191:quantum/rgblight.c ****     dprintf("rgblight_config.hue = %d\n", rgblight_config.hue);
 531              		.loc 1 191 5 discriminator 1 view .LVU120
 532 002c 3178     		ldrb	r1, [r6]
 533 002e 1448     		ldr	r0, .L55+16
 534 0030 E140     		lsrs	r1, r1, r4
 535 0032 FFF7FEFF 		bl	tfp_printf
 536              	.LVL22:
 192:quantum/rgblight.c ****     dprintf("rgblight_config.sat = %d\n", rgblight_config.sat);
 537              		.loc 1 192 5 discriminator 1 view .LVU121
 192:quantum/rgblight.c ****     dprintf("rgblight_config.sat = %d\n", rgblight_config.sat);
 538              		.loc 1 192 5 discriminator 1 view .LVU122
 539 0036 2B78     		ldrb	r3, [r5]
 540 0038 2342     		tst	r3, r4
 541 003a 18D0     		beq	.L26
 192:quantum/rgblight.c ****     dprintf("rgblight_config.sat = %d\n", rgblight_config.sat);
 542              		.loc 1 192 5 discriminator 1 view .LVU123
 543 003c 7178     		ldrb	r1, [r6, #1]
 544 003e 1148     		ldr	r0, .L55+20
 545 0040 FFF7FEFF 		bl	tfp_printf
 546              	.LVL23:
 193:quantum/rgblight.c ****     dprintf("rgblight_config.val = %d\n", rgblight_config.val);
 547              		.loc 1 193 5 discriminator 1 view .LVU124
 193:quantum/rgblight.c ****     dprintf("rgblight_config.val = %d\n", rgblight_config.val);
 548              		.loc 1 193 5 discriminator 1 view .LVU125
 549 0044 2B78     		ldrb	r3, [r5]
 550 0046 2342     		tst	r3, r4
 551 0048 11D0     		beq	.L26
 193:quantum/rgblight.c ****     dprintf("rgblight_config.val = %d\n", rgblight_config.val);
 552              		.loc 1 193 5 discriminator 1 view .LVU126
 553 004a B178     		ldrb	r1, [r6, #2]
 554 004c 0E48     		ldr	r0, .L55+24
 555 004e FFF7FEFF 		bl	tfp_printf
 556              	.LVL24:
 194:quantum/rgblight.c ****     dprintf("rgblight_config.speed = %d\n", rgblight_config.speed);
 557              		.loc 1 194 5 discriminator 1 view .LVU127
 194:quantum/rgblight.c ****     dprintf("rgblight_config.speed = %d\n", rgblight_config.speed);
 558              		.loc 1 194 5 discriminator 1 view .LVU128
 559 0052 2B78     		ldrb	r3, [r5]
 560 0054 2342     		tst	r3, r4
 561 0056 0AD0     		beq	.L26
 194:quantum/rgblight.c ****     dprintf("rgblight_config.speed = %d\n", rgblight_config.speed);
 562              		.loc 1 194 5 discriminator 1 view .LVU129
 563 0058 F178     		ldrb	r1, [r6, #3]
 564 005a 0C48     		ldr	r0, .L55+28
 565 005c FFF7FEFF 		bl	tfp_printf
 566              	.LVL25:
 195:quantum/rgblight.c **** }
 567              		.loc 1 195 5 discriminator 1 view .LVU130
 195:quantum/rgblight.c **** }
 568              		.loc 1 195 5 discriminator 1 view .LVU131
 569 0060 2B78     		ldrb	r3, [r5]
 570 0062 2342     		tst	r3, r4
 571 0064 03D0     		beq	.L26
 195:quantum/rgblight.c **** }
 572              		.loc 1 195 5 discriminator 1 view .LVU132
 573 0066 3179     		ldrb	r1, [r6, #4]
 574 0068 0948     		ldr	r0, .L55+32
 575 006a FFF7FEFF 		bl	tfp_printf
 576              	.LVL26:
 577              	.L26:
 196:quantum/rgblight.c **** 
 578              		.loc 1 196 1 is_stmt 0 view .LVU133
 579              		@ sp needed
 580 006e 70BD     		pop	{r4, r5, r6, pc}
 581              	.L56:
 582              		.align	2
 583              	.L55:
 584 0070 00000000 		.word	debug_config
 585 0074 00000000 		.word	.LC9
 586 0078 00000000 		.word	.LANCHOR5
 587 007c 19000000 		.word	.LC12
 588 0080 36000000 		.word	.LC14
 589 0084 51000000 		.word	.LC16
 590 0088 6B000000 		.word	.LC18
 591 008c 85000000 		.word	.LC20
 592 0090 9F000000 		.word	.LC22
 593              		.cfi_endproc
 594              	.LFE269:
 596              		.section	.text.rgblight_read_dword,"ax",%progbits
 597              		.align	1
 598              		.global	rgblight_read_dword
 599              		.syntax unified
 600              		.code	16
 601              		.thumb_func
 602              		.fpu softvfp
 604              	rgblight_read_dword:
 605              	.LFB271:
 233:quantum/rgblight.c **** 
 606              		.loc 1 233 36 is_stmt 1 view -0
 607              		.cfi_startproc
 608              		@ args = 0, pretend = 0, frame = 0
 609              		@ frame_needed = 0, uses_anonymous_args = 0
 610              		@ link register save eliminated.
 233:quantum/rgblight.c **** 
 611              		.loc 1 233 38 view .LVU135
 233:quantum/rgblight.c **** 
 612              		.loc 1 233 60 is_stmt 0 view .LVU136
 613 0000 014B     		ldr	r3, .L58
 233:quantum/rgblight.c **** 
 614              		.loc 1 233 1 view .LVU137
 615              		@ sp needed
 233:quantum/rgblight.c **** 
 616              		.loc 1 233 60 view .LVU138
 617 0002 1868     		ldr	r0, [r3]
 233:quantum/rgblight.c **** 
 618              		.loc 1 233 1 view .LVU139
 619 0004 7047     		bx	lr
 620              	.L59:
 621 0006 C046     		.align	2
 622              	.L58:
 623 0008 00000000 		.word	.LANCHOR5
 624              		.cfi_endproc
 625              	.LFE271:
 627              		.section	.text.rgblight_get_mode,"ax",%progbits
 628              		.align	1
 629              		.global	rgblight_get_mode
 630              		.syntax unified
 631              		.code	16
 632              		.thumb_func
 633              		.fpu softvfp
 635              	rgblight_get_mode:
 636              	.LFB281:
 282:quantum/rgblight.c ****     if (!rgblight_config.enable) {
 637              		.loc 1 282 33 is_stmt 1 view -0
 638              		.cfi_startproc
 639              		@ args = 0, pretend = 0, frame = 0
 640              		@ frame_needed = 0, uses_anonymous_args = 0
 641              		@ link register save eliminated.
 283:quantum/rgblight.c ****         return false;
 642              		.loc 1 283 5 view .LVU141
 283:quantum/rgblight.c ****         return false;
 643              		.loc 1 283 25 is_stmt 0 view .LVU142
 644 0000 034B     		ldr	r3, .L63
 645 0002 1A78     		ldrb	r2, [r3]
 646 0004 D307     		lsls	r3, r2, #31
 283:quantum/rgblight.c ****         return false;
 647              		.loc 1 283 8 view .LVU143
 648 0006 DB0F     		lsrs	r3, r3, #31
 284:quantum/rgblight.c ****     }
 649              		.loc 1 284 16 view .LVU144
 650 0008 181E     		subs	r0, r3, #0
 283:quantum/rgblight.c ****         return false;
 651              		.loc 1 283 8 view .LVU145
 652 000a 00D0     		beq	.L61
 287:quantum/rgblight.c **** }
 653              		.loc 1 287 5 is_stmt 1 view .LVU146
 287:quantum/rgblight.c **** }
 654              		.loc 1 287 27 is_stmt 0 view .LVU147
 655 000c 5008     		lsrs	r0, r2, #1
 656              	.L61:
 288:quantum/rgblight.c **** 
 657              		.loc 1 288 1 view .LVU148
 658              		@ sp needed
 659 000e 7047     		bx	lr
 660              	.L64:
 661              		.align	2
 662              	.L63:
 663 0010 00000000 		.word	.LANCHOR5
 664              		.cfi_endproc
 665              	.LFE281:
 667              		.section	.text.rgblight_increase_speed,"ax",%progbits
 668              		.align	1
 669              		.global	rgblight_increase_speed
 670              		.syntax unified
 671              		.code	16
 672              		.thumb_func
 673              		.fpu softvfp
 675              	rgblight_increase_speed:
 676              	.LFB309:
 410:quantum/rgblight.c ****     if (rgblight_config.speed < 3) rgblight_config.speed++;
 677              		.loc 1 410 36 is_stmt 1 view -0
 678              		.cfi_startproc
 679              		@ args = 0, pretend = 0, frame = 0
 680              		@ frame_needed = 0, uses_anonymous_args = 0
 411:quantum/rgblight.c ****     // RGBLIGHT_SPLIT_SET_CHANGE_HSVS; // NEED?
 681              		.loc 1 411 5 view .LVU150
 410:quantum/rgblight.c ****     if (rgblight_config.speed < 3) rgblight_config.speed++;
 682              		.loc 1 410 36 is_stmt 0 view .LVU151
 683 0000 10B5     		push	{r4, lr}
 684              		.cfi_def_cfa_offset 8
 685              		.cfi_offset 4, -8
 686              		.cfi_offset 14, -4
 411:quantum/rgblight.c ****     // RGBLIGHT_SPLIT_SET_CHANGE_HSVS; // NEED?
 687              		.loc 1 411 24 view .LVU152
 688 0002 054A     		ldr	r2, .L67
 689 0004 1379     		ldrb	r3, [r2, #4]
 411:quantum/rgblight.c ****     // RGBLIGHT_SPLIT_SET_CHANGE_HSVS; // NEED?
 690              		.loc 1 411 8 view .LVU153
 691 0006 022B     		cmp	r3, #2
 692 0008 01D8     		bhi	.L66
 411:quantum/rgblight.c ****     // RGBLIGHT_SPLIT_SET_CHANGE_HSVS; // NEED?
 693              		.loc 1 411 36 is_stmt 1 discriminator 1 view .LVU154
 411:quantum/rgblight.c ****     // RGBLIGHT_SPLIT_SET_CHANGE_HSVS; // NEED?
 694              		.loc 1 411 57 is_stmt 0 discriminator 1 view .LVU155
 695 000a 0133     		adds	r3, r3, #1
 696 000c 1371     		strb	r3, [r2, #4]
 697              	.L66:
 413:quantum/rgblight.c **** }
 698              		.loc 1 413 5 is_stmt 1 view .LVU156
 699 000e 1068     		ldr	r0, [r2]
 700 0010 FFF7FEFF 		bl	eeconfig_update_rgblight
 701              	.LVL27:
 414:quantum/rgblight.c **** 
 702              		.loc 1 414 1 is_stmt 0 view .LVU157
 703              		@ sp needed
 704 0014 10BD     		pop	{r4, pc}
 705              	.L68:
 706 0016 C046     		.align	2
 707              	.L67:
 708 0018 00000000 		.word	.LANCHOR5
 709              		.cfi_endproc
 710              	.LFE309:
 712              		.section	.text.rgblight_decrease_speed,"ax",%progbits
 713              		.align	1
 714              		.global	rgblight_decrease_speed
 715              		.syntax unified
 716              		.code	16
 717              		.thumb_func
 718              		.fpu softvfp
 720              	rgblight_decrease_speed:
 721              	.LFB310:
 416:quantum/rgblight.c ****     if (rgblight_config.speed > 0) rgblight_config.speed--;
 722              		.loc 1 416 36 is_stmt 1 view -0
 723              		.cfi_startproc
 724              		@ args = 0, pretend = 0, frame = 0
 725              		@ frame_needed = 0, uses_anonymous_args = 0
 417:quantum/rgblight.c ****     // RGBLIGHT_SPLIT_SET_CHANGE_HSVS; // NEED??
 726              		.loc 1 417 5 view .LVU159
 416:quantum/rgblight.c ****     if (rgblight_config.speed > 0) rgblight_config.speed--;
 727              		.loc 1 416 36 is_stmt 0 view .LVU160
 728 0000 10B5     		push	{r4, lr}
 729              		.cfi_def_cfa_offset 8
 730              		.cfi_offset 4, -8
 731              		.cfi_offset 14, -4
 417:quantum/rgblight.c ****     // RGBLIGHT_SPLIT_SET_CHANGE_HSVS; // NEED??
 732              		.loc 1 417 24 view .LVU161
 733 0002 054A     		ldr	r2, .L74
 734 0004 1379     		ldrb	r3, [r2, #4]
 417:quantum/rgblight.c ****     // RGBLIGHT_SPLIT_SET_CHANGE_HSVS; // NEED??
 735              		.loc 1 417 8 view .LVU162
 736 0006 002B     		cmp	r3, #0
 737 0008 01D0     		beq	.L70
 417:quantum/rgblight.c ****     // RGBLIGHT_SPLIT_SET_CHANGE_HSVS; // NEED??
 738              		.loc 1 417 36 is_stmt 1 discriminator 1 view .LVU163
 417:quantum/rgblight.c ****     // RGBLIGHT_SPLIT_SET_CHANGE_HSVS; // NEED??
 739              		.loc 1 417 57 is_stmt 0 discriminator 1 view .LVU164
 740 000a 013B     		subs	r3, r3, #1
 741 000c 1371     		strb	r3, [r2, #4]
 742              	.L70:
 419:quantum/rgblight.c **** }
 743              		.loc 1 419 5 is_stmt 1 view .LVU165
 744 000e 1068     		ldr	r0, [r2]
 745 0010 FFF7FEFF 		bl	eeconfig_update_rgblight
 746              	.LVL28:
 420:quantum/rgblight.c **** 
 747              		.loc 1 420 1 is_stmt 0 view .LVU166
 748              		@ sp needed
 749 0014 10BD     		pop	{r4, pc}
 750              	.L75:
 751 0016 C046     		.align	2
 752              	.L74:
 753 0018 00000000 		.word	.LANCHOR5
 754              		.cfi_endproc
 755              	.LFE310:
 757              		.section	.text.rgblight_get_speed,"ax",%progbits
 758              		.align	1
 759              		.global	rgblight_get_speed
 760              		.syntax unified
 761              		.code	16
 762              		.thumb_func
 763              		.fpu softvfp
 765              	rgblight_get_speed:
 766              	.LFB315:
 506:quantum/rgblight.c **** 
 767              		.loc 1 506 34 is_stmt 1 view -0
 768              		.cfi_startproc
 769              		@ args = 0, pretend = 0, frame = 0
 770              		@ frame_needed = 0, uses_anonymous_args = 0
 771              		@ link register save eliminated.
 506:quantum/rgblight.c **** 
 772              		.loc 1 506 36 view .LVU168
 506:quantum/rgblight.c **** 
 773              		.loc 1 506 58 is_stmt 0 view .LVU169
 774 0000 014B     		ldr	r3, .L77
 506:quantum/rgblight.c **** 
 775              		.loc 1 506 1 view .LVU170
 776              		@ sp needed
 506:quantum/rgblight.c **** 
 777              		.loc 1 506 58 view .LVU171
 778 0002 1879     		ldrb	r0, [r3, #4]
 506:quantum/rgblight.c **** 
 779              		.loc 1 506 1 view .LVU172
 780 0004 7047     		bx	lr
 781              	.L78:
 782 0006 C046     		.align	2
 783              	.L77:
 784 0008 00000000 		.word	.LANCHOR5
 785              		.cfi_endproc
 786              	.LFE315:
 788              		.section	.text.rgblight_set_speed_eeprom_helper,"ax",%progbits
 789              		.align	1
 790              		.global	rgblight_set_speed_eeprom_helper
 791              		.syntax unified
 792              		.code	16
 793              		.thumb_func
 794              		.fpu softvfp
 796              	rgblight_set_speed_eeprom_helper:
 797              	.LVL29:
 798              	.LFB316:
 508:quantum/rgblight.c ****     rgblight_config.speed = speed;
 799              		.loc 1 508 76 is_stmt 1 view -0
 800              		.cfi_startproc
 801              		@ args = 0, pretend = 0, frame = 0
 802              		@ frame_needed = 0, uses_anonymous_args = 0
 509:quantum/rgblight.c ****     if (write_to_eeprom) {
 803              		.loc 1 509 5 view .LVU174
 508:quantum/rgblight.c ****     rgblight_config.speed = speed;
 804              		.loc 1 508 76 is_stmt 0 view .LVU175
 805 0000 70B5     		push	{r4, r5, r6, lr}
 806              		.cfi_def_cfa_offset 16
 807              		.cfi_offset 4, -16
 808              		.cfi_offset 5, -12
 809              		.cfi_offset 6, -8
 810              		.cfi_offset 14, -4
 509:quantum/rgblight.c ****     if (write_to_eeprom) {
 811              		.loc 1 509 27 view .LVU176
 812 0002 0B4C     		ldr	r4, .L88
 813 0004 0B4D     		ldr	r5, .L88+4
 814 0006 2071     		strb	r0, [r4, #4]
 510:quantum/rgblight.c ****         eeconfig_update_rgblight(rgblight_config.raw);  // EECONFIG needs to be increased to suppor
 815              		.loc 1 510 5 is_stmt 1 view .LVU177
 510:quantum/rgblight.c ****         eeconfig_update_rgblight(rgblight_config.raw);  // EECONFIG needs to be increased to suppor
 816              		.loc 1 510 8 is_stmt 0 view .LVU178
 817 0008 0029     		cmp	r1, #0
 818 000a 0AD0     		beq	.L80
 511:quantum/rgblight.c ****         dprintf("rgblight set speed [EEPROM]: %u\n", rgblight_config.speed);
 819              		.loc 1 511 9 is_stmt 1 view .LVU179
 820 000c 2068     		ldr	r0, [r4]
 821              	.LVL30:
 511:quantum/rgblight.c ****         dprintf("rgblight set speed [EEPROM]: %u\n", rgblight_config.speed);
 822              		.loc 1 511 9 is_stmt 0 view .LVU180
 823 000e FFF7FEFF 		bl	eeconfig_update_rgblight
 824              	.LVL31:
 512:quantum/rgblight.c ****     } else {
 825              		.loc 1 512 9 is_stmt 1 view .LVU181
 512:quantum/rgblight.c ****     } else {
 826              		.loc 1 512 9 view .LVU182
 827 0012 2B78     		ldrb	r3, [r5]
 828 0014 DB07     		lsls	r3, r3, #31
 829 0016 03D5     		bpl	.L79
 830              	.LBB77:
 831              	.LBI77:
 508:quantum/rgblight.c ****     rgblight_config.speed = speed;
 832              		.loc 1 508 6 view .LVU183
 833              	.LVL32:
 834              	.LBB78:
 512:quantum/rgblight.c ****     } else {
 835              		.loc 1 512 9 view .LVU184
 836 0018 2179     		ldrb	r1, [r4, #4]
 837 001a 0748     		ldr	r0, .L88+8
 838              	.LVL33:
 839              	.L87:
 512:quantum/rgblight.c ****     } else {
 840              		.loc 1 512 9 is_stmt 0 view .LVU185
 841              	.LBE78:
 842              	.LBE77:
 514:quantum/rgblight.c ****     }
 843              		.loc 1 514 9 discriminator 1 view .LVU186
 844 001c FFF7FEFF 		bl	tfp_printf
 845              	.LVL34:
 846              	.L79:
 516:quantum/rgblight.c **** 
 847              		.loc 1 516 1 view .LVU187
 848              		@ sp needed
 849 0020 70BD     		pop	{r4, r5, r6, pc}
 850              	.LVL35:
 851              	.L80:
 514:quantum/rgblight.c ****     }
 852              		.loc 1 514 9 is_stmt 1 view .LVU188
 514:quantum/rgblight.c ****     }
 853              		.loc 1 514 9 view .LVU189
 854 0022 2B78     		ldrb	r3, [r5]
 855 0024 DB07     		lsls	r3, r3, #31
 856 0026 FBD5     		bpl	.L79
 514:quantum/rgblight.c ****     }
 857              		.loc 1 514 9 discriminator 1 view .LVU190
 858 0028 0100     		movs	r1, r0
 859              	.LVL36:
 514:quantum/rgblight.c ****     }
 860              		.loc 1 514 9 is_stmt 0 discriminator 1 view .LVU191
 861 002a 0448     		ldr	r0, .L88+12
 862              	.LVL37:
 514:quantum/rgblight.c ****     }
 863              		.loc 1 514 9 discriminator 1 view .LVU192
 864 002c F6E7     		b	.L87
 865              	.L89:
 866 002e C046     		.align	2
 867              	.L88:
 868 0030 00000000 		.word	.LANCHOR5
 869 0034 00000000 		.word	debug_config
 870 0038 00000000 		.word	.LC31
 871 003c 21000000 		.word	.LC33
 872              		.cfi_endproc
 873              	.LFE316:
 875              		.section	.text.rgblight_set_speed,"ax",%progbits
 876              		.align	1
 877              		.global	rgblight_set_speed
 878              		.syntax unified
 879              		.code	16
 880              		.thumb_func
 881              		.fpu softvfp
 883              	rgblight_set_speed:
 884              	.LVL38:
 885              	.LFB317:
 518:quantum/rgblight.c **** 
 886              		.loc 1 518 40 is_stmt 1 view -0
 887              		.cfi_startproc
 888              		@ args = 0, pretend = 0, frame = 0
 889              		@ frame_needed = 0, uses_anonymous_args = 0
 518:quantum/rgblight.c **** 
 890              		.loc 1 518 42 view .LVU194
 518:quantum/rgblight.c **** 
 891              		.loc 1 518 40 is_stmt 0 view .LVU195
 892 0000 10B5     		push	{r4, lr}
 893              		.cfi_def_cfa_offset 8
 894              		.cfi_offset 4, -8
 895              		.cfi_offset 14, -4
 518:quantum/rgblight.c **** 
 896              		.loc 1 518 42 view .LVU196
 897 0002 0121     		movs	r1, #1
 898 0004 FFF7FEFF 		bl	rgblight_set_speed_eeprom_helper
 899              	.LVL39:
 518:quantum/rgblight.c **** 
 900              		.loc 1 518 1 view .LVU197
 901              		@ sp needed
 902 0008 10BD     		pop	{r4, pc}
 903              		.cfi_endproc
 904              	.LFE317:
 906              		.section	.text.rgblight_set_speed_noeeprom,"ax",%progbits
 907              		.align	1
 908              		.global	rgblight_set_speed_noeeprom
 909              		.syntax unified
 910              		.code	16
 911              		.thumb_func
 912              		.fpu softvfp
 914              	rgblight_set_speed_noeeprom:
 915              	.LVL40:
 916              	.LFB318:
 520:quantum/rgblight.c **** 
 917              		.loc 1 520 49 is_stmt 1 view -0
 918              		.cfi_startproc
 919              		@ args = 0, pretend = 0, frame = 0
 920              		@ frame_needed = 0, uses_anonymous_args = 0
 520:quantum/rgblight.c **** 
 921              		.loc 1 520 51 view .LVU199
 520:quantum/rgblight.c **** 
 922              		.loc 1 520 49 is_stmt 0 view .LVU200
 923 0000 10B5     		push	{r4, lr}
 924              		.cfi_def_cfa_offset 8
 925              		.cfi_offset 4, -8
 926              		.cfi_offset 14, -4
 520:quantum/rgblight.c **** 
 927              		.loc 1 520 51 view .LVU201
 928 0002 0021     		movs	r1, #0
 929 0004 FFF7FEFF 		bl	rgblight_set_speed_eeprom_helper
 930              	.LVL41:
 520:quantum/rgblight.c **** 
 931              		.loc 1 520 1 view .LVU202
 932              		@ sp needed
 933 0008 10BD     		pop	{r4, pc}
 934              		.cfi_endproc
 935              	.LFE318:
 937              		.section	.text.rgblight_get_hue,"ax",%progbits
 938              		.align	1
 939              		.global	rgblight_get_hue
 940              		.syntax unified
 941              		.code	16
 942              		.thumb_func
 943              		.fpu softvfp
 945              	rgblight_get_hue:
 946              	.LFB319:
 522:quantum/rgblight.c **** 
 947              		.loc 1 522 32 is_stmt 1 view -0
 948              		.cfi_startproc
 949              		@ args = 0, pretend = 0, frame = 0
 950              		@ frame_needed = 0, uses_anonymous_args = 0
 951              		@ link register save eliminated.
 522:quantum/rgblight.c **** 
 952              		.loc 1 522 34 view .LVU204
 522:quantum/rgblight.c **** 
 953              		.loc 1 522 56 is_stmt 0 view .LVU205
 954 0000 014B     		ldr	r3, .L93
 522:quantum/rgblight.c **** 
 955              		.loc 1 522 1 view .LVU206
 956              		@ sp needed
 522:quantum/rgblight.c **** 
 957              		.loc 1 522 56 view .LVU207
 958 0002 5878     		ldrb	r0, [r3, #1]
 522:quantum/rgblight.c **** 
 959              		.loc 1 522 1 view .LVU208
 960 0004 7047     		bx	lr
 961              	.L94:
 962 0006 C046     		.align	2
 963              	.L93:
 964 0008 00000000 		.word	.LANCHOR5
 965              		.cfi_endproc
 966              	.LFE319:
 968              		.section	.text.rgblight_get_sat,"ax",%progbits
 969              		.align	1
 970              		.global	rgblight_get_sat
 971              		.syntax unified
 972              		.code	16
 973              		.thumb_func
 974              		.fpu softvfp
 976              	rgblight_get_sat:
 977              	.LFB320:
 524:quantum/rgblight.c **** 
 978              		.loc 1 524 32 is_stmt 1 view -0
 979              		.cfi_startproc
 980              		@ args = 0, pretend = 0, frame = 0
 981              		@ frame_needed = 0, uses_anonymous_args = 0
 982              		@ link register save eliminated.
 524:quantum/rgblight.c **** 
 983              		.loc 1 524 34 view .LVU210
 524:quantum/rgblight.c **** 
 984              		.loc 1 524 56 is_stmt 0 view .LVU211
 985 0000 014B     		ldr	r3, .L96
 524:quantum/rgblight.c **** 
 986              		.loc 1 524 1 view .LVU212
 987              		@ sp needed
 524:quantum/rgblight.c **** 
 988              		.loc 1 524 56 view .LVU213
 989 0002 9878     		ldrb	r0, [r3, #2]
 524:quantum/rgblight.c **** 
 990              		.loc 1 524 1 view .LVU214
 991 0004 7047     		bx	lr
 992              	.L97:
 993 0006 C046     		.align	2
 994              	.L96:
 995 0008 00000000 		.word	.LANCHOR5
 996              		.cfi_endproc
 997              	.LFE320:
 999              		.section	.text.rgblight_get_val,"ax",%progbits
 1000              		.align	1
 1001              		.global	rgblight_get_val
 1002              		.syntax unified
 1003              		.code	16
 1004              		.thumb_func
 1005              		.fpu softvfp
 1007              	rgblight_get_val:
 1008              	.LFB321:
 526:quantum/rgblight.c **** 
 1009              		.loc 1 526 32 is_stmt 1 view -0
 1010              		.cfi_startproc
 1011              		@ args = 0, pretend = 0, frame = 0
 1012              		@ frame_needed = 0, uses_anonymous_args = 0
 1013              		@ link register save eliminated.
 526:quantum/rgblight.c **** 
 1014              		.loc 1 526 34 view .LVU216
 526:quantum/rgblight.c **** 
 1015              		.loc 1 526 56 is_stmt 0 view .LVU217
 1016 0000 014B     		ldr	r3, .L99
 526:quantum/rgblight.c **** 
 1017              		.loc 1 526 1 view .LVU218
 1018              		@ sp needed
 526:quantum/rgblight.c **** 
 1019              		.loc 1 526 56 view .LVU219
 1020 0002 D878     		ldrb	r0, [r3, #3]
 526:quantum/rgblight.c **** 
 1021              		.loc 1 526 1 view .LVU220
 1022 0004 7047     		bx	lr
 1023              	.L100:
 1024 0006 C046     		.align	2
 1025              	.L99:
 1026 0008 00000000 		.word	.LANCHOR5
 1027              		.cfi_endproc
 1028              	.LFE321:
 1030              		.section	.text.rgblight_set,"ax",%progbits
 1031              		.align	1
 1032              		.global	rgblight_set
 1033              		.syntax unified
 1034              		.code	16
 1035              		.thumb_func
 1036              		.fpu softvfp
 1038              	rgblight_set:
 1039              	.LFB332:
 668:quantum/rgblight.c ****     LED_TYPE *start_led;
 1040              		.loc 1 668 25 is_stmt 1 view -0
 1041              		.cfi_startproc
 1042              		@ args = 0, pretend = 0, frame = 0
 1043              		@ frame_needed = 0, uses_anonymous_args = 0
 669:quantum/rgblight.c ****     uint16_t  num_leds = clipping_num_leds;
 1044              		.loc 1 669 5 view .LVU222
 670:quantum/rgblight.c **** 
 1045              		.loc 1 670 5 view .LVU223
 668:quantum/rgblight.c ****     LED_TYPE *start_led;
 1046              		.loc 1 668 25 is_stmt 0 view .LVU224
 1047 0000 70B5     		push	{r4, r5, r6, lr}
 1048              		.cfi_def_cfa_offset 16
 1049              		.cfi_offset 4, -16
 1050              		.cfi_offset 5, -12
 1051              		.cfi_offset 6, -8
 1052              		.cfi_offset 14, -4
 670:quantum/rgblight.c **** 
 1053              		.loc 1 670 15 view .LVU225
 1054 0002 104B     		ldr	r3, .L107
 1055 0004 104C     		ldr	r4, .L107+4
 1056 0006 1978     		ldrb	r1, [r3]
 1057              	.LVL42:
 678:quantum/rgblight.c ****         for (uint8_t i = effect_start_pos; i < effect_end_pos; i++) {
 1058              		.loc 1 678 5 is_stmt 1 view .LVU226
 678:quantum/rgblight.c ****         for (uint8_t i = effect_start_pos; i < effect_end_pos; i++) {
 1059              		.loc 1 678 25 is_stmt 0 view .LVU227
 1060 0008 104B     		ldr	r3, .L107+8
 1061 000a 1A78     		ldrb	r2, [r3]
 1062 000c D207     		lsls	r2, r2, #31
 678:quantum/rgblight.c ****         for (uint8_t i = effect_start_pos; i < effect_end_pos; i++) {
 1063              		.loc 1 678 8 view .LVU228
 1064 000e D20F     		lsrs	r2, r2, #31
 1065 0010 07D0     		beq	.L102
 1066              	.L105:
 696:quantum/rgblight.c **** #    endif
 1067              		.loc 1 696 5 is_stmt 1 view .LVU229
 1068              	.LVL43:
 704:quantum/rgblight.c **** }
 1069              		.loc 1 704 5 view .LVU230
 696:quantum/rgblight.c **** #    endif
 1070              		.loc 1 696 21 is_stmt 0 view .LVU231
 1071 0012 0320     		movs	r0, #3
 1072 0014 0E4B     		ldr	r3, .L107+12
 705:quantum/rgblight.c **** #endif
 1073              		.loc 1 705 1 view .LVU232
 1074              		@ sp needed
 696:quantum/rgblight.c **** #    endif
 1075              		.loc 1 696 21 view .LVU233
 1076 0016 1B78     		ldrb	r3, [r3]
 1077 0018 5843     		muls	r0, r3
 696:quantum/rgblight.c **** #    endif
 1078              		.loc 1 696 15 view .LVU234
 1079 001a 2018     		adds	r0, r4, r0
 704:quantum/rgblight.c **** }
 1080              		.loc 1 704 5 view .LVU235
 1081 001c FFF7FEFF 		bl	ws2812_setleds
 1082              	.LVL44:
 705:quantum/rgblight.c **** #endif
 1083              		.loc 1 705 1 view .LVU236
 1084 0020 70BD     		pop	{r4, r5, r6, pc}
 1085              	.LVL45:
 1086              	.L102:
 679:quantum/rgblight.c ****             led[i].r = 0;
 1087              		.loc 1 679 9 is_stmt 1 view .LVU237
 1088              	.LBB79:
 679:quantum/rgblight.c ****             led[i].r = 0;
 1089              		.loc 1 679 14 view .LVU238
 679:quantum/rgblight.c ****             led[i].r = 0;
 1090              		.loc 1 679 22 is_stmt 0 view .LVU239
 1091 0022 0C4B     		ldr	r3, .L107+16
 1092 0024 1878     		ldrb	r0, [r3]
 1093              	.LVL46:
 679:quantum/rgblight.c ****             led[i].r = 0;
 1094              		.loc 1 679 46 view .LVU240
 1095 0026 0C4B     		ldr	r3, .L107+20
 1096 0028 1D78     		ldrb	r5, [r3]
 1097 002a 0323     		movs	r3, #3
 1098 002c 4343     		muls	r3, r0
 1099 002e E318     		adds	r3, r4, r3
 1100              	.L103:
 679:quantum/rgblight.c ****             led[i].r = 0;
 1101              		.loc 1 679 9 discriminator 1 view .LVU241
 1102 0030 8542     		cmp	r5, r0
 1103 0032 EED9     		bls	.L105
 680:quantum/rgblight.c ****             led[i].g = 0;
 1104              		.loc 1 680 13 is_stmt 1 discriminator 3 view .LVU242
 679:quantum/rgblight.c ****             led[i].r = 0;
 1105              		.loc 1 679 65 is_stmt 0 discriminator 3 view .LVU243
 1106 0034 0130     		adds	r0, r0, #1
 1107              	.LVL47:
 680:quantum/rgblight.c ****             led[i].g = 0;
 1108              		.loc 1 680 22 discriminator 3 view .LVU244
 1109 0036 5A70     		strb	r2, [r3, #1]
 681:quantum/rgblight.c ****             led[i].b = 0;
 1110              		.loc 1 681 13 is_stmt 1 discriminator 3 view .LVU245
 681:quantum/rgblight.c ****             led[i].b = 0;
 1111              		.loc 1 681 22 is_stmt 0 discriminator 3 view .LVU246
 1112 0038 1A70     		strb	r2, [r3]
 682:quantum/rgblight.c **** #    ifdef RGBW
 1113              		.loc 1 682 13 is_stmt 1 discriminator 3 view .LVU247
 682:quantum/rgblight.c **** #    ifdef RGBW
 1114              		.loc 1 682 22 is_stmt 0 discriminator 3 view .LVU248
 1115 003a 9A70     		strb	r2, [r3, #2]
 679:quantum/rgblight.c ****             led[i].r = 0;
 1116              		.loc 1 679 65 discriminator 3 view .LVU249
 1117 003c C0B2     		uxtb	r0, r0
 1118              	.LVL48:
 679:quantum/rgblight.c ****             led[i].r = 0;
 1119              		.loc 1 679 65 discriminator 3 view .LVU250
 1120 003e 0333     		adds	r3, r3, #3
 1121 0040 F6E7     		b	.L103
 1122              	.L108:
 1123 0042 C046     		.align	2
 1124              	.L107:
 1125 0044 00000000 		.word	.LANCHOR1
 1126 0048 00000000 		.word	.LANCHOR6
 1127 004c 00000000 		.word	.LANCHOR5
 1128 0050 00000000 		.word	.LANCHOR0
 1129 0054 00000000 		.word	.LANCHOR2
 1130 0058 00000000 		.word	.LANCHOR3
 1131              	.LBE79:
 1132              		.cfi_endproc
 1133              	.LFE332:
 1135              		.section	.text.rgblight_setrgb,"ax",%progbits
 1136              		.align	1
 1137              		.global	rgblight_setrgb
 1138              		.syntax unified
 1139              		.code	16
 1140              		.thumb_func
 1141              		.fpu softvfp
 1143              	rgblight_setrgb:
 1144              	.LVL49:
 1145              	.LFB322:
 528:quantum/rgblight.c ****     if (!rgblight_config.enable) {
 1146              		.loc 1 528 55 is_stmt 1 view -0
 1147              		.cfi_startproc
 1148              		@ args = 0, pretend = 0, frame = 0
 1149              		@ frame_needed = 0, uses_anonymous_args = 0
 529:quantum/rgblight.c ****         return;
 1150              		.loc 1 529 5 view .LVU252
 529:quantum/rgblight.c ****         return;
 1151              		.loc 1 529 25 is_stmt 0 view .LVU253
 1152 0000 0C4B     		ldr	r3, .L116
 528:quantum/rgblight.c ****     if (!rgblight_config.enable) {
 1153              		.loc 1 528 55 view .LVU254
 1154 0002 70B5     		push	{r4, r5, r6, lr}
 1155              		.cfi_def_cfa_offset 16
 1156              		.cfi_offset 4, -16
 1157              		.cfi_offset 5, -12
 1158              		.cfi_offset 6, -8
 1159              		.cfi_offset 14, -4
 529:quantum/rgblight.c ****         return;
 1160              		.loc 1 529 25 view .LVU255
 1161 0004 1B78     		ldrb	r3, [r3]
 529:quantum/rgblight.c ****         return;
 1162              		.loc 1 529 8 view .LVU256
 1163 0006 DB07     		lsls	r3, r3, #31
 1164 0008 0BD5     		bpl	.L109
 1165              	.LVL50:
 1166              	.LBB83:
 1167              	.LBI83:
 528:quantum/rgblight.c ****     if (!rgblight_config.enable) {
 1168              		.loc 1 528 6 is_stmt 1 view .LVU257
 1169              	.LBB84:
 533:quantum/rgblight.c ****         led[i].r = r;
 1170              		.loc 1 533 5 view .LVU258
 1171              	.LBB85:
 533:quantum/rgblight.c ****         led[i].r = r;
 1172              		.loc 1 533 10 view .LVU259
 1173 000a 0325     		movs	r5, #3
 533:quantum/rgblight.c ****         led[i].r = r;
 1174              		.loc 1 533 18 is_stmt 0 view .LVU260
 1175 000c 0A4B     		ldr	r3, .L116+4
 1176 000e 1C78     		ldrb	r4, [r3]
 1177              	.LVL51:
 533:quantum/rgblight.c ****         led[i].r = r;
 1178              		.loc 1 533 42 view .LVU261
 1179 0010 0A4B     		ldr	r3, .L116+8
 1180 0012 6543     		muls	r5, r4
 1181 0014 1E78     		ldrb	r6, [r3]
 1182 0016 0A4B     		ldr	r3, .L116+12
 1183 0018 5B19     		adds	r3, r3, r5
 1184              	.L111:
 533:quantum/rgblight.c ****         led[i].r = r;
 1185              		.loc 1 533 5 view .LVU262
 1186 001a B442     		cmp	r4, r6
 1187 001c 02D3     		bcc	.L112
 533:quantum/rgblight.c ****         led[i].r = r;
 1188              		.loc 1 533 5 view .LVU263
 1189              	.LBE85:
 541:quantum/rgblight.c **** }
 1190              		.loc 1 541 5 is_stmt 1 view .LVU264
 1191 001e FFF7FEFF 		bl	rgblight_set
 1192              	.LVL52:
 1193              	.L109:
 541:quantum/rgblight.c **** }
 1194              		.loc 1 541 5 is_stmt 0 view .LVU265
 1195              	.LBE84:
 1196              	.LBE83:
 542:quantum/rgblight.c **** 
 1197              		.loc 1 542 1 view .LVU266
 1198              		@ sp needed
 1199 0022 70BD     		pop	{r4, r5, r6, pc}
 1200              	.LVL53:
 1201              	.L112:
 1202              	.LBB88:
 1203              	.LBB87:
 1204              	.LBB86:
 534:quantum/rgblight.c ****         led[i].g = g;
 1205              		.loc 1 534 9 is_stmt 1 view .LVU267
 533:quantum/rgblight.c ****         led[i].r = r;
 1206              		.loc 1 533 61 is_stmt 0 view .LVU268
 1207 0024 0134     		adds	r4, r4, #1
 1208              	.LVL54:
 534:quantum/rgblight.c ****         led[i].g = g;
 1209              		.loc 1 534 18 view .LVU269
 1210 0026 5870     		strb	r0, [r3, #1]
 535:quantum/rgblight.c ****         led[i].b = b;
 1211              		.loc 1 535 9 is_stmt 1 view .LVU270
 535:quantum/rgblight.c ****         led[i].b = b;
 1212              		.loc 1 535 18 is_stmt 0 view .LVU271
 1213 0028 1970     		strb	r1, [r3]
 536:quantum/rgblight.c **** #ifdef RGBW
 1214              		.loc 1 536 9 is_stmt 1 view .LVU272
 536:quantum/rgblight.c **** #ifdef RGBW
 1215              		.loc 1 536 18 is_stmt 0 view .LVU273
 1216 002a 9A70     		strb	r2, [r3, #2]
 533:quantum/rgblight.c ****         led[i].r = r;
 1217              		.loc 1 533 61 view .LVU274
 1218 002c E4B2     		uxtb	r4, r4
 1219              	.LVL55:
 533:quantum/rgblight.c ****         led[i].r = r;
 1220              		.loc 1 533 61 view .LVU275
 1221 002e 0333     		adds	r3, r3, #3
 1222 0030 F3E7     		b	.L111
 1223              	.L117:
 1224 0032 C046     		.align	2
 1225              	.L116:
 1226 0034 00000000 		.word	.LANCHOR5
 1227 0038 00000000 		.word	.LANCHOR2
 1228 003c 00000000 		.word	.LANCHOR3
 1229 0040 00000000 		.word	.LANCHOR6
 1230              	.LBE86:
 1231              	.LBE87:
 1232              	.LBE88:
 1233              		.cfi_endproc
 1234              	.LFE322:
 1236              		.section	.text.rgblight_sethsv_noeeprom_old,"ax",%progbits
 1237              		.align	1
 1238              		.global	rgblight_sethsv_noeeprom_old
 1239              		.syntax unified
 1240              		.code	16
 1241              		.thumb_func
 1242              		.fpu softvfp
 1244              	rgblight_sethsv_noeeprom_old:
 1245              	.LVL56:
 1246              	.LFB311:
 422:quantum/rgblight.c ****     if (rgblight_config.enable) {
 1247              		.loc 1 422 74 is_stmt 1 view -0
 1248              		.cfi_startproc
 1249              		@ args = 0, pretend = 0, frame = 8
 1250              		@ frame_needed = 0, uses_anonymous_args = 0
 423:quantum/rgblight.c ****         LED_TYPE tmp_led;
 1251              		.loc 1 423 5 view .LVU277
 423:quantum/rgblight.c ****         LED_TYPE tmp_led;
 1252              		.loc 1 423 9 is_stmt 0 view .LVU278
 1253 0000 074B     		ldr	r3, .L123
 422:quantum/rgblight.c ****     if (rgblight_config.enable) {
 1254              		.loc 1 422 74 view .LVU279
 1255 0002 13B5     		push	{r0, r1, r4, lr}
 1256              		.cfi_def_cfa_offset 16
 1257              		.cfi_offset 0, -16
 1258              		.cfi_offset 1, -12
 1259              		.cfi_offset 4, -8
 1260              		.cfi_offset 14, -4
 423:quantum/rgblight.c ****         LED_TYPE tmp_led;
 1261              		.loc 1 423 9 view .LVU280
 1262 0004 1B78     		ldrb	r3, [r3]
 423:quantum/rgblight.c ****         LED_TYPE tmp_led;
 1263              		.loc 1 423 8 view .LVU281
 1264 0006 DB07     		lsls	r3, r3, #31
 1265 0008 08D5     		bpl	.L118
 1266              	.LVL57:
 1267              	.LBB94:
 1268              	.LBI94:
 422:quantum/rgblight.c ****     if (rgblight_config.enable) {
 1269              		.loc 1 422 6 is_stmt 1 view .LVU282
 1270              	.LBB95:
 424:quantum/rgblight.c ****         sethsv(hue, sat, val, &tmp_led);
 1271              		.loc 1 424 9 view .LVU283
 425:quantum/rgblight.c ****         rgblight_setrgb(tmp_led.r, tmp_led.g, tmp_led.b);
 1272              		.loc 1 425 9 view .LVU284
 1273              	.LBB96:
 1274              	.LBI96:
 135:quantum/rgblight.c **** 
 1275              		.loc 1 135 6 view .LVU285
 1276              	.LBB97:
 135:quantum/rgblight.c **** 
 1277              		.loc 1 135 70 view .LVU286
 1278 000a 01AC     		add	r4, sp, #4
 1279              	.LVL58:
 135:quantum/rgblight.c **** 
 1280              		.loc 1 135 70 is_stmt 0 view .LVU287
 1281 000c 2300     		movs	r3, r4
 1282 000e FFF7FEFF 		bl	sethsv_raw
 1283              	.LVL59:
 135:quantum/rgblight.c **** 
 1284              		.loc 1 135 70 view .LVU288
 1285              	.LBE97:
 1286              	.LBE96:
 426:quantum/rgblight.c ****     }
 1287              		.loc 1 426 9 is_stmt 1 view .LVU289
 1288 0012 A278     		ldrb	r2, [r4, #2]
 1289 0014 2178     		ldrb	r1, [r4]
 1290 0016 6078     		ldrb	r0, [r4, #1]
 1291 0018 FFF7FEFF 		bl	rgblight_setrgb
 1292              	.LVL60:
 1293              	.L118:
 426:quantum/rgblight.c ****     }
 1294              		.loc 1 426 9 is_stmt 0 view .LVU290
 1295              	.LBE95:
 1296              	.LBE94:
 428:quantum/rgblight.c **** 
 1297              		.loc 1 428 1 view .LVU291
 1298              		@ sp needed
 1299 001c 13BD     		pop	{r0, r1, r4, pc}
 1300              	.L124:
 1301 001e C046     		.align	2
 1302              	.L123:
 1303 0020 00000000 		.word	.LANCHOR5
 1304              		.cfi_endproc
 1305              	.LFE311:
 1307              		.section	.text.rgblight_effect_breathing,"ax",%progbits
 1308              		.align	1
 1309              		.global	rgblight_effect_breathing
 1310              		.syntax unified
 1311              		.code	16
 1312              		.thumb_func
 1313              		.fpu softvfp
 1315              	rgblight_effect_breathing:
 1316              	.LVL61:
 1317              	.LFB340:
 819:quantum/rgblight.c **** 
 820:quantum/rgblight.c **** void rgblight_task(void) {
 821:quantum/rgblight.c ****     if (rgblight_status.timer_enabled) {
 822:quantum/rgblight.c ****         effect_func_t effect_func   = rgblight_effect_dummy;
 823:quantum/rgblight.c ****         uint16_t      interval_time = 2000;  // dummy interval
 824:quantum/rgblight.c ****         uint8_t       delta         = rgblight_config.mode - rgblight_status.base_mode;
 825:quantum/rgblight.c ****         animation_status.delta      = delta;
 826:quantum/rgblight.c **** 
 827:quantum/rgblight.c ****         // static light mode, do nothing here
 828:quantum/rgblight.c ****         if (1 == 0) {  // dummy
 829:quantum/rgblight.c ****         }
 830:quantum/rgblight.c **** #    ifdef RGBLIGHT_EFFECT_BREATHING
 831:quantum/rgblight.c ****         else if (rgblight_status.base_mode == RGBLIGHT_MODE_BREATHING) {
 832:quantum/rgblight.c ****             // breathing mode
 833:quantum/rgblight.c ****             interval_time = get_interval_time(&RGBLED_BREATHING_INTERVALS[delta], 1, 100);
 834:quantum/rgblight.c ****             effect_func   = rgblight_effect_breathing;
 835:quantum/rgblight.c ****         }
 836:quantum/rgblight.c **** #    endif
 837:quantum/rgblight.c **** #    ifdef RGBLIGHT_EFFECT_RAINBOW_MOOD
 838:quantum/rgblight.c ****         else if (rgblight_status.base_mode == RGBLIGHT_MODE_RAINBOW_MOOD) {
 839:quantum/rgblight.c ****             // rainbow mood mode
 840:quantum/rgblight.c ****             interval_time = get_interval_time(&RGBLED_RAINBOW_MOOD_INTERVALS[delta], 5, 100);
 841:quantum/rgblight.c ****             effect_func   = rgblight_effect_rainbow_mood;
 842:quantum/rgblight.c ****         }
 843:quantum/rgblight.c **** #    endif
 844:quantum/rgblight.c **** #    ifdef RGBLIGHT_EFFECT_RAINBOW_SWIRL
 845:quantum/rgblight.c ****         else if (rgblight_status.base_mode == RGBLIGHT_MODE_RAINBOW_SWIRL) {
 846:quantum/rgblight.c ****             // rainbow swirl mode
 847:quantum/rgblight.c ****             interval_time = get_interval_time(&RGBLED_RAINBOW_SWIRL_INTERVALS[delta / 2], 1, 100);
 848:quantum/rgblight.c ****             effect_func   = rgblight_effect_rainbow_swirl;
 849:quantum/rgblight.c ****         }
 850:quantum/rgblight.c **** #    endif
 851:quantum/rgblight.c **** #    ifdef RGBLIGHT_EFFECT_SNAKE
 852:quantum/rgblight.c ****         else if (rgblight_status.base_mode == RGBLIGHT_MODE_SNAKE) {
 853:quantum/rgblight.c ****             // snake mode
 854:quantum/rgblight.c ****             interval_time = get_interval_time(&RGBLED_SNAKE_INTERVALS[delta / 2], 1, 200);
 855:quantum/rgblight.c ****             effect_func   = rgblight_effect_snake;
 856:quantum/rgblight.c ****         }
 857:quantum/rgblight.c **** #    endif
 858:quantum/rgblight.c **** #    ifdef RGBLIGHT_EFFECT_KNIGHT
 859:quantum/rgblight.c ****         else if (rgblight_status.base_mode == RGBLIGHT_MODE_KNIGHT) {
 860:quantum/rgblight.c ****             // knight mode
 861:quantum/rgblight.c ****             interval_time = get_interval_time(&RGBLED_KNIGHT_INTERVALS[delta], 5, 100);
 862:quantum/rgblight.c ****             effect_func   = rgblight_effect_knight;
 863:quantum/rgblight.c ****         }
 864:quantum/rgblight.c **** #    endif
 865:quantum/rgblight.c **** #    ifdef RGBLIGHT_EFFECT_CHRISTMAS
 866:quantum/rgblight.c ****         else if (rgblight_status.base_mode == RGBLIGHT_MODE_CHRISTMAS) {
 867:quantum/rgblight.c ****             // christmas mode
 868:quantum/rgblight.c ****             interval_time = RGBLIGHT_EFFECT_CHRISTMAS_INTERVAL;
 869:quantum/rgblight.c ****             effect_func   = (effect_func_t)rgblight_effect_christmas;
 870:quantum/rgblight.c ****         }
 871:quantum/rgblight.c **** #    endif
 872:quantum/rgblight.c **** #    ifdef RGBLIGHT_EFFECT_RGB_TEST
 873:quantum/rgblight.c ****         else if (rgblight_status.base_mode == RGBLIGHT_MODE_RGB_TEST) {
 874:quantum/rgblight.c ****             // RGB test mode
 875:quantum/rgblight.c ****             interval_time = pgm_read_word(&RGBLED_RGBTEST_INTERVALS[0]);
 876:quantum/rgblight.c ****             effect_func   = (effect_func_t)rgblight_effect_rgbtest;
 877:quantum/rgblight.c ****         }
 878:quantum/rgblight.c **** #    endif
 879:quantum/rgblight.c **** #    ifdef RGBLIGHT_EFFECT_ALTERNATING
 880:quantum/rgblight.c ****         else if (rgblight_status.base_mode == RGBLIGHT_MODE_ALTERNATING) {
 881:quantum/rgblight.c ****             interval_time = 500;
 882:quantum/rgblight.c ****             effect_func   = (effect_func_t)rgblight_effect_alternating;
 883:quantum/rgblight.c ****         }
 884:quantum/rgblight.c **** #    endif
 885:quantum/rgblight.c ****         if (animation_status.restart) {
 886:quantum/rgblight.c ****             animation_status.restart    = false;
 887:quantum/rgblight.c ****             animation_status.last_timer = timer_read() - interval_time - 1;
 888:quantum/rgblight.c ****             animation_status.pos16      = 0;  // restart signal to local each effect
 889:quantum/rgblight.c ****         }
 890:quantum/rgblight.c ****         if (timer_elapsed(animation_status.last_timer) >= interval_time) {
 891:quantum/rgblight.c **** #    if defined(RGBLIGHT_SPLIT) && !defined(RGBLIGHT_SPLIT_NO_ANIMATION_SYNC)
 892:quantum/rgblight.c ****             static uint16_t report_last_timer = 0;
 893:quantum/rgblight.c ****             static bool     tick_flag         = false;
 894:quantum/rgblight.c ****             uint16_t        oldpos16;
 895:quantum/rgblight.c ****             if (tick_flag) {
 896:quantum/rgblight.c ****                 tick_flag = false;
 897:quantum/rgblight.c ****                 if (timer_elapsed(report_last_timer) >= 30000) {
 898:quantum/rgblight.c ****                     report_last_timer = timer_read();
 899:quantum/rgblight.c ****                     dprintf("rgblight animation tick report to slave\n");
 900:quantum/rgblight.c ****                     RGBLIGHT_SPLIT_ANIMATION_TICK;
 901:quantum/rgblight.c ****                 }
 902:quantum/rgblight.c ****             }
 903:quantum/rgblight.c ****             oldpos16 = animation_status.pos16;
 904:quantum/rgblight.c **** #    endif
 905:quantum/rgblight.c ****             animation_status.last_timer += interval_time;
 906:quantum/rgblight.c ****             effect_func(&animation_status);
 907:quantum/rgblight.c **** #    if defined(RGBLIGHT_SPLIT) && !defined(RGBLIGHT_SPLIT_NO_ANIMATION_SYNC)
 908:quantum/rgblight.c ****             if (animation_status.pos16 == 0 && oldpos16 != 0) {
 909:quantum/rgblight.c ****                 tick_flag = true;
 910:quantum/rgblight.c ****             }
 911:quantum/rgblight.c **** #    endif
 912:quantum/rgblight.c ****         }
 913:quantum/rgblight.c ****     }
 914:quantum/rgblight.c **** }
 915:quantum/rgblight.c **** 
 916:quantum/rgblight.c **** #endif /* RGBLIGHT_USE_TIMER */
 917:quantum/rgblight.c **** 
 918:quantum/rgblight.c **** // Effects
 919:quantum/rgblight.c **** #ifdef RGBLIGHT_EFFECT_BREATHING
 920:quantum/rgblight.c **** 
 921:quantum/rgblight.c **** #    ifndef RGBLIGHT_EFFECT_BREATHE_CENTER
 922:quantum/rgblight.c **** #        ifndef RGBLIGHT_BREATHE_TABLE_SIZE
 923:quantum/rgblight.c **** #            define RGBLIGHT_BREATHE_TABLE_SIZE 256  // 256 or 128 or 64
 924:quantum/rgblight.c **** #        endif
 925:quantum/rgblight.c **** #        include <rgblight_breathe_table.h>
 926:quantum/rgblight.c **** #    endif
 927:quantum/rgblight.c **** 
 928:quantum/rgblight.c **** __attribute__((weak)) const uint8_t RGBLED_BREATHING_INTERVALS[] PROGMEM = {30, 20, 10, 5};
 929:quantum/rgblight.c **** 
 930:quantum/rgblight.c **** void rgblight_effect_breathing(animation_status_t *anim) {
 1318              		.loc 1 930 58 is_stmt 1 view -0
 1319              		.cfi_startproc
 1320              		@ args = 0, pretend = 0, frame = 0
 1321              		@ frame_needed = 0, uses_anonymous_args = 0
 931:quantum/rgblight.c ****     float val;
 1322              		.loc 1 931 5 view .LVU293
 932:quantum/rgblight.c **** 
 933:quantum/rgblight.c ****     // http://sean.voisen.org/blog/2011/10/breathing-led-with-arduino/
 934:quantum/rgblight.c **** #    ifdef RGBLIGHT_EFFECT_BREATHE_TABLE
 935:quantum/rgblight.c ****     val = pgm_read_byte(&rgblight_effect_breathe_table[anim->pos / table_scale]);
 1323              		.loc 1 935 5 view .LVU294
 936:quantum/rgblight.c **** #    else
 937:quantum/rgblight.c ****     val = (exp(sin((anim->pos / 255.0) * M_PI)) - RGBLIGHT_EFFECT_BREATHE_CENTER / M_E) * (RGBLIGHT
 938:quantum/rgblight.c **** #    endif
 939:quantum/rgblight.c ****     rgblight_sethsv_noeeprom_old(rgblight_config.hue, rgblight_config.sat, val);
 1324              		.loc 1 939 5 view .LVU295
 930:quantum/rgblight.c ****     float val;
 1325              		.loc 1 930 58 is_stmt 0 view .LVU296
 1326 0000 10B5     		push	{r4, lr}
 1327              		.cfi_def_cfa_offset 8
 1328              		.cfi_offset 4, -8
 1329              		.cfi_offset 14, -4
 930:quantum/rgblight.c ****     float val;
 1330              		.loc 1 930 58 view .LVU297
 1331 0002 0400     		movs	r4, r0
 935:quantum/rgblight.c **** #    else
 1332              		.loc 1 935 11 view .LVU298
 1333 0004 0379     		ldrb	r3, [r0, #4]
 1334              		.loc 1 939 5 view .LVU299
 1335 0006 054A     		ldr	r2, .L126
 940:quantum/rgblight.c ****     anim->pos = (anim->pos + 1);
 941:quantum/rgblight.c **** }
 1336              		.loc 1 941 1 view .LVU300
 1337              		@ sp needed
 939:quantum/rgblight.c ****     anim->pos = (anim->pos + 1);
 1338              		.loc 1 939 5 view .LVU301
 1339 0008 D25C     		ldrb	r2, [r2, r3]
 1340 000a 054B     		ldr	r3, .L126+4
 1341 000c 9978     		ldrb	r1, [r3, #2]
 1342 000e 5878     		ldrb	r0, [r3, #1]
 1343              	.LVL62:
 939:quantum/rgblight.c ****     anim->pos = (anim->pos + 1);
 1344              		.loc 1 939 5 view .LVU302
 1345 0010 FFF7FEFF 		bl	rgblight_sethsv_noeeprom_old
 1346              	.LVL63:
 940:quantum/rgblight.c ****     anim->pos = (anim->pos + 1);
 1347              		.loc 1 940 5 is_stmt 1 view .LVU303
 940:quantum/rgblight.c ****     anim->pos = (anim->pos + 1);
 1348              		.loc 1 940 28 is_stmt 0 view .LVU304
 1349 0014 2379     		ldrb	r3, [r4, #4]
 1350 0016 0133     		adds	r3, r3, #1
 940:quantum/rgblight.c ****     anim->pos = (anim->pos + 1);
 1351              		.loc 1 940 15 view .LVU305
 1352 0018 2371     		strb	r3, [r4, #4]
 1353              	.LVL64:
 1354              		.loc 1 941 1 view .LVU306
 1355 001a 10BD     		pop	{r4, pc}
 1356              	.L127:
 1357              		.align	2
 1358              	.L126:
 1359 001c 00000000 		.word	rgblight_effect_breathe_table
 1360 0020 00000000 		.word	.LANCHOR5
 1361              		.cfi_endproc
 1362              	.LFE340:
 1364              		.section	.text.rgblight_effect_rainbow_mood,"ax",%progbits
 1365              		.align	1
 1366              		.global	rgblight_effect_rainbow_mood
 1367              		.syntax unified
 1368              		.code	16
 1369              		.thumb_func
 1370              		.fpu softvfp
 1372              	rgblight_effect_rainbow_mood:
 1373              	.LVL65:
 1374              	.LFB341:
 942:quantum/rgblight.c **** #endif
 943:quantum/rgblight.c **** 
 944:quantum/rgblight.c **** #ifdef RGBLIGHT_EFFECT_RAINBOW_MOOD
 945:quantum/rgblight.c **** __attribute__((weak)) const uint8_t RGBLED_RAINBOW_MOOD_INTERVALS[] PROGMEM = {120, 60, 30};
 946:quantum/rgblight.c **** 
 947:quantum/rgblight.c **** void rgblight_effect_rainbow_mood(animation_status_t *anim) {
 1375              		.loc 1 947 61 is_stmt 1 view -0
 1376              		.cfi_startproc
 1377              		@ args = 0, pretend = 0, frame = 0
 1378              		@ frame_needed = 0, uses_anonymous_args = 0
 948:quantum/rgblight.c ****     rgblight_sethsv_noeeprom_old(anim->current_hue, rgblight_config.sat, rgblight_config.val);
 1379              		.loc 1 948 5 view .LVU308
 947:quantum/rgblight.c ****     rgblight_sethsv_noeeprom_old(anim->current_hue, rgblight_config.sat, rgblight_config.val);
 1380              		.loc 1 947 61 is_stmt 0 view .LVU309
 1381 0000 10B5     		push	{r4, lr}
 1382              		.cfi_def_cfa_offset 8
 1383              		.cfi_offset 4, -8
 1384              		.cfi_offset 14, -4
 947:quantum/rgblight.c ****     rgblight_sethsv_noeeprom_old(anim->current_hue, rgblight_config.sat, rgblight_config.val);
 1385              		.loc 1 947 61 view .LVU310
 1386 0002 0400     		movs	r4, r0
 1387              		.loc 1 948 5 view .LVU311
 1388 0004 044B     		ldr	r3, .L129
 1389 0006 0079     		ldrb	r0, [r0, #4]
 1390              	.LVL66:
 1391              		.loc 1 948 5 view .LVU312
 1392 0008 DA78     		ldrb	r2, [r3, #3]
 1393 000a 9978     		ldrb	r1, [r3, #2]
 1394 000c FFF7FEFF 		bl	rgblight_sethsv_noeeprom_old
 1395              	.LVL67:
 949:quantum/rgblight.c ****     anim->current_hue++;
 1396              		.loc 1 949 5 is_stmt 1 view .LVU313
 1397              		.loc 1 949 22 is_stmt 0 view .LVU314
 1398 0010 2379     		ldrb	r3, [r4, #4]
 950:quantum/rgblight.c **** }
 1399              		.loc 1 950 1 view .LVU315
 1400              		@ sp needed
 949:quantum/rgblight.c ****     anim->current_hue++;
 1401              		.loc 1 949 22 view .LVU316
 1402 0012 0133     		adds	r3, r3, #1
 1403 0014 2371     		strb	r3, [r4, #4]
 1404              	.LVL68:
 1405              		.loc 1 950 1 view .LVU317
 1406 0016 10BD     		pop	{r4, pc}
 1407              	.L130:
 1408              		.align	2
 1409              	.L129:
 1410 0018 00000000 		.word	.LANCHOR5
 1411              		.cfi_endproc
 1412              	.LFE341:
 1414              		.global	__aeabi_uidivmod
 1415              		.global	__aeabi_idivmod
 1416              		.section	.text.rgblight_effect_rgbtest,"ax",%progbits
 1417              		.align	1
 1418              		.global	rgblight_effect_rgbtest
 1419              		.syntax unified
 1420              		.code	16
 1421              		.thumb_func
 1422              		.fpu softvfp
 1424              	rgblight_effect_rgbtest:
 1425              	.LVL69:
 1426              	.LFB346:
 951:quantum/rgblight.c **** #endif
 952:quantum/rgblight.c **** 
 953:quantum/rgblight.c **** #ifdef RGBLIGHT_EFFECT_RAINBOW_SWIRL
 954:quantum/rgblight.c **** #    ifndef RGBLIGHT_RAINBOW_SWIRL_RANGE
 955:quantum/rgblight.c **** #        define RGBLIGHT_RAINBOW_SWIRL_RANGE 255
 956:quantum/rgblight.c **** #    endif
 957:quantum/rgblight.c **** 
 958:quantum/rgblight.c **** __attribute__((weak)) const uint8_t RGBLED_RAINBOW_SWIRL_INTERVALS[] PROGMEM = {100, 50, 20};
 959:quantum/rgblight.c **** 
 960:quantum/rgblight.c **** void rgblight_effect_rainbow_swirl(animation_status_t *anim) {
 961:quantum/rgblight.c ****     uint8_t hue;
 962:quantum/rgblight.c ****     uint8_t i;
 963:quantum/rgblight.c **** 
 964:quantum/rgblight.c ****     for (i = 0; i < effect_num_leds; i++) {
 965:quantum/rgblight.c ****         hue = (RGBLIGHT_RAINBOW_SWIRL_RANGE / effect_num_leds * i + anim->current_hue);
 966:quantum/rgblight.c ****         sethsv(hue, rgblight_config.sat, rgblight_config.val, (LED_TYPE *)&led[i + effect_start_pos
 967:quantum/rgblight.c ****     }
 968:quantum/rgblight.c ****     rgblight_set();
 969:quantum/rgblight.c **** 
 970:quantum/rgblight.c ****     if (anim->delta % 2) {
 971:quantum/rgblight.c ****         anim->current_hue++;
 972:quantum/rgblight.c ****     } else {
 973:quantum/rgblight.c ****         anim->current_hue--;
 974:quantum/rgblight.c ****     }
 975:quantum/rgblight.c **** }
 976:quantum/rgblight.c **** #endif
 977:quantum/rgblight.c **** 
 978:quantum/rgblight.c **** #ifdef RGBLIGHT_EFFECT_SNAKE
 979:quantum/rgblight.c **** __attribute__((weak)) const uint8_t RGBLED_SNAKE_INTERVALS[] PROGMEM = {100, 50, 20};
 980:quantum/rgblight.c **** 
 981:quantum/rgblight.c **** void rgblight_effect_snake(animation_status_t *anim) {
 982:quantum/rgblight.c ****     static uint8_t pos = 0;
 983:quantum/rgblight.c ****     uint8_t        i, j;
 984:quantum/rgblight.c ****     int8_t         k;
 985:quantum/rgblight.c ****     int8_t         increment = 1;
 986:quantum/rgblight.c **** 
 987:quantum/rgblight.c ****     if (anim->delta % 2) {
 988:quantum/rgblight.c ****         increment = -1;
 989:quantum/rgblight.c ****     }
 990:quantum/rgblight.c **** 
 991:quantum/rgblight.c **** #    if defined(RGBLIGHT_SPLIT) && !defined(RGBLIGHT_SPLIT_NO_ANIMATION_SYNC)
 992:quantum/rgblight.c ****     if (anim->pos == 0) {  // restart signal
 993:quantum/rgblight.c ****         if (increment == 1) {
 994:quantum/rgblight.c ****             pos = effect_num_leds - 1;
 995:quantum/rgblight.c ****         } else {
 996:quantum/rgblight.c ****             pos = 0;
 997:quantum/rgblight.c ****         }
 998:quantum/rgblight.c ****         anim->pos = 1;
 999:quantum/rgblight.c ****     }
1000:quantum/rgblight.c **** #    endif
1001:quantum/rgblight.c **** 
1002:quantum/rgblight.c ****     for (i = 0; i < effect_num_leds; i++) {
1003:quantum/rgblight.c ****         LED_TYPE *ledp = led + i + effect_start_pos;
1004:quantum/rgblight.c ****         ledp->r        = 0;
1005:quantum/rgblight.c ****         ledp->g        = 0;
1006:quantum/rgblight.c ****         ledp->b        = 0;
1007:quantum/rgblight.c **** #    ifdef RGBW
1008:quantum/rgblight.c ****         ledp->w = 0;
1009:quantum/rgblight.c **** #    endif
1010:quantum/rgblight.c ****         for (j = 0; j < RGBLIGHT_EFFECT_SNAKE_LENGTH; j++) {
1011:quantum/rgblight.c ****             k = pos + j * increment;
1012:quantum/rgblight.c ****             if (k > RGBLED_NUM) {
1013:quantum/rgblight.c ****                 k = k % RGBLED_NUM;
1014:quantum/rgblight.c ****             }
1015:quantum/rgblight.c ****             if (k < 0) {
1016:quantum/rgblight.c ****                 k = k + effect_num_leds;
1017:quantum/rgblight.c ****             }
1018:quantum/rgblight.c ****             if (i == k) {
1019:quantum/rgblight.c ****                 sethsv(rgblight_config.hue, rgblight_config.sat, (uint8_t)(rgblight_config.val * (R
1020:quantum/rgblight.c ****             }
1021:quantum/rgblight.c ****         }
1022:quantum/rgblight.c ****     }
1023:quantum/rgblight.c ****     rgblight_set();
1024:quantum/rgblight.c ****     if (increment == 1) {
1025:quantum/rgblight.c ****         if (pos - 1 < 0) {
1026:quantum/rgblight.c ****             pos = effect_num_leds - 1;
1027:quantum/rgblight.c **** #    if defined(RGBLIGHT_SPLIT) && !defined(RGBLIGHT_SPLIT_NO_ANIMATION_SYNC)
1028:quantum/rgblight.c ****             anim->pos = 0;
1029:quantum/rgblight.c **** #    endif
1030:quantum/rgblight.c ****         } else {
1031:quantum/rgblight.c ****             pos -= 1;
1032:quantum/rgblight.c **** #    if defined(RGBLIGHT_SPLIT) && !defined(RGBLIGHT_SPLIT_NO_ANIMATION_SYNC)
1033:quantum/rgblight.c ****             anim->pos = 1;
1034:quantum/rgblight.c **** #    endif
1035:quantum/rgblight.c ****         }
1036:quantum/rgblight.c ****     } else {
1037:quantum/rgblight.c ****         pos = (pos + 1) % effect_num_leds;
1038:quantum/rgblight.c **** #    if defined(RGBLIGHT_SPLIT) && !defined(RGBLIGHT_SPLIT_NO_ANIMATION_SYNC)
1039:quantum/rgblight.c ****         anim->pos = pos;
1040:quantum/rgblight.c **** #    endif
1041:quantum/rgblight.c ****     }
1042:quantum/rgblight.c **** }
1043:quantum/rgblight.c **** #endif
1044:quantum/rgblight.c **** 
1045:quantum/rgblight.c **** #ifdef RGBLIGHT_EFFECT_KNIGHT
1046:quantum/rgblight.c **** __attribute__((weak)) const uint8_t RGBLED_KNIGHT_INTERVALS[] PROGMEM = {127, 63, 31};
1047:quantum/rgblight.c **** 
1048:quantum/rgblight.c **** void rgblight_effect_knight(animation_status_t *anim) {
1049:quantum/rgblight.c ****     static int8_t low_bound  = 0;
1050:quantum/rgblight.c ****     static int8_t high_bound = RGBLIGHT_EFFECT_KNIGHT_LENGTH - 1;
1051:quantum/rgblight.c ****     static int8_t increment  = 1;
1052:quantum/rgblight.c ****     uint8_t       i, cur;
1053:quantum/rgblight.c **** 
1054:quantum/rgblight.c **** #    if defined(RGBLIGHT_SPLIT) && !defined(RGBLIGHT_SPLIT_NO_ANIMATION_SYNC)
1055:quantum/rgblight.c ****     if (anim->pos == 0) {  // restart signal
1056:quantum/rgblight.c ****         anim->pos  = 1;
1057:quantum/rgblight.c ****         low_bound  = 0;
1058:quantum/rgblight.c ****         high_bound = RGBLIGHT_EFFECT_KNIGHT_LENGTH - 1;
1059:quantum/rgblight.c ****         increment  = 1;
1060:quantum/rgblight.c ****     }
1061:quantum/rgblight.c **** #    endif
1062:quantum/rgblight.c ****     // Set all the LEDs to 0
1063:quantum/rgblight.c ****     for (i = effect_start_pos; i < effect_end_pos; i++) {
1064:quantum/rgblight.c ****         led[i].r = 0;
1065:quantum/rgblight.c ****         led[i].g = 0;
1066:quantum/rgblight.c ****         led[i].b = 0;
1067:quantum/rgblight.c **** #    ifdef RGBW
1068:quantum/rgblight.c ****         led[i].w = 0;
1069:quantum/rgblight.c **** #    endif
1070:quantum/rgblight.c ****     }
1071:quantum/rgblight.c ****     // Determine which LEDs should be lit up
1072:quantum/rgblight.c ****     for (i = 0; i < RGBLIGHT_EFFECT_KNIGHT_LED_NUM; i++) {
1073:quantum/rgblight.c ****         cur = (i + RGBLIGHT_EFFECT_KNIGHT_OFFSET) % effect_num_leds + effect_start_pos;
1074:quantum/rgblight.c **** 
1075:quantum/rgblight.c ****         if (i >= low_bound && i <= high_bound) {
1076:quantum/rgblight.c ****             sethsv(rgblight_config.hue, rgblight_config.sat, rgblight_config.val, (LED_TYPE *)&led[
1077:quantum/rgblight.c ****         } else {
1078:quantum/rgblight.c ****             led[cur].r = 0;
1079:quantum/rgblight.c ****             led[cur].g = 0;
1080:quantum/rgblight.c ****             led[cur].b = 0;
1081:quantum/rgblight.c **** #    ifdef RGBW
1082:quantum/rgblight.c ****             led[cur].w = 0;
1083:quantum/rgblight.c **** #    endif
1084:quantum/rgblight.c ****         }
1085:quantum/rgblight.c ****     }
1086:quantum/rgblight.c ****     rgblight_set();
1087:quantum/rgblight.c **** 
1088:quantum/rgblight.c ****     // Move from low_bound to high_bound changing the direction we increment each
1089:quantum/rgblight.c ****     // time a boundary is hit.
1090:quantum/rgblight.c ****     low_bound += increment;
1091:quantum/rgblight.c ****     high_bound += increment;
1092:quantum/rgblight.c **** 
1093:quantum/rgblight.c ****     if (high_bound <= 0 || low_bound >= RGBLIGHT_EFFECT_KNIGHT_LED_NUM - 1) {
1094:quantum/rgblight.c ****         increment = -increment;
1095:quantum/rgblight.c **** #    if defined(RGBLIGHT_SPLIT) && !defined(RGBLIGHT_SPLIT_NO_ANIMATION_SYNC)
1096:quantum/rgblight.c ****         if (increment == 1) {
1097:quantum/rgblight.c ****             anim->pos = 0;
1098:quantum/rgblight.c ****         }
1099:quantum/rgblight.c **** #    endif
1100:quantum/rgblight.c ****     }
1101:quantum/rgblight.c **** }
1102:quantum/rgblight.c **** #endif
1103:quantum/rgblight.c **** 
1104:quantum/rgblight.c **** #ifdef RGBLIGHT_EFFECT_CHRISTMAS
1105:quantum/rgblight.c **** void rgblight_effect_christmas(animation_status_t *anim) {
1106:quantum/rgblight.c ****     uint8_t hue;
1107:quantum/rgblight.c ****     uint8_t i;
1108:quantum/rgblight.c **** 
1109:quantum/rgblight.c ****     anim->current_offset = (anim->current_offset + 1) % 2;
1110:quantum/rgblight.c ****     for (i = 0; i < effect_num_leds; i++) {
1111:quantum/rgblight.c ****         hue = 0 + ((i / RGBLIGHT_EFFECT_CHRISTMAS_STEP + anim->current_offset) % 2) * 85;
1112:quantum/rgblight.c ****         sethsv(hue, rgblight_config.sat, rgblight_config.val, (LED_TYPE *)&led[i + effect_start_pos
1113:quantum/rgblight.c ****     }
1114:quantum/rgblight.c ****     rgblight_set();
1115:quantum/rgblight.c **** }
1116:quantum/rgblight.c **** #endif
1117:quantum/rgblight.c **** 
1118:quantum/rgblight.c **** #ifdef RGBLIGHT_EFFECT_RGB_TEST
1119:quantum/rgblight.c **** __attribute__((weak)) const uint16_t RGBLED_RGBTEST_INTERVALS[] PROGMEM = {1024};
1120:quantum/rgblight.c **** 
1121:quantum/rgblight.c **** void rgblight_effect_rgbtest(animation_status_t *anim) {
 1427              		.loc 1 1121 56 is_stmt 1 view -0
 1428              		.cfi_startproc
 1429              		@ args = 0, pretend = 0, frame = 8
 1430              		@ frame_needed = 0, uses_anonymous_args = 0
1122:quantum/rgblight.c ****     static uint8_t maxval = 0;
 1431              		.loc 1 1122 5 view .LVU319
1123:quantum/rgblight.c ****     uint8_t        g;
 1432              		.loc 1 1123 5 view .LVU320
1124:quantum/rgblight.c ****     uint8_t        r;
 1433              		.loc 1 1124 5 view .LVU321
1125:quantum/rgblight.c ****     uint8_t        b;
 1434              		.loc 1 1125 5 view .LVU322
1126:quantum/rgblight.c **** 
1127:quantum/rgblight.c ****     if (maxval == 0) {
 1435              		.loc 1 1127 5 view .LVU323
1121:quantum/rgblight.c ****     static uint8_t maxval = 0;
 1436              		.loc 1 1121 56 is_stmt 0 view .LVU324
 1437 0000 73B5     		push	{r0, r1, r4, r5, r6, lr}
 1438              		.cfi_def_cfa_offset 24
 1439              		.cfi_offset 0, -24
 1440              		.cfi_offset 1, -20
 1441              		.cfi_offset 4, -16
 1442              		.cfi_offset 5, -12
 1443              		.cfi_offset 6, -8
 1444              		.cfi_offset 14, -4
 1445              		.loc 1 1127 16 view .LVU325
 1446 0002 154D     		ldr	r5, .L137
1121:quantum/rgblight.c ****     static uint8_t maxval = 0;
 1447              		.loc 1 1121 56 view .LVU326
 1448 0004 0400     		movs	r4, r0
 1449              		.loc 1 1127 8 view .LVU327
 1450 0006 2878     		ldrb	r0, [r5]
 1451              	.LVL70:
 1452              		.loc 1 1127 8 view .LVU328
 1453 0008 0028     		cmp	r0, #0
 1454 000a 07D1     		bne	.L132
 1455              	.LBB98:
1128:quantum/rgblight.c ****         LED_TYPE tmp_led;
 1456              		.loc 1 1128 9 is_stmt 1 view .LVU329
1129:quantum/rgblight.c ****         sethsv(0, 255, RGBLIGHT_LIMIT_VAL, &tmp_led);
 1457              		.loc 1 1129 9 view .LVU330
 1458              	.LVL71:
 1459              	.LBB99:
 1460              	.LBI99:
 135:quantum/rgblight.c **** 
 1461              		.loc 1 135 6 view .LVU331
 1462              	.LBB100:
 135:quantum/rgblight.c **** 
 1463              		.loc 1 135 70 view .LVU332
 1464 000c FF22     		movs	r2, #255
 1465 000e 01AE     		add	r6, sp, #4
 1466              	.LVL72:
 135:quantum/rgblight.c **** 
 1467              		.loc 1 135 70 is_stmt 0 view .LVU333
 1468 0010 3300     		movs	r3, r6
 1469 0012 1100     		movs	r1, r2
 1470 0014 FFF7FEFF 		bl	sethsv_raw
 1471              	.LVL73:
 135:quantum/rgblight.c **** 
 1472              		.loc 1 135 70 view .LVU334
 1473              	.LBE100:
 1474              	.LBE99:
1130:quantum/rgblight.c ****         maxval = tmp_led.r;
 1475              		.loc 1 1130 9 is_stmt 1 view .LVU335
 1476              		.loc 1 1130 16 is_stmt 0 view .LVU336
 1477 0018 7378     		ldrb	r3, [r6, #1]
 1478 001a 2B70     		strb	r3, [r5]
 1479              	.L132:
 1480              	.LBE98:
1131:quantum/rgblight.c ****     }
1132:quantum/rgblight.c ****     g = r = b = 0;
 1481              		.loc 1 1132 5 is_stmt 1 view .LVU337
 1482              	.LVL74:
1133:quantum/rgblight.c ****     switch (anim->pos) {
 1483              		.loc 1 1133 5 view .LVU338
 1484              		.loc 1 1133 17 is_stmt 0 view .LVU339
 1485 001c 2179     		ldrb	r1, [r4, #4]
 1486              		.loc 1 1133 5 view .LVU340
 1487 001e 0129     		cmp	r1, #1
 1488 0020 12D0     		beq	.L133
 1489 0022 0029     		cmp	r1, #0
 1490 0024 0DD0     		beq	.L134
 1491 0026 0229     		cmp	r1, #2
 1492 0028 12D0     		beq	.L135
1132:quantum/rgblight.c ****     switch (anim->pos) {
 1493              		.loc 1 1132 15 view .LVU341
 1494 002a 0022     		movs	r2, #0
1132:quantum/rgblight.c ****     switch (anim->pos) {
 1495              		.loc 1 1132 11 view .LVU342
 1496 002c 1000     		movs	r0, r2
1132:quantum/rgblight.c ****     switch (anim->pos) {
 1497              		.loc 1 1132 7 view .LVU343
 1498 002e 1100     		movs	r1, r2
 1499              	.LVL75:
 1500              	.L136:
1134:quantum/rgblight.c ****         case 0:
1135:quantum/rgblight.c ****             r = maxval;
1136:quantum/rgblight.c ****             break;
1137:quantum/rgblight.c ****         case 1:
1138:quantum/rgblight.c ****             g = maxval;
1139:quantum/rgblight.c ****             break;
1140:quantum/rgblight.c ****         case 2:
1141:quantum/rgblight.c ****             b = maxval;
1142:quantum/rgblight.c ****             break;
1143:quantum/rgblight.c ****     }
1144:quantum/rgblight.c ****     rgblight_setrgb(r, g, b);
 1501              		.loc 1 1144 5 is_stmt 1 view .LVU344
 1502 0030 FFF7FEFF 		bl	rgblight_setrgb
 1503              	.LVL76:
1145:quantum/rgblight.c ****     anim->pos = (anim->pos + 1) % 3;
 1504              		.loc 1 1145 5 view .LVU345
 1505              		.loc 1 1145 22 is_stmt 0 view .LVU346
 1506 0034 2079     		ldrb	r0, [r4, #4]
 1507              		.loc 1 1145 33 view .LVU347
 1508 0036 0321     		movs	r1, #3
 1509              		.loc 1 1145 28 view .LVU348
 1510 0038 0130     		adds	r0, r0, #1
 1511              		.loc 1 1145 33 view .LVU349
 1512 003a FFF7FEFF 		bl	__aeabi_idivmod
 1513              	.LVL77:
1146:quantum/rgblight.c **** }
 1514              		.loc 1 1146 1 view .LVU350
 1515              		@ sp needed
1145:quantum/rgblight.c ****     anim->pos = (anim->pos + 1) % 3;
 1516              		.loc 1 1145 15 view .LVU351
 1517 003e 2171     		strb	r1, [r4, #4]
 1518              	.LVL78:
 1519              		.loc 1 1146 1 view .LVU352
 1520 0040 73BD     		pop	{r0, r1, r4, r5, r6, pc}
 1521              	.LVL79:
 1522              	.L134:
1135:quantum/rgblight.c ****             break;
 1523              		.loc 1 1135 13 is_stmt 1 view .LVU353
1135:quantum/rgblight.c ****             break;
 1524              		.loc 1 1135 15 is_stmt 0 view .LVU354
 1525 0042 2878     		ldrb	r0, [r5]
 1526              	.LVL80:
1136:quantum/rgblight.c ****         case 1:
 1527              		.loc 1 1136 13 is_stmt 1 view .LVU355
1132:quantum/rgblight.c ****     switch (anim->pos) {
 1528              		.loc 1 1132 15 is_stmt 0 view .LVU356
 1529 0044 0A00     		movs	r2, r1
1136:quantum/rgblight.c ****         case 1:
 1530              		.loc 1 1136 13 view .LVU357
 1531 0046 F3E7     		b	.L136
 1532              	.LVL81:
 1533              	.L133:
1138:quantum/rgblight.c ****             break;
 1534              		.loc 1 1138 13 is_stmt 1 view .LVU358
1132:quantum/rgblight.c ****     switch (anim->pos) {
 1535              		.loc 1 1132 15 is_stmt 0 view .LVU359
 1536 0048 0022     		movs	r2, #0
1138:quantum/rgblight.c ****             break;
 1537              		.loc 1 1138 15 view .LVU360
 1538 004a 2978     		ldrb	r1, [r5]
 1539              	.LVL82:
1139:quantum/rgblight.c ****         case 2:
 1540              		.loc 1 1139 13 is_stmt 1 view .LVU361
1132:quantum/rgblight.c ****     switch (anim->pos) {
 1541              		.loc 1 1132 11 is_stmt 0 view .LVU362
 1542 004c 1000     		movs	r0, r2
1139:quantum/rgblight.c ****         case 2:
 1543              		.loc 1 1139 13 view .LVU363
 1544 004e EFE7     		b	.L136
 1545              	.LVL83:
 1546              	.L135:
1141:quantum/rgblight.c ****             break;
 1547              		.loc 1 1141 13 is_stmt 1 view .LVU364
1132:quantum/rgblight.c ****     switch (anim->pos) {
 1548              		.loc 1 1132 11 is_stmt 0 view .LVU365
 1549 0050 0020     		movs	r0, #0
1141:quantum/rgblight.c ****             break;
 1550              		.loc 1 1141 15 view .LVU366
 1551 0052 2A78     		ldrb	r2, [r5]
 1552              	.LVL84:
1142:quantum/rgblight.c ****     }
 1553              		.loc 1 1142 13 is_stmt 1 view .LVU367
1132:quantum/rgblight.c ****     switch (anim->pos) {
 1554              		.loc 1 1132 7 is_stmt 0 view .LVU368
 1555 0054 0100     		movs	r1, r0
1142:quantum/rgblight.c ****     }
 1556              		.loc 1 1142 13 view .LVU369
 1557 0056 EBE7     		b	.L136
 1558              	.L138:
 1559              		.align	2
 1560              	.L137:
 1561 0058 00000000 		.word	.LANCHOR7
 1562              		.cfi_endproc
 1563              	.LFE346:
 1565              		.global	__aeabi_uidiv
 1566              		.global	__aeabi_idiv
 1567              		.section	.text.rgblight_sethsv_eeprom_helper,"ax",%progbits
 1568              		.align	1
 1569              		.global	rgblight_sethsv_eeprom_helper
 1570              		.syntax unified
 1571              		.code	16
 1572              		.thumb_func
 1573              		.fpu softvfp
 1575              	rgblight_sethsv_eeprom_helper:
 1576              	.LVL85:
 1577              	.LFB312:
 430:quantum/rgblight.c ****     if (rgblight_config.enable) {
 1578              		.loc 1 430 97 is_stmt 1 view -0
 1579              		.cfi_startproc
 1580              		@ args = 0, pretend = 0, frame = 32
 1581              		@ frame_needed = 0, uses_anonymous_args = 0
 431:quantum/rgblight.c ****         rgblight_status.base_mode = mode_base_table[rgblight_config.mode];
 1582              		.loc 1 431 5 view .LVU371
 430:quantum/rgblight.c ****     if (rgblight_config.enable) {
 1583              		.loc 1 430 97 is_stmt 0 view .LVU372
 1584 0000 F0B5     		push	{r4, r5, r6, r7, lr}
 1585              		.cfi_def_cfa_offset 20
 1586              		.cfi_offset 4, -20
 1587              		.cfi_offset 5, -16
 1588              		.cfi_offset 6, -12
 1589              		.cfi_offset 7, -8
 1590              		.cfi_offset 14, -4
 1591 0002 1600     		movs	r6, r2
 431:quantum/rgblight.c ****         rgblight_status.base_mode = mode_base_table[rgblight_config.mode];
 1592              		.loc 1 431 9 view .LVU373
 1593 0004 0122     		movs	r2, #1
 1594              	.LVL86:
 431:quantum/rgblight.c ****         rgblight_status.base_mode = mode_base_table[rgblight_config.mode];
 1595              		.loc 1 431 9 view .LVU374
 1596 0006 424C     		ldr	r4, .L167
 430:quantum/rgblight.c ****     if (rgblight_config.enable) {
 1597              		.loc 1 430 97 view .LVU375
 1598 0008 0500     		movs	r5, r0
 431:quantum/rgblight.c ****         rgblight_status.base_mode = mode_base_table[rgblight_config.mode];
 1599              		.loc 1 431 9 view .LVU376
 1600 000a 2078     		ldrb	r0, [r4]
 1601              	.LVL87:
 430:quantum/rgblight.c ****     if (rgblight_config.enable) {
 1602              		.loc 1 430 97 view .LVU377
 1603 000c 8BB0     		sub	sp, sp, #44
 1604              		.cfi_def_cfa_offset 64
 430:quantum/rgblight.c ****     if (rgblight_config.enable) {
 1605              		.loc 1 430 97 view .LVU378
 1606 000e 0291     		str	r1, [sp, #8]
 1607 0010 0693     		str	r3, [sp, #24]
 431:quantum/rgblight.c ****         rgblight_status.base_mode = mode_base_table[rgblight_config.mode];
 1608              		.loc 1 431 8 view .LVU379
 1609 0012 1042     		tst	r0, r2
 1610 0014 28D0     		beq	.L139
 432:quantum/rgblight.c ****         if (rgblight_config.mode == RGBLIGHT_MODE_STATIC_LIGHT) {
 1611              		.loc 1 432 9 is_stmt 1 view .LVU380
 432:quantum/rgblight.c ****         if (rgblight_config.mode == RGBLIGHT_MODE_STATIC_LIGHT) {
 1612              		.loc 1 432 52 is_stmt 0 view .LVU381
 1613 0016 3F49     		ldr	r1, .L167+4
 1614              	.LVL88:
 432:quantum/rgblight.c ****         if (rgblight_config.mode == RGBLIGHT_MODE_STATIC_LIGHT) {
 1615              		.loc 1 432 68 view .LVU382
 1616 0018 4308     		lsrs	r3, r0, #1
 1617              	.LVL89:
 432:quantum/rgblight.c ****         if (rgblight_config.mode == RGBLIGHT_MODE_STATIC_LIGHT) {
 1618              		.loc 1 432 52 view .LVU383
 1619 001a C95C     		ldrb	r1, [r1, r3]
 432:quantum/rgblight.c ****         if (rgblight_config.mode == RGBLIGHT_MODE_STATIC_LIGHT) {
 1620              		.loc 1 432 35 view .LVU384
 1621 001c 3E4F     		ldr	r7, .L167+8
 433:quantum/rgblight.c ****             // same static color
 1622              		.loc 1 433 12 view .LVU385
 1623 001e 9043     		bics	r0, r2
 432:quantum/rgblight.c ****         if (rgblight_config.mode == RGBLIGHT_MODE_STATIC_LIGHT) {
 1624              		.loc 1 432 35 view .LVU386
 1625 0020 3970     		strb	r1, [r7]
 433:quantum/rgblight.c ****             // same static color
 1626              		.loc 1 433 9 is_stmt 1 view .LVU387
 433:quantum/rgblight.c ****             // same static color
 1627              		.loc 1 433 12 is_stmt 0 view .LVU388
 1628 0022 0228     		cmp	r0, #2
 1629 0024 22D1     		bne	.L142
 1630              	.LBB101:
 435:quantum/rgblight.c ****             sethsv(hue, sat, val, &tmp_led);
 1631              		.loc 1 435 13 is_stmt 1 view .LVU389
 436:quantum/rgblight.c ****             rgblight_setrgb(tmp_led.r, tmp_led.g, tmp_led.b);
 1632              		.loc 1 436 13 view .LVU390
 1633              	.LVL90:
 1634              	.LBB102:
 1635              	.LBI102:
 135:quantum/rgblight.c **** 
 1636              		.loc 1 135 6 view .LVU391
 1637              	.LBB103:
 135:quantum/rgblight.c **** 
 1638              		.loc 1 135 70 view .LVU392
 1639 0026 09AC     		add	r4, sp, #36
 1640              	.LVL91:
 135:quantum/rgblight.c **** 
 1641              		.loc 1 135 70 is_stmt 0 view .LVU393
 1642 0028 3200     		movs	r2, r6
 1643 002a 0299     		ldr	r1, [sp, #8]
 1644 002c 2800     		movs	r0, r5
 1645 002e 2300     		movs	r3, r4
 1646 0030 FFF7FEFF 		bl	sethsv_raw
 1647              	.LVL92:
 135:quantum/rgblight.c **** 
 1648              		.loc 1 135 70 view .LVU394
 1649              	.LBE103:
 1650              	.LBE102:
 437:quantum/rgblight.c ****         } else {
 1651              		.loc 1 437 13 is_stmt 1 view .LVU395
 1652 0034 A278     		ldrb	r2, [r4, #2]
 1653 0036 2178     		ldrb	r1, [r4]
 1654 0038 6078     		ldrb	r0, [r4, #1]
 1655 003a FFF7FEFF 		bl	rgblight_setrgb
 1656              	.LVL93:
 1657              	.L143:
 437:quantum/rgblight.c ****         } else {
 1658              		.loc 1 437 13 is_stmt 0 view .LVU396
 1659              	.LBE101:
 490:quantum/rgblight.c ****         rgblight_config.sat = sat;
 1660              		.loc 1 490 9 is_stmt 1 view .LVU397
 490:quantum/rgblight.c ****         rgblight_config.sat = sat;
 1661              		.loc 1 490 29 is_stmt 0 view .LVU398
 1662 003e 344C     		ldr	r4, .L167
 491:quantum/rgblight.c ****         rgblight_config.val = val;
 1663              		.loc 1 491 29 view .LVU399
 1664 0040 029B     		ldr	r3, [sp, #8]
 490:quantum/rgblight.c ****         rgblight_config.sat = sat;
 1665              		.loc 1 490 29 view .LVU400
 1666 0042 6570     		strb	r5, [r4, #1]
 491:quantum/rgblight.c ****         rgblight_config.val = val;
 1667              		.loc 1 491 9 is_stmt 1 view .LVU401
 491:quantum/rgblight.c ****         rgblight_config.val = val;
 1668              		.loc 1 491 29 is_stmt 0 view .LVU402
 1669 0044 A370     		strb	r3, [r4, #2]
 492:quantum/rgblight.c ****         if (write_to_eeprom) {
 1670              		.loc 1 492 9 is_stmt 1 view .LVU403
 493:quantum/rgblight.c ****             eeconfig_update_rgblight(rgblight_config.raw);
 1671              		.loc 1 493 12 is_stmt 0 view .LVU404
 1672 0046 069B     		ldr	r3, [sp, #24]
 492:quantum/rgblight.c ****         if (write_to_eeprom) {
 1673              		.loc 1 492 29 view .LVU405
 1674 0048 E670     		strb	r6, [r4, #3]
 493:quantum/rgblight.c ****             eeconfig_update_rgblight(rgblight_config.raw);
 1675              		.loc 1 493 9 is_stmt 1 view .LVU406
 1676 004a 344F     		ldr	r7, .L167+12
 493:quantum/rgblight.c ****             eeconfig_update_rgblight(rgblight_config.raw);
 1677              		.loc 1 493 12 is_stmt 0 view .LVU407
 1678 004c 002B     		cmp	r3, #0
 1679 004e 57D0     		beq	.L152
 494:quantum/rgblight.c ****             dprintf("rgblight set hsv [EEPROM]: %u,%u,%u\n", rgblight_config.hue, rgblight_config.s
 1680              		.loc 1 494 13 is_stmt 1 view .LVU408
 1681 0050 2068     		ldr	r0, [r4]
 1682 0052 FFF7FEFF 		bl	eeconfig_update_rgblight
 1683              	.LVL94:
 495:quantum/rgblight.c ****         } else {
 1684              		.loc 1 495 13 view .LVU409
 495:quantum/rgblight.c ****         } else {
 1685              		.loc 1 495 13 view .LVU410
 1686 0056 3B78     		ldrb	r3, [r7]
 1687 0058 DB07     		lsls	r3, r3, #31
 1688 005a 05D5     		bpl	.L139
 495:quantum/rgblight.c ****         } else {
 1689              		.loc 1 495 13 discriminator 1 view .LVU411
 1690 005c E378     		ldrb	r3, [r4, #3]
 1691 005e A278     		ldrb	r2, [r4, #2]
 1692 0060 6178     		ldrb	r1, [r4, #1]
 1693 0062 2F48     		ldr	r0, .L167+16
 1694              	.L166:
 497:quantum/rgblight.c ****         }
 1695              		.loc 1 497 13 is_stmt 0 discriminator 1 view .LVU412
 1696 0064 FFF7FEFF 		bl	tfp_printf
 1697              	.LVL95:
 1698              	.L139:
 500:quantum/rgblight.c **** 
 1699              		.loc 1 500 1 view .LVU413
 1700 0068 0BB0     		add	sp, sp, #44
 1701              		@ sp needed
 1702 006a F0BD     		pop	{r4, r5, r6, r7, pc}
 1703              	.LVL96:
 1704              	.L142:
 440:quantum/rgblight.c ****             }
 1705              		.loc 1 440 13 is_stmt 1 view .LVU414
 443:quantum/rgblight.c ****                 // breathing mode, ignore the change of val, use in memory value instead
 1706              		.loc 1 443 18 view .LVU415
 443:quantum/rgblight.c ****                 // breathing mode, ignore the change of val, use in memory value instead
 1707              		.loc 1 443 21 is_stmt 0 view .LVU416
 1708 006c 0229     		cmp	r1, #2
 1709 006e 01D1     		bne	.L144
 445:quantum/rgblight.c ****             }
 1710              		.loc 1 445 17 is_stmt 1 view .LVU417
 445:quantum/rgblight.c ****             }
 1711              		.loc 1 445 21 is_stmt 0 view .LVU418
 1712 0070 E678     		ldrb	r6, [r4, #3]
 1713              	.LVL97:
 445:quantum/rgblight.c ****             }
 1714              		.loc 1 445 21 view .LVU419
 1715 0072 E4E7     		b	.L143
 1716              	.LVL98:
 1717              	.L144:
 449:quantum/rgblight.c ****                 // rainbow mood, ignore the change of hue
 1718              		.loc 1 449 18 is_stmt 1 view .LVU420
 449:quantum/rgblight.c ****                 // rainbow mood, ignore the change of hue
 1719              		.loc 1 449 21 is_stmt 0 view .LVU421
 1720 0074 0629     		cmp	r1, #6
 1721 0076 02D1     		bne	.L145
 1722              	.L146:
 451:quantum/rgblight.c ****             }
 1723              		.loc 1 451 17 is_stmt 1 view .LVU422
 451:quantum/rgblight.c ****             }
 1724              		.loc 1 451 21 is_stmt 0 view .LVU423
 1725 0078 254B     		ldr	r3, .L167
 1726 007a 5D78     		ldrb	r5, [r3, #1]
 1727              	.LVL99:
 451:quantum/rgblight.c ****             }
 1728              		.loc 1 451 21 view .LVU424
 1729 007c DFE7     		b	.L143
 1730              	.LVL100:
 1731              	.L145:
 455:quantum/rgblight.c ****                 // rainbow swirl, ignore the change of hue
 1732              		.loc 1 455 18 is_stmt 1 view .LVU425
 455:quantum/rgblight.c ****                 // rainbow swirl, ignore the change of hue
 1733              		.loc 1 455 21 is_stmt 0 view .LVU426
 1734 007e 0929     		cmp	r1, #9
 1735 0080 FAD0     		beq	.L146
 461:quantum/rgblight.c ****                 // static gradient
 1736              		.loc 1 461 18 is_stmt 1 view .LVU427
 461:quantum/rgblight.c ****                 // static gradient
 1737              		.loc 1 461 21 is_stmt 0 view .LVU428
 1738 0082 1929     		cmp	r1, #25
 1739 0084 DBD1     		bne	.L143
 1740              	.LBB104:
 463:quantum/rgblight.c ****                 bool    direction = (delta % 2) == 0;
 1741              		.loc 1 463 17 is_stmt 1 view .LVU429
 463:quantum/rgblight.c ****                 bool    direction = (delta % 2) == 0;
 1742              		.loc 1 463 25 is_stmt 0 view .LVU430
 1743 0086 193B     		subs	r3, r3, #25
 1744 0088 DBB2     		uxtb	r3, r3
 1745              	.LVL101:
 464:quantum/rgblight.c **** #    ifdef __AVR__
 1746              		.loc 1 464 17 is_stmt 1 view .LVU431
 464:quantum/rgblight.c **** #    ifdef __AVR__
 1747              		.loc 1 464 49 is_stmt 0 view .LVU432
 1748 008a 1900     		movs	r1, r3
 1749 008c 1140     		ands	r1, r2
 1750 008e 0491     		str	r1, [sp, #16]
 1751 0090 1100     		movs	r1, r2
 1752              	.LBB105:
 471:quantum/rgblight.c ****                     uint8_t _hue = ((uint16_t)i * (uint16_t)range) / effect_num_leds;
 1753              		.loc 1 471 30 view .LVU433
 1754 0092 0024     		movs	r4, #0
 1755 0094 9943     		bics	r1, r3
 1756 0096 0591     		str	r1, [sp, #20]
 1757              	.LVL102:
 471:quantum/rgblight.c ****                     uint8_t _hue = ((uint16_t)i * (uint16_t)range) / effect_num_leds;
 1758              		.loc 1 471 30 view .LVU434
 1759              	.LBE105:
 469:quantum/rgblight.c **** #    endif
 1760              		.loc 1 469 17 is_stmt 1 view .LVU435
 469:quantum/rgblight.c **** #    endif
 1761              		.loc 1 469 25 is_stmt 0 view .LVU436
 1762 0098 2249     		ldr	r1, .L167+20
 469:quantum/rgblight.c **** #    endif
 1763              		.loc 1 469 62 view .LVU437
 1764 009a 5B08     		lsrs	r3, r3, #1
 1765              	.LVL103:
 469:quantum/rgblight.c **** #    endif
 1766              		.loc 1 469 25 view .LVU438
 1767 009c CB5C     		ldrb	r3, [r1, r3]
 1768              	.LBB117:
 1769              	.LBB106:
 478:quantum/rgblight.c ****                     sethsv(_hue, sat, val, (LED_TYPE *)&led[i + effect_start_pos]);
 1770              		.loc 1 478 21 view .LVU439
 1771 009e 0792     		str	r2, [sp, #28]
 1772              	.LBE106:
 1773              	.LBE117:
 469:quantum/rgblight.c **** #    endif
 1774              		.loc 1 469 25 view .LVU440
 1775 00a0 0393     		str	r3, [sp, #12]
 1776              	.LVL104:
 471:quantum/rgblight.c ****                     uint8_t _hue = ((uint16_t)i * (uint16_t)range) / effect_num_leds;
 1777              		.loc 1 471 17 is_stmt 1 view .LVU441
 1778              	.LBB118:
 471:quantum/rgblight.c ****                     uint8_t _hue = ((uint16_t)i * (uint16_t)range) / effect_num_leds;
 1779              		.loc 1 471 22 view .LVU442
 1780              	.L147:
 471:quantum/rgblight.c ****                     uint8_t _hue = ((uint16_t)i * (uint16_t)range) / effect_num_leds;
 1781              		.loc 1 471 39 is_stmt 0 discriminator 1 view .LVU443
 1782 00a2 214B     		ldr	r3, .L167+24
 1783 00a4 1978     		ldrb	r1, [r3]
 471:quantum/rgblight.c ****                     uint8_t _hue = ((uint16_t)i * (uint16_t)range) / effect_num_leds;
 1784              		.loc 1 471 17 discriminator 1 view .LVU444
 1785 00a6 A142     		cmp	r1, r4
 1786 00a8 02D8     		bhi	.L151
 1787              	.LBE118:
 481:quantum/rgblight.c ****             }
 1788              		.loc 1 481 17 is_stmt 1 view .LVU445
 1789 00aa FFF7FEFF 		bl	rgblight_set
 1790              	.LVL105:
 1791 00ae C6E7     		b	.L143
 1792              	.L151:
 1793              	.LBB119:
 1794              	.LBB115:
 472:quantum/rgblight.c ****                     if (direction) {
 1795              		.loc 1 472 21 view .LVU446
 472:quantum/rgblight.c ****                     if (direction) {
 1796              		.loc 1 472 68 is_stmt 0 view .LVU447
 1797 00b0 0398     		ldr	r0, [sp, #12]
 1798 00b2 6043     		muls	r0, r4
 1799 00b4 FFF7FEFF 		bl	__aeabi_idiv
 1800              	.LVL106:
 473:quantum/rgblight.c ****                         _hue = hue + _hue;
 1801              		.loc 1 473 24 view .LVU448
 1802 00b8 049B     		ldr	r3, [sp, #16]
 472:quantum/rgblight.c ****                     if (direction) {
 1803              		.loc 1 472 29 view .LVU449
 1804 00ba C0B2     		uxtb	r0, r0
 1805              	.LVL107:
 473:quantum/rgblight.c ****                         _hue = hue + _hue;
 1806              		.loc 1 473 21 is_stmt 1 view .LVU450
 476:quantum/rgblight.c ****                     }
 1807              		.loc 1 476 30 is_stmt 0 view .LVU451
 1808 00bc 2F1A     		subs	r7, r5, r0
 1809 00be FFB2     		uxtb	r7, r7
 473:quantum/rgblight.c ****                         _hue = hue + _hue;
 1810              		.loc 1 473 24 view .LVU452
 1811 00c0 002B     		cmp	r3, #0
 1812 00c2 01D1     		bne	.L149
 474:quantum/rgblight.c ****                     } else {
 1813              		.loc 1 474 25 is_stmt 1 view .LVU453
 474:quantum/rgblight.c ****                     } else {
 1814              		.loc 1 474 30 is_stmt 0 view .LVU454
 1815 00c4 2818     		adds	r0, r5, r0
 1816              	.LVL108:
 474:quantum/rgblight.c ****                     } else {
 1817              		.loc 1 474 30 view .LVU455
 1818 00c6 C7B2     		uxtb	r7, r0
 1819              	.LVL109:
 1820              	.L149:
 478:quantum/rgblight.c ****                     sethsv(_hue, sat, val, (LED_TYPE *)&led[i + effect_start_pos]);
 1821              		.loc 1 478 21 is_stmt 1 view .LVU456
 478:quantum/rgblight.c ****                     sethsv(_hue, sat, val, (LED_TYPE *)&led[i + effect_start_pos]);
 1822              		.loc 1 478 21 view .LVU457
 1823 00c8 144B     		ldr	r3, .L167+12
 1824 00ca 079A     		ldr	r2, [sp, #28]
 1825 00cc 1B78     		ldrb	r3, [r3]
 1826 00ce 1342     		tst	r3, r2
 1827 00d0 07D0     		beq	.L150
 478:quantum/rgblight.c ****                     sethsv(_hue, sat, val, (LED_TYPE *)&led[i + effect_start_pos]);
 1828              		.loc 1 478 21 discriminator 1 view .LVU458
 1829 00d2 039B     		ldr	r3, [sp, #12]
 1830 00d4 3A00     		movs	r2, r7
 1831 00d6 0093     		str	r3, [sp]
 1832 00d8 2100     		movs	r1, r4
 1833 00da 059B     		ldr	r3, [sp, #20]
 1834 00dc 1348     		ldr	r0, .L167+28
 1835 00de FFF7FEFF 		bl	tfp_printf
 1836              	.LVL110:
 1837              	.L150:
 479:quantum/rgblight.c ****                 }
 1838              		.loc 1 479 21 discriminator 2 view .LVU459
 1839              	.LBB107:
 1840              	.LBI107:
 135:quantum/rgblight.c **** 
 1841              		.loc 1 135 6 discriminator 2 view .LVU460
 1842              	.LBB108:
 135:quantum/rgblight.c **** 
 1843              		.loc 1 135 70 discriminator 2 view .LVU461
 1844              	.LBE108:
 1845              	.LBE107:
 479:quantum/rgblight.c ****                 }
 1846              		.loc 1 479 21 is_stmt 0 discriminator 2 view .LVU462
 1847 00e2 0322     		movs	r2, #3
 479:quantum/rgblight.c ****                 }
 1848              		.loc 1 479 63 discriminator 2 view .LVU463
 1849 00e4 124B     		ldr	r3, .L167+32
 1850              	.LBB112:
 1851              	.LBB109:
 135:quantum/rgblight.c **** 
 1852              		.loc 1 135 70 discriminator 2 view .LVU464
 1853 00e6 0299     		ldr	r1, [sp, #8]
 1854              	.LBE109:
 1855              	.LBE112:
 479:quantum/rgblight.c ****                 }
 1856              		.loc 1 479 63 discriminator 2 view .LVU465
 1857 00e8 1B78     		ldrb	r3, [r3]
 1858              	.LBB113:
 1859              	.LBB110:
 135:quantum/rgblight.c **** 
 1860              		.loc 1 135 70 discriminator 2 view .LVU466
 1861 00ea 3800     		movs	r0, r7
 1862              	.LBE110:
 1863              	.LBE113:
 479:quantum/rgblight.c ****                 }
 1864              		.loc 1 479 63 discriminator 2 view .LVU467
 1865 00ec 1B19     		adds	r3, r3, r4
 479:quantum/rgblight.c ****                 }
 1866              		.loc 1 479 21 discriminator 2 view .LVU468
 1867 00ee 5343     		muls	r3, r2
 1868 00f0 104A     		ldr	r2, .L167+36
 1869              	.LBE115:
 471:quantum/rgblight.c ****                     uint8_t _hue = ((uint16_t)i * (uint16_t)range) / effect_num_leds;
 1870              		.loc 1 471 59 discriminator 2 view .LVU469
 1871 00f2 0134     		adds	r4, r4, #1
 1872              	.LVL111:
 1873              	.LBB116:
 479:quantum/rgblight.c ****                 }
 1874              		.loc 1 479 21 discriminator 2 view .LVU470
 1875 00f4 D318     		adds	r3, r2, r3
 1876              	.LBB114:
 1877              	.LBB111:
 135:quantum/rgblight.c **** 
 1878              		.loc 1 135 70 discriminator 2 view .LVU471
 1879 00f6 3200     		movs	r2, r6
 1880 00f8 FFF7FEFF 		bl	sethsv_raw
 1881              	.LVL112:
 135:quantum/rgblight.c **** 
 1882              		.loc 1 135 70 discriminator 2 view .LVU472
 1883              	.LBE111:
 1884              	.LBE114:
 1885              	.LBE116:
 471:quantum/rgblight.c ****                     uint8_t _hue = ((uint16_t)i * (uint16_t)range) / effect_num_leds;
 1886              		.loc 1 471 59 discriminator 2 view .LVU473
 1887 00fc E4B2     		uxtb	r4, r4
 1888              	.LVL113:
 471:quantum/rgblight.c ****                     uint8_t _hue = ((uint16_t)i * (uint16_t)range) / effect_num_leds;
 1889              		.loc 1 471 59 discriminator 2 view .LVU474
 1890 00fe D0E7     		b	.L147
 1891              	.LVL114:
 1892              	.L152:
 471:quantum/rgblight.c ****                     uint8_t _hue = ((uint16_t)i * (uint16_t)range) / effect_num_leds;
 1893              		.loc 1 471 59 discriminator 2 view .LVU475
 1894              	.LBE119:
 1895              	.LBE104:
 497:quantum/rgblight.c ****         }
 1896              		.loc 1 497 13 is_stmt 1 view .LVU476
 497:quantum/rgblight.c ****         }
 1897              		.loc 1 497 13 view .LVU477
 1898 0100 3B78     		ldrb	r3, [r7]
 1899 0102 DB07     		lsls	r3, r3, #31
 1900 0104 B0D5     		bpl	.L139
 497:quantum/rgblight.c ****         }
 1901              		.loc 1 497 13 discriminator 1 view .LVU478
 1902 0106 3300     		movs	r3, r6
 1903 0108 029A     		ldr	r2, [sp, #8]
 1904 010a 2900     		movs	r1, r5
 1905 010c 0A48     		ldr	r0, .L167+40
 1906 010e A9E7     		b	.L166
 1907              	.L168:
 1908              		.align	2
 1909              	.L167:
 1910 0110 00000000 		.word	.LANCHOR5
 1911 0114 00000000 		.word	.LANCHOR8
 1912 0118 00000000 		.word	.LANCHOR9
 1913 011c 00000000 		.word	debug_config
 1914 0120 27000000 		.word	.LC63
 1915 0124 00000000 		.word	RGBLED_GRADIENT_RANGES
 1916 0128 00000000 		.word	.LANCHOR4
 1917 012c 00000000 		.word	.LC58
 1918 0130 00000000 		.word	.LANCHOR2
 1919 0134 00000000 		.word	.LANCHOR6
 1920 0138 4C000000 		.word	.LC65
 1921              		.cfi_endproc
 1922              	.LFE312:
 1924              		.section	.text.rgblight_increase_hue_helper,"ax",%progbits
 1925              		.align	1
 1926              		.global	rgblight_increase_hue_helper
 1927              		.syntax unified
 1928              		.code	16
 1929              		.thumb_func
 1930              		.fpu softvfp
 1932              	rgblight_increase_hue_helper:
 1933              	.LVL115:
 1934              	.LFB291:
 374:quantum/rgblight.c ****     uint8_t hue = rgblight_config.hue + RGBLIGHT_HUE_STEP;
 1935              		.loc 1 374 57 view -0
 1936              		.cfi_startproc
 1937              		@ args = 0, pretend = 0, frame = 0
 1938              		@ frame_needed = 0, uses_anonymous_args = 0
 375:quantum/rgblight.c ****     rgblight_sethsv_eeprom_helper(hue, rgblight_config.sat, rgblight_config.val, write_to_eeprom);
 1939              		.loc 1 375 5 view .LVU480
 376:quantum/rgblight.c **** }
 1940              		.loc 1 376 5 view .LVU481
 374:quantum/rgblight.c ****     uint8_t hue = rgblight_config.hue + RGBLIGHT_HUE_STEP;
 1941              		.loc 1 374 57 is_stmt 0 view .LVU482
 1942 0000 10B5     		push	{r4, lr}
 1943              		.cfi_def_cfa_offset 8
 1944              		.cfi_offset 4, -8
 1945              		.cfi_offset 14, -4
 376:quantum/rgblight.c **** }
 1946              		.loc 1 376 5 view .LVU483
 1947 0002 054C     		ldr	r4, .L170
 374:quantum/rgblight.c ****     uint8_t hue = rgblight_config.hue + RGBLIGHT_HUE_STEP;
 1948              		.loc 1 374 57 view .LVU484
 1949 0004 0300     		movs	r3, r0
 376:quantum/rgblight.c **** }
 1950              		.loc 1 376 5 view .LVU485
 1951 0006 E278     		ldrb	r2, [r4, #3]
 1952 0008 A178     		ldrb	r1, [r4, #2]
 375:quantum/rgblight.c ****     rgblight_sethsv_eeprom_helper(hue, rgblight_config.sat, rgblight_config.val, write_to_eeprom);
 1953              		.loc 1 375 13 view .LVU486
 1954 000a 6478     		ldrb	r4, [r4, #1]
 377:quantum/rgblight.c **** void rgblight_increase_hue_noeeprom(void) { rgblight_increase_hue_helper(false); }
 1955              		.loc 1 377 1 view .LVU487
 1956              		@ sp needed
 375:quantum/rgblight.c ****     rgblight_sethsv_eeprom_helper(hue, rgblight_config.sat, rgblight_config.val, write_to_eeprom);
 1957              		.loc 1 375 13 view .LVU488
 1958 000c 0834     		adds	r4, r4, #8
 376:quantum/rgblight.c **** }
 1959              		.loc 1 376 5 view .LVU489
 1960 000e E0B2     		uxtb	r0, r4
 1961              	.LVL116:
 376:quantum/rgblight.c **** }
 1962              		.loc 1 376 5 view .LVU490
 1963 0010 FFF7FEFF 		bl	rgblight_sethsv_eeprom_helper
 1964              	.LVL117:
 377:quantum/rgblight.c **** void rgblight_increase_hue_noeeprom(void) { rgblight_increase_hue_helper(false); }
 1965              		.loc 1 377 1 view .LVU491
 1966 0014 10BD     		pop	{r4, pc}
 1967              	.L171:
 1968 0016 C046     		.align	2
 1969              	.L170:
 1970 0018 00000000 		.word	.LANCHOR5
 1971              		.cfi_endproc
 1972              	.LFE291:
 1974              		.section	.text.rgblight_increase_hue_noeeprom,"ax",%progbits
 1975              		.align	1
 1976              		.global	rgblight_increase_hue_noeeprom
 1977              		.syntax unified
 1978              		.code	16
 1979              		.thumb_func
 1980              		.fpu softvfp
 1982              	rgblight_increase_hue_noeeprom:
 1983              	.LFB292:
 378:quantum/rgblight.c **** void rgblight_increase_hue(void) { rgblight_increase_hue_helper(true); }
 1984              		.loc 1 378 43 is_stmt 1 view -0
 1985              		.cfi_startproc
 1986              		@ args = 0, pretend = 0, frame = 0
 1987              		@ frame_needed = 0, uses_anonymous_args = 0
 378:quantum/rgblight.c **** void rgblight_increase_hue(void) { rgblight_increase_hue_helper(true); }
 1988              		.loc 1 378 45 view .LVU493
 378:quantum/rgblight.c **** void rgblight_increase_hue(void) { rgblight_increase_hue_helper(true); }
 1989              		.loc 1 378 43 is_stmt 0 view .LVU494
 1990 0000 10B5     		push	{r4, lr}
 1991              		.cfi_def_cfa_offset 8
 1992              		.cfi_offset 4, -8
 1993              		.cfi_offset 14, -4
 378:quantum/rgblight.c **** void rgblight_increase_hue(void) { rgblight_increase_hue_helper(true); }
 1994              		.loc 1 378 45 view .LVU495
 1995 0002 0020     		movs	r0, #0
 1996 0004 FFF7FEFF 		bl	rgblight_increase_hue_helper
 1997              	.LVL118:
 378:quantum/rgblight.c **** void rgblight_increase_hue(void) { rgblight_increase_hue_helper(true); }
 1998              		.loc 1 378 1 view .LVU496
 1999              		@ sp needed
 2000 0008 10BD     		pop	{r4, pc}
 2001              		.cfi_endproc
 2002              	.LFE292:
 2004              		.section	.text.rgblight_increase_hue,"ax",%progbits
 2005              		.align	1
 2006              		.global	rgblight_increase_hue
 2007              		.syntax unified
 2008              		.code	16
 2009              		.thumb_func
 2010              		.fpu softvfp
 2012              	rgblight_increase_hue:
 2013              	.LFB293:
 379:quantum/rgblight.c **** void rgblight_decrease_hue_helper(bool write_to_eeprom) {
 2014              		.loc 1 379 34 is_stmt 1 view -0
 2015              		.cfi_startproc
 2016              		@ args = 0, pretend = 0, frame = 0
 2017              		@ frame_needed = 0, uses_anonymous_args = 0
 379:quantum/rgblight.c **** void rgblight_decrease_hue_helper(bool write_to_eeprom) {
 2018              		.loc 1 379 36 view .LVU498
 379:quantum/rgblight.c **** void rgblight_decrease_hue_helper(bool write_to_eeprom) {
 2019              		.loc 1 379 34 is_stmt 0 view .LVU499
 2020 0000 10B5     		push	{r4, lr}
 2021              		.cfi_def_cfa_offset 8
 2022              		.cfi_offset 4, -8
 2023              		.cfi_offset 14, -4
 379:quantum/rgblight.c **** void rgblight_decrease_hue_helper(bool write_to_eeprom) {
 2024              		.loc 1 379 36 view .LVU500
 2025 0002 0120     		movs	r0, #1
 2026 0004 FFF7FEFF 		bl	rgblight_increase_hue_helper
 2027              	.LVL119:
 379:quantum/rgblight.c **** void rgblight_decrease_hue_helper(bool write_to_eeprom) {
 2028              		.loc 1 379 1 view .LVU501
 2029              		@ sp needed
 2030 0008 10BD     		pop	{r4, pc}
 2031              		.cfi_endproc
 2032              	.LFE293:
 2034              		.section	.text.rgblight_decrease_hue_helper,"ax",%progbits
 2035              		.align	1
 2036              		.global	rgblight_decrease_hue_helper
 2037              		.syntax unified
 2038              		.code	16
 2039              		.thumb_func
 2040              		.fpu softvfp
 2042              	rgblight_decrease_hue_helper:
 2043              	.LVL120:
 2044              	.LFB294:
 380:quantum/rgblight.c ****     uint8_t hue = rgblight_config.hue - RGBLIGHT_HUE_STEP;
 2045              		.loc 1 380 57 is_stmt 1 view -0
 2046              		.cfi_startproc
 2047              		@ args = 0, pretend = 0, frame = 0
 2048              		@ frame_needed = 0, uses_anonymous_args = 0
 381:quantum/rgblight.c ****     rgblight_sethsv_eeprom_helper(hue, rgblight_config.sat, rgblight_config.val, write_to_eeprom);
 2049              		.loc 1 381 5 view .LVU503
 382:quantum/rgblight.c **** }
 2050              		.loc 1 382 5 view .LVU504
 380:quantum/rgblight.c ****     uint8_t hue = rgblight_config.hue - RGBLIGHT_HUE_STEP;
 2051              		.loc 1 380 57 is_stmt 0 view .LVU505
 2052 0000 10B5     		push	{r4, lr}
 2053              		.cfi_def_cfa_offset 8
 2054              		.cfi_offset 4, -8
 2055              		.cfi_offset 14, -4
 382:quantum/rgblight.c **** }
 2056              		.loc 1 382 5 view .LVU506
 2057 0002 054C     		ldr	r4, .L175
 380:quantum/rgblight.c ****     uint8_t hue = rgblight_config.hue - RGBLIGHT_HUE_STEP;
 2058              		.loc 1 380 57 view .LVU507
 2059 0004 0300     		movs	r3, r0
 382:quantum/rgblight.c **** }
 2060              		.loc 1 382 5 view .LVU508
 2061 0006 E278     		ldrb	r2, [r4, #3]
 2062 0008 A178     		ldrb	r1, [r4, #2]
 381:quantum/rgblight.c ****     rgblight_sethsv_eeprom_helper(hue, rgblight_config.sat, rgblight_config.val, write_to_eeprom);
 2063              		.loc 1 381 13 view .LVU509
 2064 000a 6478     		ldrb	r4, [r4, #1]
 383:quantum/rgblight.c **** void rgblight_decrease_hue_noeeprom(void) { rgblight_decrease_hue_helper(false); }
 2065              		.loc 1 383 1 view .LVU510
 2066              		@ sp needed
 381:quantum/rgblight.c ****     rgblight_sethsv_eeprom_helper(hue, rgblight_config.sat, rgblight_config.val, write_to_eeprom);
 2067              		.loc 1 381 13 view .LVU511
 2068 000c 083C     		subs	r4, r4, #8
 382:quantum/rgblight.c **** }
 2069              		.loc 1 382 5 view .LVU512
 2070 000e E0B2     		uxtb	r0, r4
 2071              	.LVL121:
 382:quantum/rgblight.c **** }
 2072              		.loc 1 382 5 view .LVU513
 2073 0010 FFF7FEFF 		bl	rgblight_sethsv_eeprom_helper
 2074              	.LVL122:
 383:quantum/rgblight.c **** void rgblight_decrease_hue_noeeprom(void) { rgblight_decrease_hue_helper(false); }
 2075              		.loc 1 383 1 view .LVU514
 2076 0014 10BD     		pop	{r4, pc}
 2077              	.L176:
 2078 0016 C046     		.align	2
 2079              	.L175:
 2080 0018 00000000 		.word	.LANCHOR5
 2081              		.cfi_endproc
 2082              	.LFE294:
 2084              		.section	.text.rgblight_decrease_hue_noeeprom,"ax",%progbits
 2085              		.align	1
 2086              		.global	rgblight_decrease_hue_noeeprom
 2087              		.syntax unified
 2088              		.code	16
 2089              		.thumb_func
 2090              		.fpu softvfp
 2092              	rgblight_decrease_hue_noeeprom:
 2093              	.LFB295:
 384:quantum/rgblight.c **** void rgblight_decrease_hue(void) { rgblight_decrease_hue_helper(true); }
 2094              		.loc 1 384 43 is_stmt 1 view -0
 2095              		.cfi_startproc
 2096              		@ args = 0, pretend = 0, frame = 0
 2097              		@ frame_needed = 0, uses_anonymous_args = 0
 384:quantum/rgblight.c **** void rgblight_decrease_hue(void) { rgblight_decrease_hue_helper(true); }
 2098              		.loc 1 384 45 view .LVU516
 384:quantum/rgblight.c **** void rgblight_decrease_hue(void) { rgblight_decrease_hue_helper(true); }
 2099              		.loc 1 384 43 is_stmt 0 view .LVU517
 2100 0000 10B5     		push	{r4, lr}
 2101              		.cfi_def_cfa_offset 8
 2102              		.cfi_offset 4, -8
 2103              		.cfi_offset 14, -4
 384:quantum/rgblight.c **** void rgblight_decrease_hue(void) { rgblight_decrease_hue_helper(true); }
 2104              		.loc 1 384 45 view .LVU518
 2105 0002 0020     		movs	r0, #0
 2106 0004 FFF7FEFF 		bl	rgblight_decrease_hue_helper
 2107              	.LVL123:
 384:quantum/rgblight.c **** void rgblight_decrease_hue(void) { rgblight_decrease_hue_helper(true); }
 2108              		.loc 1 384 1 view .LVU519
 2109              		@ sp needed
 2110 0008 10BD     		pop	{r4, pc}
 2111              		.cfi_endproc
 2112              	.LFE295:
 2114              		.section	.text.rgblight_decrease_hue,"ax",%progbits
 2115              		.align	1
 2116              		.global	rgblight_decrease_hue
 2117              		.syntax unified
 2118              		.code	16
 2119              		.thumb_func
 2120              		.fpu softvfp
 2122              	rgblight_decrease_hue:
 2123              	.LFB296:
 385:quantum/rgblight.c **** void rgblight_increase_sat_helper(bool write_to_eeprom) {
 2124              		.loc 1 385 34 is_stmt 1 view -0
 2125              		.cfi_startproc
 2126              		@ args = 0, pretend = 0, frame = 0
 2127              		@ frame_needed = 0, uses_anonymous_args = 0
 385:quantum/rgblight.c **** void rgblight_increase_sat_helper(bool write_to_eeprom) {
 2128              		.loc 1 385 36 view .LVU521
 385:quantum/rgblight.c **** void rgblight_increase_sat_helper(bool write_to_eeprom) {
 2129              		.loc 1 385 34 is_stmt 0 view .LVU522
 2130 0000 10B5     		push	{r4, lr}
 2131              		.cfi_def_cfa_offset 8
 2132              		.cfi_offset 4, -8
 2133              		.cfi_offset 14, -4
 385:quantum/rgblight.c **** void rgblight_increase_sat_helper(bool write_to_eeprom) {
 2134              		.loc 1 385 36 view .LVU523
 2135 0002 0120     		movs	r0, #1
 2136 0004 FFF7FEFF 		bl	rgblight_decrease_hue_helper
 2137              	.LVL124:
 385:quantum/rgblight.c **** void rgblight_increase_sat_helper(bool write_to_eeprom) {
 2138              		.loc 1 385 1 view .LVU524
 2139              		@ sp needed
 2140 0008 10BD     		pop	{r4, pc}
 2141              		.cfi_endproc
 2142              	.LFE296:
 2144              		.section	.text.rgblight_increase_sat_helper,"ax",%progbits
 2145              		.align	1
 2146              		.global	rgblight_increase_sat_helper
 2147              		.syntax unified
 2148              		.code	16
 2149              		.thumb_func
 2150              		.fpu softvfp
 2152              	rgblight_increase_sat_helper:
 2153              	.LVL125:
 2154              	.LFB297:
 386:quantum/rgblight.c ****     uint8_t sat = qadd8(rgblight_config.sat, RGBLIGHT_SAT_STEP);
 2155              		.loc 1 386 57 is_stmt 1 view -0
 2156              		.cfi_startproc
 2157              		@ args = 0, pretend = 0, frame = 0
 2158              		@ frame_needed = 0, uses_anonymous_args = 0
 387:quantum/rgblight.c ****     rgblight_sethsv_eeprom_helper(rgblight_config.hue, sat, rgblight_config.val, write_to_eeprom);
 2159              		.loc 1 387 5 view .LVU526
 2160              	.LBB120:
 2161              	.LBI120:
 2162              		.file 2 "./lib/lib8tion/math8.h"
   1:./lib/lib8tion/math8.h **** #ifndef __INC_LIB8TION_MATH_H
   2:./lib/lib8tion/math8.h **** #define __INC_LIB8TION_MATH_H
   3:./lib/lib8tion/math8.h **** 
   4:./lib/lib8tion/math8.h **** #include "scale8.h"
   5:./lib/lib8tion/math8.h **** 
   6:./lib/lib8tion/math8.h **** ///@ingroup lib8tion
   7:./lib/lib8tion/math8.h **** 
   8:./lib/lib8tion/math8.h **** ///@defgroup Math Basic math operations
   9:./lib/lib8tion/math8.h **** /// Fast, efficient 8-bit math functions specifically
  10:./lib/lib8tion/math8.h **** /// designed for high-performance LED programming.
  11:./lib/lib8tion/math8.h **** ///
  12:./lib/lib8tion/math8.h **** /// Because of the AVR(Arduino) and ARM assembly language
  13:./lib/lib8tion/math8.h **** /// implementations provided, using these functions often
  14:./lib/lib8tion/math8.h **** /// results in smaller and faster code than the equivalent
  15:./lib/lib8tion/math8.h **** /// program using plain "C" arithmetic and logic.
  16:./lib/lib8tion/math8.h **** ///@{
  17:./lib/lib8tion/math8.h **** 
  18:./lib/lib8tion/math8.h **** 
  19:./lib/lib8tion/math8.h **** /// add one byte to another, saturating at 0xFF
  20:./lib/lib8tion/math8.h **** /// @param i - first byte to add
  21:./lib/lib8tion/math8.h **** /// @param j - second byte to add
  22:./lib/lib8tion/math8.h **** /// @returns the sum of i & j, capped at 0xFF
  23:./lib/lib8tion/math8.h **** LIB8STATIC_ALWAYS_INLINE uint8_t qadd8( uint8_t i, uint8_t j)
 2163              		.loc 2 23 34 view .LVU527
 2164              	.LBB121:
  24:./lib/lib8tion/math8.h **** {
  25:./lib/lib8tion/math8.h **** #if QADD8_C == 1
  26:./lib/lib8tion/math8.h ****     uint16_t t = i + j;
 2165              		.loc 2 26 5 view .LVU528
 2166              	.LBE121:
 2167              	.LBE120:
 386:quantum/rgblight.c ****     uint8_t sat = qadd8(rgblight_config.sat, RGBLIGHT_SAT_STEP);
 2168              		.loc 1 386 57 is_stmt 0 view .LVU529
 2169 0000 70B5     		push	{r4, r5, r6, lr}
 2170              		.cfi_def_cfa_offset 16
 2171              		.cfi_offset 4, -16
 2172              		.cfi_offset 5, -12
 2173              		.cfi_offset 6, -8
 2174              		.cfi_offset 14, -4
 387:quantum/rgblight.c ****     rgblight_sethsv_eeprom_helper(rgblight_config.hue, sat, rgblight_config.val, write_to_eeprom);
 2175              		.loc 1 387 19 view .LVU530
 2176 0002 074D     		ldr	r5, .L181
 386:quantum/rgblight.c ****     uint8_t sat = qadd8(rgblight_config.sat, RGBLIGHT_SAT_STEP);
 2177              		.loc 1 386 57 view .LVU531
 2178 0004 0300     		movs	r3, r0
 2179              	.LBB125:
 2180              	.LBB122:
 2181              		.loc 2 26 20 view .LVU532
 2182 0006 AC78     		ldrb	r4, [r5, #2]
 2183              	.LBE122:
 2184              	.LBE125:
 388:quantum/rgblight.c **** }
 2185              		.loc 1 388 5 view .LVU533
 2186 0008 EA78     		ldrb	r2, [r5, #3]
 2187              	.LBB126:
 2188              	.LBB123:
 2189              		.loc 2 26 14 view .LVU534
 2190 000a 1134     		adds	r4, r4, #17
 2191              	.LVL126:
  27:./lib/lib8tion/math8.h ****     if (t > 255) t = 255;
 2192              		.loc 2 27 5 is_stmt 1 view .LVU535
  28:./lib/lib8tion/math8.h ****     return t;
 2193              		.loc 2 28 5 view .LVU536
 2194              		.loc 2 28 5 is_stmt 0 view .LVU537
 2195              	.LBE123:
 2196              	.LBE126:
 388:quantum/rgblight.c **** }
 2197              		.loc 1 388 5 is_stmt 1 view .LVU538
 2198              	.LBB127:
 2199              	.LBB124:
 2200              		.loc 2 28 12 is_stmt 0 view .LVU539
 2201 000c 211C     		adds	r1, r4, #0
 2202 000e FF2C     		cmp	r4, #255
 2203 0010 00D9     		bls	.L180
 2204 0012 FF21     		movs	r1, #255
 2205              	.L180:
 2206              	.LBE124:
 2207              	.LBE127:
 388:quantum/rgblight.c **** }
 2208              		.loc 1 388 5 view .LVU540
 2209 0014 6878     		ldrb	r0, [r5, #1]
 2210              	.LVL127:
 388:quantum/rgblight.c **** }
 2211              		.loc 1 388 5 view .LVU541
 2212 0016 C9B2     		uxtb	r1, r1
 2213 0018 FFF7FEFF 		bl	rgblight_sethsv_eeprom_helper
 2214              	.LVL128:
 389:quantum/rgblight.c **** void rgblight_increase_sat_noeeprom(void) { rgblight_increase_sat_helper(false); }
 2215              		.loc 1 389 1 view .LVU542
 2216              		@ sp needed
 2217              	.LVL129:
 389:quantum/rgblight.c **** void rgblight_increase_sat_noeeprom(void) { rgblight_increase_sat_helper(false); }
 2218              		.loc 1 389 1 view .LVU543
 2219 001c 70BD     		pop	{r4, r5, r6, pc}
 2220              	.L182:
 2221 001e C046     		.align	2
 2222              	.L181:
 2223 0020 00000000 		.word	.LANCHOR5
 2224              		.cfi_endproc
 2225              	.LFE297:
 2227              		.section	.text.rgblight_increase_sat_noeeprom,"ax",%progbits
 2228              		.align	1
 2229              		.global	rgblight_increase_sat_noeeprom
 2230              		.syntax unified
 2231              		.code	16
 2232              		.thumb_func
 2233              		.fpu softvfp
 2235              	rgblight_increase_sat_noeeprom:
 2236              	.LFB298:
 390:quantum/rgblight.c **** void rgblight_increase_sat(void) { rgblight_increase_sat_helper(true); }
 2237              		.loc 1 390 43 is_stmt 1 view -0
 2238              		.cfi_startproc
 2239              		@ args = 0, pretend = 0, frame = 0
 2240              		@ frame_needed = 0, uses_anonymous_args = 0
 390:quantum/rgblight.c **** void rgblight_increase_sat(void) { rgblight_increase_sat_helper(true); }
 2241              		.loc 1 390 45 view .LVU545
 390:quantum/rgblight.c **** void rgblight_increase_sat(void) { rgblight_increase_sat_helper(true); }
 2242              		.loc 1 390 43 is_stmt 0 view .LVU546
 2243 0000 10B5     		push	{r4, lr}
 2244              		.cfi_def_cfa_offset 8
 2245              		.cfi_offset 4, -8
 2246              		.cfi_offset 14, -4
 390:quantum/rgblight.c **** void rgblight_increase_sat(void) { rgblight_increase_sat_helper(true); }
 2247              		.loc 1 390 45 view .LVU547
 2248 0002 0020     		movs	r0, #0
 2249 0004 FFF7FEFF 		bl	rgblight_increase_sat_helper
 2250              	.LVL130:
 390:quantum/rgblight.c **** void rgblight_increase_sat(void) { rgblight_increase_sat_helper(true); }
 2251              		.loc 1 390 1 view .LVU548
 2252              		@ sp needed
 2253 0008 10BD     		pop	{r4, pc}
 2254              		.cfi_endproc
 2255              	.LFE298:
 2257              		.section	.text.rgblight_increase_sat,"ax",%progbits
 2258              		.align	1
 2259              		.global	rgblight_increase_sat
 2260              		.syntax unified
 2261              		.code	16
 2262              		.thumb_func
 2263              		.fpu softvfp
 2265              	rgblight_increase_sat:
 2266              	.LFB299:
 391:quantum/rgblight.c **** void rgblight_decrease_sat_helper(bool write_to_eeprom) {
 2267              		.loc 1 391 34 is_stmt 1 view -0
 2268              		.cfi_startproc
 2269              		@ args = 0, pretend = 0, frame = 0
 2270              		@ frame_needed = 0, uses_anonymous_args = 0
 391:quantum/rgblight.c **** void rgblight_decrease_sat_helper(bool write_to_eeprom) {
 2271              		.loc 1 391 36 view .LVU550
 391:quantum/rgblight.c **** void rgblight_decrease_sat_helper(bool write_to_eeprom) {
 2272              		.loc 1 391 34 is_stmt 0 view .LVU551
 2273 0000 10B5     		push	{r4, lr}
 2274              		.cfi_def_cfa_offset 8
 2275              		.cfi_offset 4, -8
 2276              		.cfi_offset 14, -4
 391:quantum/rgblight.c **** void rgblight_decrease_sat_helper(bool write_to_eeprom) {
 2277              		.loc 1 391 36 view .LVU552
 2278 0002 0120     		movs	r0, #1
 2279 0004 FFF7FEFF 		bl	rgblight_increase_sat_helper
 2280              	.LVL131:
 391:quantum/rgblight.c **** void rgblight_decrease_sat_helper(bool write_to_eeprom) {
 2281              		.loc 1 391 1 view .LVU553
 2282              		@ sp needed
 2283 0008 10BD     		pop	{r4, pc}
 2284              		.cfi_endproc
 2285              	.LFE299:
 2287              		.section	.text.rgblight_decrease_sat_helper,"ax",%progbits
 2288              		.align	1
 2289              		.global	rgblight_decrease_sat_helper
 2290              		.syntax unified
 2291              		.code	16
 2292              		.thumb_func
 2293              		.fpu softvfp
 2295              	rgblight_decrease_sat_helper:
 2296              	.LVL132:
 2297              	.LFB300:
 392:quantum/rgblight.c ****     uint8_t sat = qsub8(rgblight_config.sat, RGBLIGHT_SAT_STEP);
 2298              		.loc 1 392 57 is_stmt 1 view -0
 2299              		.cfi_startproc
 2300              		@ args = 0, pretend = 0, frame = 0
 2301              		@ frame_needed = 0, uses_anonymous_args = 0
 393:quantum/rgblight.c ****     rgblight_sethsv_eeprom_helper(rgblight_config.hue, sat, rgblight_config.val, write_to_eeprom);
 2302              		.loc 1 393 5 view .LVU555
 2303              	.LBB128:
 2304              	.LBI128:
  29:./lib/lib8tion/math8.h **** #elif QADD8_AVRASM == 1
  30:./lib/lib8tion/math8.h ****     asm volatile(
  31:./lib/lib8tion/math8.h ****          /* First, add j to i, conditioning the C flag */
  32:./lib/lib8tion/math8.h ****          "add %0, %1    \n\t"
  33:./lib/lib8tion/math8.h **** 
  34:./lib/lib8tion/math8.h ****          /* Now test the C flag.
  35:./lib/lib8tion/math8.h ****            If C is clear, we branch around a load of 0xFF into i.
  36:./lib/lib8tion/math8.h ****            If C is set, we go ahead and load 0xFF into i.
  37:./lib/lib8tion/math8.h ****          */
  38:./lib/lib8tion/math8.h ****          "brcc L_%=     \n\t"
  39:./lib/lib8tion/math8.h ****          "ldi %0, 0xFF  \n\t"
  40:./lib/lib8tion/math8.h ****          "L_%=: "
  41:./lib/lib8tion/math8.h ****          : "+a" (i)
  42:./lib/lib8tion/math8.h ****          : "a"  (j) );
  43:./lib/lib8tion/math8.h ****     return i;
  44:./lib/lib8tion/math8.h **** #elif QADD8_ARM_DSP_ASM == 1
  45:./lib/lib8tion/math8.h ****     asm volatile( "uqadd8 %0, %0, %1" : "+r" (i) : "r" (j));
  46:./lib/lib8tion/math8.h ****     return i;
  47:./lib/lib8tion/math8.h **** #else
  48:./lib/lib8tion/math8.h **** #error "No implementation for qadd8 available."
  49:./lib/lib8tion/math8.h **** #endif
  50:./lib/lib8tion/math8.h **** }
  51:./lib/lib8tion/math8.h **** 
  52:./lib/lib8tion/math8.h **** /// Add one byte to another, saturating at 0x7F
  53:./lib/lib8tion/math8.h **** /// @param i - first byte to add
  54:./lib/lib8tion/math8.h **** /// @param j - second byte to add
  55:./lib/lib8tion/math8.h **** /// @returns the sum of i & j, capped at 0xFF
  56:./lib/lib8tion/math8.h **** LIB8STATIC_ALWAYS_INLINE int8_t qadd7( int8_t i, int8_t j)
  57:./lib/lib8tion/math8.h **** {
  58:./lib/lib8tion/math8.h **** #if QADD7_C == 1
  59:./lib/lib8tion/math8.h ****     int16_t t = i + j;
  60:./lib/lib8tion/math8.h ****     if (t > 127) t = 127;
  61:./lib/lib8tion/math8.h ****     return t;
  62:./lib/lib8tion/math8.h **** #elif QADD7_AVRASM == 1
  63:./lib/lib8tion/math8.h ****     asm volatile(
  64:./lib/lib8tion/math8.h ****          /* First, add j to i, conditioning the V flag */
  65:./lib/lib8tion/math8.h ****          "add %0, %1    \n\t"
  66:./lib/lib8tion/math8.h **** 
  67:./lib/lib8tion/math8.h ****          /* Now test the V flag.
  68:./lib/lib8tion/math8.h ****           If V is clear, we branch around a load of 0x7F into i.
  69:./lib/lib8tion/math8.h ****           If V is set, we go ahead and load 0x7F into i.
  70:./lib/lib8tion/math8.h ****           */
  71:./lib/lib8tion/math8.h ****          "brvc L_%=     \n\t"
  72:./lib/lib8tion/math8.h ****          "ldi %0, 0x7F  \n\t"
  73:./lib/lib8tion/math8.h ****          "L_%=: "
  74:./lib/lib8tion/math8.h ****          : "+a" (i)
  75:./lib/lib8tion/math8.h ****          : "a"  (j) );
  76:./lib/lib8tion/math8.h **** 
  77:./lib/lib8tion/math8.h ****     return i;
  78:./lib/lib8tion/math8.h **** #elif QADD7_ARM_DSP_ASM == 1
  79:./lib/lib8tion/math8.h ****     asm volatile( "qadd8 %0, %0, %1" : "+r" (i) : "r" (j));
  80:./lib/lib8tion/math8.h ****     return i;
  81:./lib/lib8tion/math8.h **** #else
  82:./lib/lib8tion/math8.h **** #error "No implementation for qadd7 available."
  83:./lib/lib8tion/math8.h **** #endif
  84:./lib/lib8tion/math8.h **** }
  85:./lib/lib8tion/math8.h **** 
  86:./lib/lib8tion/math8.h **** /// subtract one byte from another, saturating at 0x00
  87:./lib/lib8tion/math8.h **** /// @returns i - j with a floor of 0
  88:./lib/lib8tion/math8.h **** LIB8STATIC_ALWAYS_INLINE uint8_t qsub8( uint8_t i, uint8_t j)
 2305              		.loc 2 88 34 view .LVU556
 2306              	.LBB129:
  89:./lib/lib8tion/math8.h **** {
  90:./lib/lib8tion/math8.h **** #if QSUB8_C == 1
  91:./lib/lib8tion/math8.h ****     int16_t t = i - j;
 2307              		.loc 2 91 5 view .LVU557
 2308              	.LBE129:
 2309              	.LBE128:
 392:quantum/rgblight.c ****     uint8_t sat = qsub8(rgblight_config.sat, RGBLIGHT_SAT_STEP);
 2310              		.loc 1 392 57 is_stmt 0 view .LVU558
 2311 0000 70B5     		push	{r4, r5, r6, lr}
 2312              		.cfi_def_cfa_offset 16
 2313              		.cfi_offset 4, -16
 2314              		.cfi_offset 5, -12
 2315              		.cfi_offset 6, -8
 2316              		.cfi_offset 14, -4
 393:quantum/rgblight.c ****     rgblight_sethsv_eeprom_helper(rgblight_config.hue, sat, rgblight_config.val, write_to_eeprom);
 2317              		.loc 1 393 19 view .LVU559
 2318 0002 074D     		ldr	r5, .L187
 392:quantum/rgblight.c ****     uint8_t sat = qsub8(rgblight_config.sat, RGBLIGHT_SAT_STEP);
 2319              		.loc 1 392 57 view .LVU560
 2320 0004 0300     		movs	r3, r0
 2321              	.LBB133:
 2322              	.LBB130:
 2323              		.loc 2 91 19 view .LVU561
 2324 0006 AC78     		ldrb	r4, [r5, #2]
 2325              	.LBE130:
 2326              	.LBE133:
 394:quantum/rgblight.c **** }
 2327              		.loc 1 394 5 view .LVU562
 2328 0008 EA78     		ldrb	r2, [r5, #3]
 2329              	.LBB134:
 2330              	.LBB131:
 2331              		.loc 2 91 19 view .LVU563
 2332 000a 113C     		subs	r4, r4, #17
 2333              		.loc 2 91 13 view .LVU564
 2334 000c 24B2     		sxth	r4, r4
 2335              	.LVL133:
  92:./lib/lib8tion/math8.h ****     if (t < 0) t = 0;
 2336              		.loc 2 92 5 is_stmt 1 view .LVU565
  93:./lib/lib8tion/math8.h ****     return t;
 2337              		.loc 2 93 5 view .LVU566
 2338              		.loc 2 93 5 is_stmt 0 view .LVU567
 2339              	.LBE131:
 2340              	.LBE134:
 394:quantum/rgblight.c **** }
 2341              		.loc 1 394 5 is_stmt 1 view .LVU568
 2342              	.LBB135:
 2343              	.LBB132:
 2344              		.loc 2 93 12 is_stmt 0 view .LVU569
 2345 000e 211C     		adds	r1, r4, #0
 2346 0010 002C     		cmp	r4, #0
 2347 0012 00DA     		bge	.L186
 2348 0014 0021     		movs	r1, #0
 2349              	.L186:
 2350              	.LBE132:
 2351              	.LBE135:
 394:quantum/rgblight.c **** }
 2352              		.loc 1 394 5 view .LVU570
 2353 0016 6878     		ldrb	r0, [r5, #1]
 2354              	.LVL134:
 394:quantum/rgblight.c **** }
 2355              		.loc 1 394 5 view .LVU571
 2356 0018 C9B2     		uxtb	r1, r1
 2357 001a FFF7FEFF 		bl	rgblight_sethsv_eeprom_helper
 2358              	.LVL135:
 395:quantum/rgblight.c **** void rgblight_decrease_sat_noeeprom(void) { rgblight_decrease_sat_helper(false); }
 2359              		.loc 1 395 1 view .LVU572
 2360              		@ sp needed
 2361              	.LVL136:
 395:quantum/rgblight.c **** void rgblight_decrease_sat_noeeprom(void) { rgblight_decrease_sat_helper(false); }
 2362              		.loc 1 395 1 view .LVU573
 2363 001e 70BD     		pop	{r4, r5, r6, pc}
 2364              	.L188:
 2365              		.align	2
 2366              	.L187:
 2367 0020 00000000 		.word	.LANCHOR5
 2368              		.cfi_endproc
 2369              	.LFE300:
 2371              		.section	.text.rgblight_decrease_sat_noeeprom,"ax",%progbits
 2372              		.align	1
 2373              		.global	rgblight_decrease_sat_noeeprom
 2374              		.syntax unified
 2375              		.code	16
 2376              		.thumb_func
 2377              		.fpu softvfp
 2379              	rgblight_decrease_sat_noeeprom:
 2380              	.LFB301:
 396:quantum/rgblight.c **** void rgblight_decrease_sat(void) { rgblight_decrease_sat_helper(true); }
 2381              		.loc 1 396 43 is_stmt 1 view -0
 2382              		.cfi_startproc
 2383              		@ args = 0, pretend = 0, frame = 0
 2384              		@ frame_needed = 0, uses_anonymous_args = 0
 396:quantum/rgblight.c **** void rgblight_decrease_sat(void) { rgblight_decrease_sat_helper(true); }
 2385              		.loc 1 396 45 view .LVU575
 396:quantum/rgblight.c **** void rgblight_decrease_sat(void) { rgblight_decrease_sat_helper(true); }
 2386              		.loc 1 396 43 is_stmt 0 view .LVU576
 2387 0000 10B5     		push	{r4, lr}
 2388              		.cfi_def_cfa_offset 8
 2389              		.cfi_offset 4, -8
 2390              		.cfi_offset 14, -4
 396:quantum/rgblight.c **** void rgblight_decrease_sat(void) { rgblight_decrease_sat_helper(true); }
 2391              		.loc 1 396 45 view .LVU577
 2392 0002 0020     		movs	r0, #0
 2393 0004 FFF7FEFF 		bl	rgblight_decrease_sat_helper
 2394              	.LVL137:
 396:quantum/rgblight.c **** void rgblight_decrease_sat(void) { rgblight_decrease_sat_helper(true); }
 2395              		.loc 1 396 1 view .LVU578
 2396              		@ sp needed
 2397 0008 10BD     		pop	{r4, pc}
 2398              		.cfi_endproc
 2399              	.LFE301:
 2401              		.section	.text.rgblight_decrease_sat,"ax",%progbits
 2402              		.align	1
 2403              		.global	rgblight_decrease_sat
 2404              		.syntax unified
 2405              		.code	16
 2406              		.thumb_func
 2407              		.fpu softvfp
 2409              	rgblight_decrease_sat:
 2410              	.LFB302:
 397:quantum/rgblight.c **** void rgblight_increase_val_helper(bool write_to_eeprom) {
 2411              		.loc 1 397 34 is_stmt 1 view -0
 2412              		.cfi_startproc
 2413              		@ args = 0, pretend = 0, frame = 0
 2414              		@ frame_needed = 0, uses_anonymous_args = 0
 397:quantum/rgblight.c **** void rgblight_increase_val_helper(bool write_to_eeprom) {
 2415              		.loc 1 397 36 view .LVU580
 397:quantum/rgblight.c **** void rgblight_increase_val_helper(bool write_to_eeprom) {
 2416              		.loc 1 397 34 is_stmt 0 view .LVU581
 2417 0000 10B5     		push	{r4, lr}
 2418              		.cfi_def_cfa_offset 8
 2419              		.cfi_offset 4, -8
 2420              		.cfi_offset 14, -4
 397:quantum/rgblight.c **** void rgblight_increase_val_helper(bool write_to_eeprom) {
 2421              		.loc 1 397 36 view .LVU582
 2422 0002 0120     		movs	r0, #1
 2423 0004 FFF7FEFF 		bl	rgblight_decrease_sat_helper
 2424              	.LVL138:
 397:quantum/rgblight.c **** void rgblight_increase_val_helper(bool write_to_eeprom) {
 2425              		.loc 1 397 1 view .LVU583
 2426              		@ sp needed
 2427 0008 10BD     		pop	{r4, pc}
 2428              		.cfi_endproc
 2429              	.LFE302:
 2431              		.section	.text.rgblight_increase_val_helper,"ax",%progbits
 2432              		.align	1
 2433              		.global	rgblight_increase_val_helper
 2434              		.syntax unified
 2435              		.code	16
 2436              		.thumb_func
 2437              		.fpu softvfp
 2439              	rgblight_increase_val_helper:
 2440              	.LVL139:
 2441              	.LFB303:
 398:quantum/rgblight.c ****     uint8_t val = qadd8(rgblight_config.val, RGBLIGHT_VAL_STEP);
 2442              		.loc 1 398 57 is_stmt 1 view -0
 2443              		.cfi_startproc
 2444              		@ args = 0, pretend = 0, frame = 0
 2445              		@ frame_needed = 0, uses_anonymous_args = 0
 399:quantum/rgblight.c ****     rgblight_sethsv_eeprom_helper(rgblight_config.hue, rgblight_config.sat, val, write_to_eeprom);
 2446              		.loc 1 399 5 view .LVU585
 2447              	.LBB136:
 2448              	.LBI136:
  23:./lib/lib8tion/math8.h **** {
 2449              		.loc 2 23 34 view .LVU586
 2450              	.LBB137:
  26:./lib/lib8tion/math8.h ****     if (t > 255) t = 255;
 2451              		.loc 2 26 5 view .LVU587
 2452              	.LBE137:
 2453              	.LBE136:
 398:quantum/rgblight.c ****     uint8_t val = qadd8(rgblight_config.val, RGBLIGHT_VAL_STEP);
 2454              		.loc 1 398 57 is_stmt 0 view .LVU588
 2455 0000 10B5     		push	{r4, lr}
 2456              		.cfi_def_cfa_offset 8
 2457              		.cfi_offset 4, -8
 2458              		.cfi_offset 14, -4
 399:quantum/rgblight.c ****     rgblight_sethsv_eeprom_helper(rgblight_config.hue, rgblight_config.sat, val, write_to_eeprom);
 2459              		.loc 1 399 19 view .LVU589
 2460 0002 074C     		ldr	r4, .L193
 398:quantum/rgblight.c ****     uint8_t val = qadd8(rgblight_config.val, RGBLIGHT_VAL_STEP);
 2461              		.loc 1 398 57 view .LVU590
 2462 0004 0300     		movs	r3, r0
 2463              	.LBB140:
 2464              	.LBB138:
  26:./lib/lib8tion/math8.h ****     if (t > 255) t = 255;
 2465              		.loc 2 26 20 view .LVU591
 2466 0006 E178     		ldrb	r1, [r4, #3]
  26:./lib/lib8tion/math8.h ****     if (t > 255) t = 255;
 2467              		.loc 2 26 14 view .LVU592
 2468 0008 1131     		adds	r1, r1, #17
 2469              	.LVL140:
  27:./lib/lib8tion/math8.h ****     return t;
 2470              		.loc 2 27 5 is_stmt 1 view .LVU593
  28:./lib/lib8tion/math8.h **** #elif QADD8_AVRASM == 1
 2471              		.loc 2 28 5 view .LVU594
  28:./lib/lib8tion/math8.h **** #elif QADD8_AVRASM == 1
 2472              		.loc 2 28 5 is_stmt 0 view .LVU595
 2473              	.LBE138:
 2474              	.LBE140:
 400:quantum/rgblight.c **** }
 2475              		.loc 1 400 5 is_stmt 1 view .LVU596
 2476              	.LBB141:
 2477              	.LBB139:
  28:./lib/lib8tion/math8.h **** #elif QADD8_AVRASM == 1
 2478              		.loc 2 28 12 is_stmt 0 view .LVU597
 2479 000a 0A1C     		adds	r2, r1, #0
 2480 000c FF29     		cmp	r1, #255
 2481 000e 00D9     		bls	.L192
 2482 0010 FF22     		movs	r2, #255
 2483              	.L192:
 2484              	.LBE139:
 2485              	.LBE141:
 400:quantum/rgblight.c **** }
 2486              		.loc 1 400 5 view .LVU598
 2487 0012 D2B2     		uxtb	r2, r2
 2488 0014 A178     		ldrb	r1, [r4, #2]
 2489              	.LVL141:
 400:quantum/rgblight.c **** }
 2490              		.loc 1 400 5 view .LVU599
 2491 0016 6078     		ldrb	r0, [r4, #1]
 2492              	.LVL142:
 400:quantum/rgblight.c **** }
 2493              		.loc 1 400 5 view .LVU600
 2494 0018 FFF7FEFF 		bl	rgblight_sethsv_eeprom_helper
 2495              	.LVL143:
 401:quantum/rgblight.c **** void rgblight_increase_val_noeeprom(void) { rgblight_increase_val_helper(false); }
 2496              		.loc 1 401 1 view .LVU601
 2497              		@ sp needed
 2498 001c 10BD     		pop	{r4, pc}
 2499              	.L194:
 2500 001e C046     		.align	2
 2501              	.L193:
 2502 0020 00000000 		.word	.LANCHOR5
 2503              		.cfi_endproc
 2504              	.LFE303:
 2506              		.section	.text.rgblight_increase_val_noeeprom,"ax",%progbits
 2507              		.align	1
 2508              		.global	rgblight_increase_val_noeeprom
 2509              		.syntax unified
 2510              		.code	16
 2511              		.thumb_func
 2512              		.fpu softvfp
 2514              	rgblight_increase_val_noeeprom:
 2515              	.LFB304:
 402:quantum/rgblight.c **** void rgblight_increase_val(void) { rgblight_increase_val_helper(true); }
 2516              		.loc 1 402 43 is_stmt 1 view -0
 2517              		.cfi_startproc
 2518              		@ args = 0, pretend = 0, frame = 0
 2519              		@ frame_needed = 0, uses_anonymous_args = 0
 402:quantum/rgblight.c **** void rgblight_increase_val(void) { rgblight_increase_val_helper(true); }
 2520              		.loc 1 402 45 view .LVU603
 402:quantum/rgblight.c **** void rgblight_increase_val(void) { rgblight_increase_val_helper(true); }
 2521              		.loc 1 402 43 is_stmt 0 view .LVU604
 2522 0000 10B5     		push	{r4, lr}
 2523              		.cfi_def_cfa_offset 8
 2524              		.cfi_offset 4, -8
 2525              		.cfi_offset 14, -4
 402:quantum/rgblight.c **** void rgblight_increase_val(void) { rgblight_increase_val_helper(true); }
 2526              		.loc 1 402 45 view .LVU605
 2527 0002 0020     		movs	r0, #0
 2528 0004 FFF7FEFF 		bl	rgblight_increase_val_helper
 2529              	.LVL144:
 402:quantum/rgblight.c **** void rgblight_increase_val(void) { rgblight_increase_val_helper(true); }
 2530              		.loc 1 402 1 view .LVU606
 2531              		@ sp needed
 2532 0008 10BD     		pop	{r4, pc}
 2533              		.cfi_endproc
 2534              	.LFE304:
 2536              		.section	.text.rgblight_increase_val,"ax",%progbits
 2537              		.align	1
 2538              		.global	rgblight_increase_val
 2539              		.syntax unified
 2540              		.code	16
 2541              		.thumb_func
 2542              		.fpu softvfp
 2544              	rgblight_increase_val:
 2545              	.LFB305:
 403:quantum/rgblight.c **** void rgblight_decrease_val_helper(bool write_to_eeprom) {
 2546              		.loc 1 403 34 is_stmt 1 view -0
 2547              		.cfi_startproc
 2548              		@ args = 0, pretend = 0, frame = 0
 2549              		@ frame_needed = 0, uses_anonymous_args = 0
 403:quantum/rgblight.c **** void rgblight_decrease_val_helper(bool write_to_eeprom) {
 2550              		.loc 1 403 36 view .LVU608
 403:quantum/rgblight.c **** void rgblight_decrease_val_helper(bool write_to_eeprom) {
 2551              		.loc 1 403 34 is_stmt 0 view .LVU609
 2552 0000 10B5     		push	{r4, lr}
 2553              		.cfi_def_cfa_offset 8
 2554              		.cfi_offset 4, -8
 2555              		.cfi_offset 14, -4
 403:quantum/rgblight.c **** void rgblight_decrease_val_helper(bool write_to_eeprom) {
 2556              		.loc 1 403 36 view .LVU610
 2557 0002 0120     		movs	r0, #1
 2558 0004 FFF7FEFF 		bl	rgblight_increase_val_helper
 2559              	.LVL145:
 403:quantum/rgblight.c **** void rgblight_decrease_val_helper(bool write_to_eeprom) {
 2560              		.loc 1 403 1 view .LVU611
 2561              		@ sp needed
 2562 0008 10BD     		pop	{r4, pc}
 2563              		.cfi_endproc
 2564              	.LFE305:
 2566              		.section	.text.rgblight_decrease_val_helper,"ax",%progbits
 2567              		.align	1
 2568              		.global	rgblight_decrease_val_helper
 2569              		.syntax unified
 2570              		.code	16
 2571              		.thumb_func
 2572              		.fpu softvfp
 2574              	rgblight_decrease_val_helper:
 2575              	.LVL146:
 2576              	.LFB306:
 404:quantum/rgblight.c ****     uint8_t val = qsub8(rgblight_config.val, RGBLIGHT_VAL_STEP);
 2577              		.loc 1 404 57 is_stmt 1 view -0
 2578              		.cfi_startproc
 2579              		@ args = 0, pretend = 0, frame = 0
 2580              		@ frame_needed = 0, uses_anonymous_args = 0
 405:quantum/rgblight.c ****     rgblight_sethsv_eeprom_helper(rgblight_config.hue, rgblight_config.sat, val, write_to_eeprom);
 2581              		.loc 1 405 5 view .LVU613
 2582              	.LBB142:
 2583              	.LBI142:
  88:./lib/lib8tion/math8.h **** {
 2584              		.loc 2 88 34 view .LVU614
 2585              	.LBB143:
  91:./lib/lib8tion/math8.h ****     if (t < 0) t = 0;
 2586              		.loc 2 91 5 view .LVU615
 2587              	.LBE143:
 2588              	.LBE142:
 404:quantum/rgblight.c ****     uint8_t val = qsub8(rgblight_config.val, RGBLIGHT_VAL_STEP);
 2589              		.loc 1 404 57 is_stmt 0 view .LVU616
 2590 0000 10B5     		push	{r4, lr}
 2591              		.cfi_def_cfa_offset 8
 2592              		.cfi_offset 4, -8
 2593              		.cfi_offset 14, -4
 405:quantum/rgblight.c ****     rgblight_sethsv_eeprom_helper(rgblight_config.hue, rgblight_config.sat, val, write_to_eeprom);
 2594              		.loc 1 405 19 view .LVU617
 2595 0002 074C     		ldr	r4, .L199
 404:quantum/rgblight.c ****     uint8_t val = qsub8(rgblight_config.val, RGBLIGHT_VAL_STEP);
 2596              		.loc 1 404 57 view .LVU618
 2597 0004 0300     		movs	r3, r0
 2598              	.LBB146:
 2599              	.LBB144:
  91:./lib/lib8tion/math8.h ****     if (t < 0) t = 0;
 2600              		.loc 2 91 19 view .LVU619
 2601 0006 E178     		ldrb	r1, [r4, #3]
 2602 0008 1139     		subs	r1, r1, #17
  91:./lib/lib8tion/math8.h ****     if (t < 0) t = 0;
 2603              		.loc 2 91 13 view .LVU620
 2604 000a 09B2     		sxth	r1, r1
 2605              	.LVL147:
  92:./lib/lib8tion/math8.h ****     return t;
 2606              		.loc 2 92 5 is_stmt 1 view .LVU621
 2607              		.loc 2 93 5 view .LVU622
 2608              		.loc 2 93 5 is_stmt 0 view .LVU623
 2609              	.LBE144:
 2610              	.LBE146:
 406:quantum/rgblight.c **** }
 2611              		.loc 1 406 5 is_stmt 1 view .LVU624
 2612              	.LBB147:
 2613              	.LBB145:
 2614              		.loc 2 93 12 is_stmt 0 view .LVU625
 2615 000c 0A1C     		adds	r2, r1, #0
 2616 000e 0029     		cmp	r1, #0
 2617 0010 00DA     		bge	.L198
 2618 0012 0022     		movs	r2, #0
 2619              	.L198:
 2620              	.LBE145:
 2621              	.LBE147:
 406:quantum/rgblight.c **** }
 2622              		.loc 1 406 5 view .LVU626
 2623 0014 D2B2     		uxtb	r2, r2
 2624 0016 A178     		ldrb	r1, [r4, #2]
 2625              	.LVL148:
 406:quantum/rgblight.c **** }
 2626              		.loc 1 406 5 view .LVU627
 2627 0018 6078     		ldrb	r0, [r4, #1]
 2628              	.LVL149:
 406:quantum/rgblight.c **** }
 2629              		.loc 1 406 5 view .LVU628
 2630 001a FFF7FEFF 		bl	rgblight_sethsv_eeprom_helper
 2631              	.LVL150:
 407:quantum/rgblight.c **** void rgblight_decrease_val_noeeprom(void) { rgblight_decrease_val_helper(false); }
 2632              		.loc 1 407 1 view .LVU629
 2633              		@ sp needed
 2634 001e 10BD     		pop	{r4, pc}
 2635              	.L200:
 2636              		.align	2
 2637              	.L199:
 2638 0020 00000000 		.word	.LANCHOR5
 2639              		.cfi_endproc
 2640              	.LFE306:
 2642              		.section	.text.rgblight_decrease_val_noeeprom,"ax",%progbits
 2643              		.align	1
 2644              		.global	rgblight_decrease_val_noeeprom
 2645              		.syntax unified
 2646              		.code	16
 2647              		.thumb_func
 2648              		.fpu softvfp
 2650              	rgblight_decrease_val_noeeprom:
 2651              	.LFB307:
 408:quantum/rgblight.c **** void rgblight_decrease_val(void) { rgblight_decrease_val_helper(true); }
 2652              		.loc 1 408 43 is_stmt 1 view -0
 2653              		.cfi_startproc
 2654              		@ args = 0, pretend = 0, frame = 0
 2655              		@ frame_needed = 0, uses_anonymous_args = 0
 408:quantum/rgblight.c **** void rgblight_decrease_val(void) { rgblight_decrease_val_helper(true); }
 2656              		.loc 1 408 45 view .LVU631
 408:quantum/rgblight.c **** void rgblight_decrease_val(void) { rgblight_decrease_val_helper(true); }
 2657              		.loc 1 408 43 is_stmt 0 view .LVU632
 2658 0000 10B5     		push	{r4, lr}
 2659              		.cfi_def_cfa_offset 8
 2660              		.cfi_offset 4, -8
 2661              		.cfi_offset 14, -4
 408:quantum/rgblight.c **** void rgblight_decrease_val(void) { rgblight_decrease_val_helper(true); }
 2662              		.loc 1 408 45 view .LVU633
 2663 0002 0020     		movs	r0, #0
 2664 0004 FFF7FEFF 		bl	rgblight_decrease_val_helper
 2665              	.LVL151:
 408:quantum/rgblight.c **** void rgblight_decrease_val(void) { rgblight_decrease_val_helper(true); }
 2666              		.loc 1 408 1 view .LVU634
 2667              		@ sp needed
 2668 0008 10BD     		pop	{r4, pc}
 2669              		.cfi_endproc
 2670              	.LFE307:
 2672              		.section	.text.rgblight_decrease_val,"ax",%progbits
 2673              		.align	1
 2674              		.global	rgblight_decrease_val
 2675              		.syntax unified
 2676              		.code	16
 2677              		.thumb_func
 2678              		.fpu softvfp
 2680              	rgblight_decrease_val:
 2681              	.LFB308:
 409:quantum/rgblight.c **** void rgblight_increase_speed(void) {
 2682              		.loc 1 409 34 is_stmt 1 view -0
 2683              		.cfi_startproc
 2684              		@ args = 0, pretend = 0, frame = 0
 2685              		@ frame_needed = 0, uses_anonymous_args = 0
 409:quantum/rgblight.c **** void rgblight_increase_speed(void) {
 2686              		.loc 1 409 36 view .LVU636
 409:quantum/rgblight.c **** void rgblight_increase_speed(void) {
 2687              		.loc 1 409 34 is_stmt 0 view .LVU637
 2688 0000 10B5     		push	{r4, lr}
 2689              		.cfi_def_cfa_offset 8
 2690              		.cfi_offset 4, -8
 2691              		.cfi_offset 14, -4
 409:quantum/rgblight.c **** void rgblight_increase_speed(void) {
 2692              		.loc 1 409 36 view .LVU638
 2693 0002 0120     		movs	r0, #1
 2694 0004 FFF7FEFF 		bl	rgblight_decrease_val_helper
 2695              	.LVL152:
 409:quantum/rgblight.c **** void rgblight_increase_speed(void) {
 2696              		.loc 1 409 1 view .LVU639
 2697              		@ sp needed
 2698 0008 10BD     		pop	{r4, pc}
 2699              		.cfi_endproc
 2700              	.LFE308:
 2702              		.section	.text.rgblight_sethsv,"ax",%progbits
 2703              		.align	1
 2704              		.global	rgblight_sethsv
 2705              		.syntax unified
 2706              		.code	16
 2707              		.thumb_func
 2708              		.fpu softvfp
 2710              	rgblight_sethsv:
 2711              	.LVL153:
 2712              	.LFB313:
 502:quantum/rgblight.c **** 
 2713              		.loc 1 502 61 is_stmt 1 view -0
 2714              		.cfi_startproc
 2715              		@ args = 0, pretend = 0, frame = 0
 2716              		@ frame_needed = 0, uses_anonymous_args = 0
 502:quantum/rgblight.c **** 
 2717              		.loc 1 502 63 view .LVU641
 502:quantum/rgblight.c **** 
 2718              		.loc 1 502 61 is_stmt 0 view .LVU642
 2719 0000 10B5     		push	{r4, lr}
 2720              		.cfi_def_cfa_offset 8
 2721              		.cfi_offset 4, -8
 2722              		.cfi_offset 14, -4
 502:quantum/rgblight.c **** 
 2723              		.loc 1 502 63 view .LVU643
 2724 0002 0123     		movs	r3, #1
 2725 0004 FFF7FEFF 		bl	rgblight_sethsv_eeprom_helper
 2726              	.LVL154:
 502:quantum/rgblight.c **** 
 2727              		.loc 1 502 1 view .LVU644
 2728              		@ sp needed
 2729 0008 10BD     		pop	{r4, pc}
 2730              		.cfi_endproc
 2731              	.LFE313:
 2733              		.section	.text.rgblight_sethsv_noeeprom,"ax",%progbits
 2734              		.align	1
 2735              		.global	rgblight_sethsv_noeeprom
 2736              		.syntax unified
 2737              		.code	16
 2738              		.thumb_func
 2739              		.fpu softvfp
 2741              	rgblight_sethsv_noeeprom:
 2742              	.LVL155:
 2743              	.LFB314:
 504:quantum/rgblight.c **** 
 2744              		.loc 1 504 70 is_stmt 1 view -0
 2745              		.cfi_startproc
 2746              		@ args = 0, pretend = 0, frame = 0
 2747              		@ frame_needed = 0, uses_anonymous_args = 0
 504:quantum/rgblight.c **** 
 2748              		.loc 1 504 72 view .LVU646
 504:quantum/rgblight.c **** 
 2749              		.loc 1 504 70 is_stmt 0 view .LVU647
 2750 0000 10B5     		push	{r4, lr}
 2751              		.cfi_def_cfa_offset 8
 2752              		.cfi_offset 4, -8
 2753              		.cfi_offset 14, -4
 504:quantum/rgblight.c **** 
 2754              		.loc 1 504 72 view .LVU648
 2755 0002 0023     		movs	r3, #0
 2756 0004 FFF7FEFF 		bl	rgblight_sethsv_eeprom_helper
 2757              	.LVL156:
 504:quantum/rgblight.c **** 
 2758              		.loc 1 504 1 view .LVU649
 2759              		@ sp needed
 2760 0008 10BD     		pop	{r4, pc}
 2761              		.cfi_endproc
 2762              	.LFE314:
 2764              		.section	.text.rgblight_setrgb_at,"ax",%progbits
 2765              		.align	1
 2766              		.global	rgblight_setrgb_at
 2767              		.syntax unified
 2768              		.code	16
 2769              		.thumb_func
 2770              		.fpu softvfp
 2772              	rgblight_setrgb_at:
 2773              	.LVL157:
 2774              	.LFB323:
 544:quantum/rgblight.c ****     if (!rgblight_config.enable || index >= RGBLED_NUM) {
 2775              		.loc 1 544 73 is_stmt 1 view -0
 2776              		.cfi_startproc
 2777              		@ args = 0, pretend = 0, frame = 0
 2778              		@ frame_needed = 0, uses_anonymous_args = 0
 545:quantum/rgblight.c ****         return;
 2779              		.loc 1 545 5 view .LVU651
 544:quantum/rgblight.c ****     if (!rgblight_config.enable || index >= RGBLED_NUM) {
 2780              		.loc 1 544 73 is_stmt 0 view .LVU652
 2781 0000 70B5     		push	{r4, r5, r6, lr}
 2782              		.cfi_def_cfa_offset 16
 2783              		.cfi_offset 4, -16
 2784              		.cfi_offset 5, -12
 2785              		.cfi_offset 6, -8
 2786              		.cfi_offset 14, -4
 545:quantum/rgblight.c ****         return;
 2787              		.loc 1 545 25 view .LVU653
 2788 0002 084C     		ldr	r4, .L210
 2789 0004 2478     		ldrb	r4, [r4]
 545:quantum/rgblight.c ****         return;
 2790              		.loc 1 545 8 view .LVU654
 2791 0006 E407     		lsls	r4, r4, #31
 2792 0008 0AD5     		bpl	.L205
 545:quantum/rgblight.c ****         return;
 2793              		.loc 1 545 33 discriminator 1 view .LVU655
 2794 000a 0D2B     		cmp	r3, #13
 2795 000c 08D8     		bhi	.L205
 549:quantum/rgblight.c ****     led[index].g = g;
 2796              		.loc 1 549 5 is_stmt 1 view .LVU656
 549:quantum/rgblight.c ****     led[index].g = g;
 2797              		.loc 1 549 18 is_stmt 0 view .LVU657
 2798 000e 0324     		movs	r4, #3
 2799 0010 6343     		muls	r3, r4
 2800              	.LVL158:
 549:quantum/rgblight.c ****     led[index].g = g;
 2801              		.loc 1 549 18 view .LVU658
 2802 0012 054D     		ldr	r5, .L210+4
 2803 0014 EC18     		adds	r4, r5, r3
 2804 0016 6070     		strb	r0, [r4, #1]
 550:quantum/rgblight.c ****     led[index].b = b;
 2805              		.loc 1 550 5 is_stmt 1 view .LVU659
 550:quantum/rgblight.c ****     led[index].b = b;
 2806              		.loc 1 550 18 is_stmt 0 view .LVU660
 2807 0018 5955     		strb	r1, [r3, r5]
 551:quantum/rgblight.c **** #ifdef RGBW
 2808              		.loc 1 551 5 is_stmt 1 view .LVU661
 551:quantum/rgblight.c **** #ifdef RGBW
 2809              		.loc 1 551 18 is_stmt 0 view .LVU662
 2810 001a A270     		strb	r2, [r4, #2]
 555:quantum/rgblight.c **** }
 2811              		.loc 1 555 5 is_stmt 1 view .LVU663
 2812 001c FFF7FEFF 		bl	rgblight_set
 2813              	.LVL159:
 2814              	.L205:
 556:quantum/rgblight.c **** 
 2815              		.loc 1 556 1 is_stmt 0 view .LVU664
 2816              		@ sp needed
 2817 0020 70BD     		pop	{r4, r5, r6, pc}
 2818              	.L211:
 2819 0022 C046     		.align	2
 2820              	.L210:
 2821 0024 00000000 		.word	.LANCHOR5
 2822 0028 00000000 		.word	.LANCHOR6
 2823              		.cfi_endproc
 2824              	.LFE323:
 2826              		.section	.text.rgblight_sethsv_at,"ax",%progbits
 2827              		.align	1
 2828              		.global	rgblight_sethsv_at
 2829              		.syntax unified
 2830              		.code	16
 2831              		.thumb_func
 2832              		.fpu softvfp
 2834              	rgblight_sethsv_at:
 2835              	.LVL160:
 2836              	.LFB324:
 558:quantum/rgblight.c ****     if (!rgblight_config.enable) {
 2837              		.loc 1 558 79 is_stmt 1 view -0
 2838              		.cfi_startproc
 2839              		@ args = 0, pretend = 0, frame = 8
 2840              		@ frame_needed = 0, uses_anonymous_args = 0
 559:quantum/rgblight.c ****         return;
 2841              		.loc 1 559 5 view .LVU666
 558:quantum/rgblight.c ****     if (!rgblight_config.enable) {
 2842              		.loc 1 558 79 is_stmt 0 view .LVU667
 2843 0000 37B5     		push	{r0, r1, r2, r4, r5, lr}
 2844              		.cfi_def_cfa_offset 24
 2845              		.cfi_offset 0, -24
 2846              		.cfi_offset 1, -20
 2847              		.cfi_offset 2, -16
 2848              		.cfi_offset 4, -12
 2849              		.cfi_offset 5, -8
 2850              		.cfi_offset 14, -4
 558:quantum/rgblight.c ****     if (!rgblight_config.enable) {
 2851              		.loc 1 558 79 view .LVU668
 2852 0002 1D00     		movs	r5, r3
 559:quantum/rgblight.c ****         return;
 2853              		.loc 1 559 25 view .LVU669
 2854 0004 074B     		ldr	r3, .L215
 2855              	.LVL161:
 559:quantum/rgblight.c ****         return;
 2856              		.loc 1 559 25 view .LVU670
 2857 0006 1B78     		ldrb	r3, [r3]
 559:quantum/rgblight.c ****         return;
 2858              		.loc 1 559 8 view .LVU671
 2859 0008 DB07     		lsls	r3, r3, #31
 2860 000a 09D5     		bpl	.L212
 563:quantum/rgblight.c ****     sethsv(hue, sat, val, &tmp_led);
 2861              		.loc 1 563 5 is_stmt 1 view .LVU672
 564:quantum/rgblight.c ****     rgblight_setrgb_at(tmp_led.r, tmp_led.g, tmp_led.b, index);
 2862              		.loc 1 564 5 view .LVU673
 2863              	.LVL162:
 2864              	.LBB148:
 2865              	.LBI148:
 135:quantum/rgblight.c **** 
 2866              		.loc 1 135 6 view .LVU674
 2867              	.LBB149:
 135:quantum/rgblight.c **** 
 2868              		.loc 1 135 70 view .LVU675
 2869 000c 01AC     		add	r4, sp, #4
 2870              	.LVL163:
 135:quantum/rgblight.c **** 
 2871              		.loc 1 135 70 is_stmt 0 view .LVU676
 2872 000e 2300     		movs	r3, r4
 2873 0010 FFF7FEFF 		bl	sethsv_raw
 2874              	.LVL164:
 135:quantum/rgblight.c **** 
 2875              		.loc 1 135 70 view .LVU677
 2876              	.LBE149:
 2877              	.LBE148:
 565:quantum/rgblight.c **** }
 2878              		.loc 1 565 5 is_stmt 1 view .LVU678
 2879 0014 A278     		ldrb	r2, [r4, #2]
 2880 0016 2178     		ldrb	r1, [r4]
 2881 0018 6078     		ldrb	r0, [r4, #1]
 2882 001a 2B00     		movs	r3, r5
 2883 001c FFF7FEFF 		bl	rgblight_setrgb_at
 2884              	.LVL165:
 2885              	.L212:
 566:quantum/rgblight.c **** 
 2886              		.loc 1 566 1 is_stmt 0 view .LVU679
 2887              		@ sp needed
 2888 0020 37BD     		pop	{r0, r1, r2, r4, r5, pc}
 2889              	.L216:
 2890 0022 C046     		.align	2
 2891              	.L215:
 2892 0024 00000000 		.word	.LANCHOR5
 2893              		.cfi_endproc
 2894              	.LFE324:
 2896              		.section	.text.rgblight_setrgb_range,"ax",%progbits
 2897              		.align	1
 2898              		.global	rgblight_setrgb_range
 2899              		.syntax unified
 2900              		.code	16
 2901              		.thumb_func
 2902              		.fpu softvfp
 2904              	rgblight_setrgb_range:
 2905              	.LVL166:
 2906              	.LFB326:
 580:quantum/rgblight.c ****     if (!rgblight_config.enable || start < 0 || start >= end || end > RGBLED_NUM) {
 2907              		.loc 1 580 89 is_stmt 1 view -0
 2908              		.cfi_startproc
 2909              		@ args = 4, pretend = 0, frame = 0
 2910              		@ frame_needed = 0, uses_anonymous_args = 0
 581:quantum/rgblight.c ****         return;
 2911              		.loc 1 581 5 view .LVU681
 580:quantum/rgblight.c ****     if (!rgblight_config.enable || start < 0 || start >= end || end > RGBLED_NUM) {
 2912              		.loc 1 580 89 is_stmt 0 view .LVU682
 2913 0000 70B5     		push	{r4, r5, r6, lr}
 2914              		.cfi_def_cfa_offset 16
 2915              		.cfi_offset 4, -16
 2916              		.cfi_offset 5, -12
 2917              		.cfi_offset 6, -8
 2918              		.cfi_offset 14, -4
 580:quantum/rgblight.c ****     if (!rgblight_config.enable || start < 0 || start >= end || end > RGBLED_NUM) {
 2919              		.loc 1 580 89 view .LVU683
 2920 0002 04AC     		add	r4, sp, #16
 2921              	.LVL167:
 580:quantum/rgblight.c ****     if (!rgblight_config.enable || start < 0 || start >= end || end > RGBLED_NUM) {
 2922              		.loc 1 580 89 view .LVU684
 2923 0004 2578     		ldrb	r5, [r4]
 581:quantum/rgblight.c ****         return;
 2924              		.loc 1 581 25 view .LVU685
 2925 0006 0D4C     		ldr	r4, .L224
 2926              	.LVL168:
 581:quantum/rgblight.c ****         return;
 2927              		.loc 1 581 25 view .LVU686
 2928 0008 2478     		ldrb	r4, [r4]
 581:quantum/rgblight.c ****         return;
 2929              		.loc 1 581 8 view .LVU687
 2930 000a E407     		lsls	r4, r4, #31
 2931 000c 14D5     		bpl	.L217
 581:quantum/rgblight.c ****         return;
 2932              		.loc 1 581 46 discriminator 1 view .LVU688
 2933 000e AB42     		cmp	r3, r5
 2934 0010 12D2     		bcs	.L217
 581:quantum/rgblight.c ****         return;
 2935              		.loc 1 581 62 discriminator 2 view .LVU689
 2936 0012 0E2D     		cmp	r5, #14
 2937 0014 10D8     		bhi	.L217
 2938 0016 0326     		movs	r6, #3
 2939 0018 5E43     		muls	r6, r3
 2940 001a 094C     		ldr	r4, .L224+4
 2941 001c A419     		adds	r4, r4, r6
 2942              	.LVL169:
 2943              	.L219:
 2944              	.LBB153:
 2945              	.LBB154:
 2946              	.LBB155:
 586:quantum/rgblight.c ****         led[i].g = g;
 2947              		.loc 1 586 9 is_stmt 1 view .LVU690
 585:quantum/rgblight.c ****         led[i].r = r;
 2948              		.loc 1 585 39 is_stmt 0 view .LVU691
 2949 001e 0133     		adds	r3, r3, #1
 2950              	.LVL170:
 585:quantum/rgblight.c ****         led[i].r = r;
 2951              		.loc 1 585 39 view .LVU692
 2952 0020 DBB2     		uxtb	r3, r3
 586:quantum/rgblight.c ****         led[i].g = g;
 2953              		.loc 1 586 18 view .LVU693
 2954 0022 6070     		strb	r0, [r4, #1]
 587:quantum/rgblight.c ****         led[i].b = b;
 2955              		.loc 1 587 9 is_stmt 1 view .LVU694
 587:quantum/rgblight.c ****         led[i].b = b;
 2956              		.loc 1 587 18 is_stmt 0 view .LVU695
 2957 0024 2170     		strb	r1, [r4]
 588:quantum/rgblight.c **** #ifdef RGBW
 2958              		.loc 1 588 9 is_stmt 1 view .LVU696
 2959              	.LVL171:
 588:quantum/rgblight.c **** #ifdef RGBW
 2960              		.loc 1 588 18 is_stmt 0 view .LVU697
 2961 0026 A270     		strb	r2, [r4, #2]
 2962 0028 0334     		adds	r4, r4, #3
 585:quantum/rgblight.c ****         led[i].r = r;
 2963              		.loc 1 585 5 view .LVU698
 2964 002a 9D42     		cmp	r5, r3
 2965 002c F7D1     		bne	.L219
 585:quantum/rgblight.c ****         led[i].r = r;
 2966              		.loc 1 585 5 view .LVU699
 2967              	.LBE155:
 593:quantum/rgblight.c ****     wait_ms(1);
 2968              		.loc 1 593 5 is_stmt 1 view .LVU700
 2969 002e FFF7FEFF 		bl	rgblight_set
 2970              	.LVL172:
 594:quantum/rgblight.c **** }
 2971              		.loc 1 594 5 view .LVU701
 594:quantum/rgblight.c **** }
 2972              		.loc 1 594 5 view .LVU702
 594:quantum/rgblight.c **** }
 2973              		.loc 1 594 5 view .LVU703
 2974 0032 0A20     		movs	r0, #10
 2975 0034 FFF7FEFF 		bl	chThdSleep
 2976              	.LVL173:
 2977              	.L217:
 594:quantum/rgblight.c **** }
 2978              		.loc 1 594 5 is_stmt 0 view .LVU704
 2979              	.LBE154:
 2980              	.LBE153:
 595:quantum/rgblight.c **** 
 2981              		.loc 1 595 1 view .LVU705
 2982              		@ sp needed
 2983 0038 70BD     		pop	{r4, r5, r6, pc}
 2984              	.L225:
 2985 003a C046     		.align	2
 2986              	.L224:
 2987 003c 00000000 		.word	.LANCHOR5
 2988 0040 00000000 		.word	.LANCHOR6
 2989              		.cfi_endproc
 2990              	.LFE326:
 2992              		.section	.text.rgblight_sethsv_range,"ax",%progbits
 2993              		.align	1
 2994              		.global	rgblight_sethsv_range
 2995              		.syntax unified
 2996              		.code	16
 2997              		.thumb_func
 2998              		.fpu softvfp
 3000              	rgblight_sethsv_range:
 3001              	.LVL174:
 3002              	.LFB327:
 597:quantum/rgblight.c ****     if (!rgblight_config.enable) {
 3003              		.loc 1 597 95 is_stmt 1 view -0
 3004              		.cfi_startproc
 3005              		@ args = 4, pretend = 0, frame = 8
 3006              		@ frame_needed = 0, uses_anonymous_args = 0
 598:quantum/rgblight.c ****         return;
 3007              		.loc 1 598 5 view .LVU707
 597:quantum/rgblight.c ****     if (!rgblight_config.enable) {
 3008              		.loc 1 597 95 is_stmt 0 view .LVU708
 3009 0000 7FB5     		push	{r0, r1, r2, r3, r4, r5, r6, lr}
 3010              		.cfi_def_cfa_offset 32
 3011              		.cfi_offset 0, -32
 3012              		.cfi_offset 1, -28
 3013              		.cfi_offset 2, -24
 3014              		.cfi_offset 3, -20
 3015              		.cfi_offset 4, -16
 3016              		.cfi_offset 5, -12
 3017              		.cfi_offset 6, -8
 3018              		.cfi_offset 14, -4
 597:quantum/rgblight.c ****     if (!rgblight_config.enable) {
 3019              		.loc 1 597 95 view .LVU709
 3020 0002 1D00     		movs	r5, r3
 3021 0004 08AB     		add	r3, sp, #32
 3022              	.LVL175:
 597:quantum/rgblight.c ****     if (!rgblight_config.enable) {
 3023              		.loc 1 597 95 view .LVU710
 3024 0006 1E78     		ldrb	r6, [r3]
 598:quantum/rgblight.c ****         return;
 3025              		.loc 1 598 25 view .LVU711
 3026 0008 074B     		ldr	r3, .L231
 3027              	.LVL176:
 598:quantum/rgblight.c ****         return;
 3028              		.loc 1 598 25 view .LVU712
 3029 000a 1B78     		ldrb	r3, [r3]
 598:quantum/rgblight.c ****         return;
 3030              		.loc 1 598 8 view .LVU713
 3031 000c DB07     		lsls	r3, r3, #31
 3032 000e 0AD5     		bpl	.L226
 3033              	.LVL177:
 3034              	.LBB160:
 3035              	.LBI160:
 597:quantum/rgblight.c ****     if (!rgblight_config.enable) {
 3036              		.loc 1 597 6 is_stmt 1 view .LVU714
 3037              	.LBB161:
 602:quantum/rgblight.c ****     sethsv(hue, sat, val, &tmp_led);
 3038              		.loc 1 602 5 view .LVU715
 603:quantum/rgblight.c ****     rgblight_setrgb_range(tmp_led.r, tmp_led.g, tmp_led.b, start, end);
 3039              		.loc 1 603 5 view .LVU716
 3040              	.LBB162:
 3041              	.LBI162:
 135:quantum/rgblight.c **** 
 3042              		.loc 1 135 6 view .LVU717
 3043              	.LBB163:
 135:quantum/rgblight.c **** 
 3044              		.loc 1 135 70 view .LVU718
 3045 0010 03AC     		add	r4, sp, #12
 3046              	.LVL178:
 135:quantum/rgblight.c **** 
 3047              		.loc 1 135 70 is_stmt 0 view .LVU719
 3048 0012 2300     		movs	r3, r4
 3049 0014 FFF7FEFF 		bl	sethsv_raw
 3050              	.LVL179:
 135:quantum/rgblight.c **** 
 3051              		.loc 1 135 70 view .LVU720
 3052              	.LBE163:
 3053              	.LBE162:
 604:quantum/rgblight.c **** }
 3054              		.loc 1 604 5 is_stmt 1 view .LVU721
 3055 0018 A278     		ldrb	r2, [r4, #2]
 3056 001a 2178     		ldrb	r1, [r4]
 3057 001c 6078     		ldrb	r0, [r4, #1]
 3058 001e 2B00     		movs	r3, r5
 3059 0020 0096     		str	r6, [sp]
 3060 0022 FFF7FEFF 		bl	rgblight_setrgb_range
 3061              	.LVL180:
 3062              	.L226:
 604:quantum/rgblight.c **** }
 3063              		.loc 1 604 5 is_stmt 0 view .LVU722
 3064              	.LBE161:
 3065              	.LBE160:
 605:quantum/rgblight.c **** 
 3066              		.loc 1 605 1 view .LVU723
 3067              		@ sp needed
 3068 0026 7FBD     		pop	{r0, r1, r2, r3, r4, r5, r6, pc}
 3069              	.L232:
 3070              		.align	2
 3071              	.L231:
 3072 0028 00000000 		.word	.LANCHOR5
 3073              		.cfi_endproc
 3074              	.LFE327:
 3076              		.section	.text.rgblight_sethsv_master,"ax",%progbits
 3077              		.align	1
 3078              		.global	rgblight_sethsv_master
 3079              		.syntax unified
 3080              		.code	16
 3081              		.thumb_func
 3082              		.fpu softvfp
 3084              	rgblight_sethsv_master:
 3085              	.LVL181:
 3086              	.LFB330:
 612:quantum/rgblight.c **** 
 3087              		.loc 1 612 68 is_stmt 1 view -0
 3088              		.cfi_startproc
 3089              		@ args = 0, pretend = 0, frame = 0
 3090              		@ frame_needed = 0, uses_anonymous_args = 0
 612:quantum/rgblight.c **** 
 3091              		.loc 1 612 70 view .LVU725
 3092 0000 0723     		movs	r3, #7
 612:quantum/rgblight.c **** 
 3093              		.loc 1 612 68 is_stmt 0 view .LVU726
 3094 0002 07B5     		push	{r0, r1, r2, lr}
 3095              		.cfi_def_cfa_offset 16
 3096              		.cfi_offset 0, -16
 3097              		.cfi_offset 1, -12
 3098              		.cfi_offset 2, -8
 3099              		.cfi_offset 14, -4
 612:quantum/rgblight.c **** 
 3100              		.loc 1 612 70 view .LVU727
 3101 0004 0093     		str	r3, [sp]
 3102 0006 0023     		movs	r3, #0
 3103 0008 FFF7FEFF 		bl	rgblight_sethsv_range
 3104              	.LVL182:
 612:quantum/rgblight.c **** 
 3105              		.loc 1 612 1 view .LVU728
 3106              		@ sp needed
 3107 000c 07BD     		pop	{r0, r1, r2, pc}
 3108              		.cfi_endproc
 3109              	.LFE330:
 3111              		.section	.text.rgblight_sethsv_slave,"ax",%progbits
 3112              		.align	1
 3113              		.global	rgblight_sethsv_slave
 3114              		.syntax unified
 3115              		.code	16
 3116              		.thumb_func
 3117              		.fpu softvfp
 3119              	rgblight_sethsv_slave:
 3120              	.LVL183:
 3121              	.LFB331:
 614:quantum/rgblight.c **** #endif  // ifndef RGBLIGHT_SPLIT
 3122              		.loc 1 614 67 is_stmt 1 view -0
 3123              		.cfi_startproc
 3124              		@ args = 0, pretend = 0, frame = 0
 3125              		@ frame_needed = 0, uses_anonymous_args = 0
 614:quantum/rgblight.c **** #endif  // ifndef RGBLIGHT_SPLIT
 3126              		.loc 1 614 69 view .LVU730
 3127 0000 0E23     		movs	r3, #14
 614:quantum/rgblight.c **** #endif  // ifndef RGBLIGHT_SPLIT
 3128              		.loc 1 614 67 is_stmt 0 view .LVU731
 3129 0002 07B5     		push	{r0, r1, r2, lr}
 3130              		.cfi_def_cfa_offset 16
 3131              		.cfi_offset 0, -16
 3132              		.cfi_offset 1, -12
 3133              		.cfi_offset 2, -8
 3134              		.cfi_offset 14, -4
 614:quantum/rgblight.c **** #endif  // ifndef RGBLIGHT_SPLIT
 3135              		.loc 1 614 69 view .LVU732
 3136 0004 0093     		str	r3, [sp]
 3137 0006 073B     		subs	r3, r3, #7
 3138 0008 FFF7FEFF 		bl	rgblight_sethsv_range
 3139              	.LVL184:
 614:quantum/rgblight.c **** #endif  // ifndef RGBLIGHT_SPLIT
 3140              		.loc 1 614 1 view .LVU733
 3141              		@ sp needed
 3142 000c 07BD     		pop	{r0, r1, r2, pc}
 3143              		.cfi_endproc
 3144              	.LFE331:
 3146              		.section	.text.rgblight_setrgb_master,"ax",%progbits
 3147              		.align	1
 3148              		.global	rgblight_setrgb_master
 3149              		.syntax unified
 3150              		.code	16
 3151              		.thumb_func
 3152              		.fpu softvfp
 3154              	rgblight_setrgb_master:
 3155              	.LVL185:
 3156              	.LFB328:
 608:quantum/rgblight.c **** 
 3157              		.loc 1 608 62 is_stmt 1 view -0
 3158              		.cfi_startproc
 3159              		@ args = 0, pretend = 0, frame = 0
 3160              		@ frame_needed = 0, uses_anonymous_args = 0
 608:quantum/rgblight.c **** 
 3161              		.loc 1 608 64 view .LVU735
 3162 0000 0723     		movs	r3, #7
 608:quantum/rgblight.c **** 
 3163              		.loc 1 608 62 is_stmt 0 view .LVU736
 3164 0002 07B5     		push	{r0, r1, r2, lr}
 3165              		.cfi_def_cfa_offset 16
 3166              		.cfi_offset 0, -16
 3167              		.cfi_offset 1, -12
 3168              		.cfi_offset 2, -8
 3169              		.cfi_offset 14, -4
 608:quantum/rgblight.c **** 
 3170              		.loc 1 608 64 view .LVU737
 3171 0004 0093     		str	r3, [sp]
 3172 0006 0023     		movs	r3, #0
 3173 0008 FFF7FEFF 		bl	rgblight_setrgb_range
 3174              	.LVL186:
 608:quantum/rgblight.c **** 
 3175              		.loc 1 608 1 view .LVU738
 3176              		@ sp needed
 3177 000c 07BD     		pop	{r0, r1, r2, pc}
 3178              		.cfi_endproc
 3179              	.LFE328:
 3181              		.section	.text.rgblight_setrgb_slave,"ax",%progbits
 3182              		.align	1
 3183              		.global	rgblight_setrgb_slave
 3184              		.syntax unified
 3185              		.code	16
 3186              		.thumb_func
 3187              		.fpu softvfp
 3189              	rgblight_setrgb_slave:
 3190              	.LVL187:
 3191              	.LFB329:
 610:quantum/rgblight.c **** 
 3192              		.loc 1 610 61 is_stmt 1 view -0
 3193              		.cfi_startproc
 3194              		@ args = 0, pretend = 0, frame = 0
 3195              		@ frame_needed = 0, uses_anonymous_args = 0
 610:quantum/rgblight.c **** 
 3196              		.loc 1 610 63 view .LVU740
 3197 0000 0E23     		movs	r3, #14
 610:quantum/rgblight.c **** 
 3198              		.loc 1 610 61 is_stmt 0 view .LVU741
 3199 0002 07B5     		push	{r0, r1, r2, lr}
 3200              		.cfi_def_cfa_offset 16
 3201              		.cfi_offset 0, -16
 3202              		.cfi_offset 1, -12
 3203              		.cfi_offset 2, -8
 3204              		.cfi_offset 14, -4
 610:quantum/rgblight.c **** 
 3205              		.loc 1 610 63 view .LVU742
 3206 0004 0093     		str	r3, [sp]
 3207 0006 073B     		subs	r3, r3, #7
 3208 0008 FFF7FEFF 		bl	rgblight_setrgb_range
 3209              	.LVL188:
 610:quantum/rgblight.c **** 
 3210              		.loc 1 610 1 view .LVU743
 3211              		@ sp needed
 3212 000c 07BD     		pop	{r0, r1, r2, pc}
 3213              		.cfi_endproc
 3214              	.LFE329:
 3216              		.section	.text.rgblight_effect_rainbow_swirl,"ax",%progbits
 3217              		.align	1
 3218              		.global	rgblight_effect_rainbow_swirl
 3219              		.syntax unified
 3220              		.code	16
 3221              		.thumb_func
 3222              		.fpu softvfp
 3224              	rgblight_effect_rainbow_swirl:
 3225              	.LVL189:
 3226              	.LFB342:
 960:quantum/rgblight.c ****     uint8_t hue;
 3227              		.loc 1 960 62 is_stmt 1 view -0
 3228              		.cfi_startproc
 3229              		@ args = 0, pretend = 0, frame = 8
 3230              		@ frame_needed = 0, uses_anonymous_args = 0
 961:quantum/rgblight.c ****     uint8_t i;
 3231              		.loc 1 961 5 view .LVU745
 962:quantum/rgblight.c **** 
 3232              		.loc 1 962 5 view .LVU746
 964:quantum/rgblight.c ****         hue = (RGBLIGHT_RAINBOW_SWIRL_RANGE / effect_num_leds * i + anim->current_hue);
 3233              		.loc 1 964 5 view .LVU747
 960:quantum/rgblight.c ****     uint8_t hue;
 3234              		.loc 1 960 62 is_stmt 0 view .LVU748
 3235 0000 F7B5     		push	{r0, r1, r2, r4, r5, r6, r7, lr}
 3236              		.cfi_def_cfa_offset 32
 3237              		.cfi_offset 0, -32
 3238              		.cfi_offset 1, -28
 3239              		.cfi_offset 2, -24
 3240              		.cfi_offset 4, -20
 3241              		.cfi_offset 5, -16
 3242              		.cfi_offset 6, -12
 3243              		.cfi_offset 7, -8
 3244              		.cfi_offset 14, -4
 960:quantum/rgblight.c ****     uint8_t hue;
 3245              		.loc 1 960 62 view .LVU749
 3246 0002 0500     		movs	r5, r0
 964:quantum/rgblight.c ****         hue = (RGBLIGHT_RAINBOW_SWIRL_RANGE / effect_num_leds * i + anim->current_hue);
 3247              		.loc 1 964 12 view .LVU750
 3248 0004 0024     		movs	r4, #0
 3249              	.LVL190:
 3250              	.L238:
 964:quantum/rgblight.c ****         hue = (RGBLIGHT_RAINBOW_SWIRL_RANGE / effect_num_leds * i + anim->current_hue);
 3251              		.loc 1 964 19 discriminator 1 view .LVU751
 3252 0006 154B     		ldr	r3, .L243
 3253 0008 1978     		ldrb	r1, [r3]
 964:quantum/rgblight.c ****         hue = (RGBLIGHT_RAINBOW_SWIRL_RANGE / effect_num_leds * i + anim->current_hue);
 3254              		.loc 1 964 5 discriminator 1 view .LVU752
 3255 000a A142     		cmp	r1, r4
 3256 000c 09D8     		bhi	.L239
 968:quantum/rgblight.c **** 
 3257              		.loc 1 968 5 is_stmt 1 view .LVU753
 3258 000e FFF7FEFF 		bl	rgblight_set
 3259              	.LVL191:
 970:quantum/rgblight.c ****         anim->current_hue++;
 3260              		.loc 1 970 5 view .LVU754
 970:quantum/rgblight.c ****         anim->current_hue++;
 3261              		.loc 1 970 9 is_stmt 0 view .LVU755
 3262 0012 AA78     		ldrb	r2, [r5, #2]
 3263 0014 2B79     		ldrb	r3, [r5, #4]
 970:quantum/rgblight.c ****         anim->current_hue++;
 3264              		.loc 1 970 8 view .LVU756
 3265 0016 D207     		lsls	r2, r2, #31
 3266 0018 1DD5     		bpl	.L240
 971:quantum/rgblight.c ****     } else {
 3267              		.loc 1 971 9 is_stmt 1 view .LVU757
 971:quantum/rgblight.c ****     } else {
 3268              		.loc 1 971 26 is_stmt 0 view .LVU758
 3269 001a 0133     		adds	r3, r3, #1
 3270              	.L242:
 973:quantum/rgblight.c ****     }
 3271              		.loc 1 973 26 view .LVU759
 3272 001c 5BB2     		sxtb	r3, r3
 3273 001e 2B71     		strb	r3, [r5, #4]
 975:quantum/rgblight.c **** #endif
 3274              		.loc 1 975 1 view .LVU760
 3275              		@ sp needed
 3276              	.LVL192:
 3277              	.LVL193:
 975:quantum/rgblight.c **** #endif
 3278              		.loc 1 975 1 view .LVU761
 3279 0020 F7BD     		pop	{r0, r1, r2, r4, r5, r6, r7, pc}
 3280              	.LVL194:
 3281              	.L239:
 965:quantum/rgblight.c ****         sethsv(hue, rgblight_config.sat, rgblight_config.val, (LED_TYPE *)&led[i + effect_start_pos
 3282              		.loc 1 965 9 is_stmt 1 discriminator 3 view .LVU762
 966:quantum/rgblight.c ****     }
 3283              		.loc 1 966 9 discriminator 3 view .LVU763
 3284              	.LBB164:
 3285              	.LBI164:
 135:quantum/rgblight.c **** 
 3286              		.loc 1 135 6 discriminator 3 view .LVU764
 3287              	.LBB165:
 135:quantum/rgblight.c **** 
 3288              		.loc 1 135 70 discriminator 3 view .LVU765
 3289              	.LBE165:
 3290              	.LBE164:
 966:quantum/rgblight.c ****     }
 3291              		.loc 1 966 82 is_stmt 0 discriminator 3 view .LVU766
 3292 0022 0F4B     		ldr	r3, .L243+4
 965:quantum/rgblight.c ****         sethsv(hue, rgblight_config.sat, rgblight_config.val, (LED_TYPE *)&led[i + effect_start_pos
 3293              		.loc 1 965 45 discriminator 3 view .LVU767
 3294 0024 FF20     		movs	r0, #255
 966:quantum/rgblight.c ****     }
 3295              		.loc 1 966 82 discriminator 3 view .LVU768
 3296 0026 1E78     		ldrb	r6, [r3]
 966:quantum/rgblight.c ****     }
 3297              		.loc 1 966 9 discriminator 3 view .LVU769
 3298 0028 0323     		movs	r3, #3
 966:quantum/rgblight.c ****     }
 3299              		.loc 1 966 82 discriminator 3 view .LVU770
 3300 002a 3619     		adds	r6, r6, r4
