   1              		.cpu cortex-m0
   2              		.eabi_attribute 20, 1
   3              		.eabi_attribute 21, 1
   4              		.eabi_attribute 23, 3
   5              		.eabi_attribute 24, 1
   6              		.eabi_attribute 25, 1
   7              		.eabi_attribute 26, 1
   8              		.eabi_attribute 30, 4
   9              		.eabi_attribute 34, 0
  10              		.eabi_attribute 18, 2
  11              		.file	"usb_main.c"
  12              		.text
  13              	.Ltext0:
  14              		.cfi_sections	.debug_frame
  15              		.section	.text.kbd_in_cb,"ax",%progbits
  16              		.align	1
  17              		.global	kbd_in_cb
  18              		.arch armv6s-m
  19              		.syntax unified
  20              		.code	16
  21              		.thumb_func
  22              		.fpu softvfp
  24              	kbd_in_cb:
  25              	.LVL0:
  26              	.LFB195:
  27              		.file 1 "tmk_core/protocol/chibios/usb_main.c"
   1:tmk_core/protocol/chibios/usb_main.c **** /*
   2:tmk_core/protocol/chibios/usb_main.c ****  * (c) 2015 flabberast <s3+flabbergast@sdfeu.org>
   3:tmk_core/protocol/chibios/usb_main.c ****  *
   4:tmk_core/protocol/chibios/usb_main.c ****  * Based on the following work:
   5:tmk_core/protocol/chibios/usb_main.c ****  *  - Guillaume Duc's raw hid example (MIT License)
   6:tmk_core/protocol/chibios/usb_main.c ****  *    https://github.com/guiduc/usb-hid-chibios-example
   7:tmk_core/protocol/chibios/usb_main.c ****  *  - PJRC Teensy examples (MIT License)
   8:tmk_core/protocol/chibios/usb_main.c ****  *    https://www.pjrc.com/teensy/usb_keyboard.html
   9:tmk_core/protocol/chibios/usb_main.c ****  *  - hasu's TMK keyboard code (GPL v2 and some code Modified BSD)
  10:tmk_core/protocol/chibios/usb_main.c ****  *    https://github.com/tmk/tmk_keyboard/
  11:tmk_core/protocol/chibios/usb_main.c ****  *  - ChibiOS demo code (Apache 2.0 License)
  12:tmk_core/protocol/chibios/usb_main.c ****  *    http://www.chibios.org
  13:tmk_core/protocol/chibios/usb_main.c ****  *
  14:tmk_core/protocol/chibios/usb_main.c ****  * Since some GPL'd code is used, this work is licensed under
  15:tmk_core/protocol/chibios/usb_main.c ****  * GPL v2 or later.
  16:tmk_core/protocol/chibios/usb_main.c ****  */
  17:tmk_core/protocol/chibios/usb_main.c **** 
  18:tmk_core/protocol/chibios/usb_main.c **** /*
  19:tmk_core/protocol/chibios/usb_main.c ****  * Implementation notes:
  20:tmk_core/protocol/chibios/usb_main.c ****  *
  21:tmk_core/protocol/chibios/usb_main.c ****  * USBEndpointConfig - Configured using explicit order instead of struct member name.
  22:tmk_core/protocol/chibios/usb_main.c ****  *   This is due to ChibiOS hal LLD differences, which is dependent on hardware,
  23:tmk_core/protocol/chibios/usb_main.c ****  *   "USBv1" devices have `ep_buffers` and "OTGv1" have `in_multiplier`.
  24:tmk_core/protocol/chibios/usb_main.c ****  *   Given `USBv1/hal_usb_lld.h` marks the field as "not currently used" this code file
  25:tmk_core/protocol/chibios/usb_main.c ****  *   makes the assumption this is safe to avoid littering with preprocessor directives.
  26:tmk_core/protocol/chibios/usb_main.c ****  */
  27:tmk_core/protocol/chibios/usb_main.c **** 
  28:tmk_core/protocol/chibios/usb_main.c **** #include "ch.h"
  29:tmk_core/protocol/chibios/usb_main.c **** #include "hal.h"
  30:tmk_core/protocol/chibios/usb_main.c **** 
  31:tmk_core/protocol/chibios/usb_main.c **** #include "usb_main.h"
  32:tmk_core/protocol/chibios/usb_main.c **** 
  33:tmk_core/protocol/chibios/usb_main.c **** #include "host.h"
  34:tmk_core/protocol/chibios/usb_main.c **** #include "debug.h"
  35:tmk_core/protocol/chibios/usb_main.c **** #include "suspend.h"
  36:tmk_core/protocol/chibios/usb_main.c **** #ifdef SLEEP_LED_ENABLE
  37:tmk_core/protocol/chibios/usb_main.c **** #    include "sleep_led.h"
  38:tmk_core/protocol/chibios/usb_main.c **** #    include "led.h"
  39:tmk_core/protocol/chibios/usb_main.c **** #endif
  40:tmk_core/protocol/chibios/usb_main.c **** #include "wait.h"
  41:tmk_core/protocol/chibios/usb_main.c **** #include "usb_descriptor.h"
  42:tmk_core/protocol/chibios/usb_main.c **** #include "usb_driver.h"
  43:tmk_core/protocol/chibios/usb_main.c **** 
  44:tmk_core/protocol/chibios/usb_main.c **** #ifdef NKRO_ENABLE
  45:tmk_core/protocol/chibios/usb_main.c **** #    include "keycode_config.h"
  46:tmk_core/protocol/chibios/usb_main.c **** 
  47:tmk_core/protocol/chibios/usb_main.c **** extern keymap_config_t keymap_config;
  48:tmk_core/protocol/chibios/usb_main.c **** #endif
  49:tmk_core/protocol/chibios/usb_main.c **** 
  50:tmk_core/protocol/chibios/usb_main.c **** /* ---------------------------------------------------------
  51:tmk_core/protocol/chibios/usb_main.c ****  *       Global interface variables and declarations
  52:tmk_core/protocol/chibios/usb_main.c ****  * ---------------------------------------------------------
  53:tmk_core/protocol/chibios/usb_main.c ****  */
  54:tmk_core/protocol/chibios/usb_main.c **** 
  55:tmk_core/protocol/chibios/usb_main.c **** #ifndef usb_lld_connect_bus
  56:tmk_core/protocol/chibios/usb_main.c **** #    define usb_lld_connect_bus(usbp)
  57:tmk_core/protocol/chibios/usb_main.c **** #endif
  58:tmk_core/protocol/chibios/usb_main.c **** 
  59:tmk_core/protocol/chibios/usb_main.c **** #ifndef usb_lld_disconnect_bus
  60:tmk_core/protocol/chibios/usb_main.c **** #    define usb_lld_disconnect_bus(usbp)
  61:tmk_core/protocol/chibios/usb_main.c **** #endif
  62:tmk_core/protocol/chibios/usb_main.c **** 
  63:tmk_core/protocol/chibios/usb_main.c **** uint8_t                keyboard_idle __attribute__((aligned(2)))     = 0;
  64:tmk_core/protocol/chibios/usb_main.c **** uint8_t                keyboard_protocol __attribute__((aligned(2))) = 1;
  65:tmk_core/protocol/chibios/usb_main.c **** uint8_t                keyboard_led_stats                            = 0;
  66:tmk_core/protocol/chibios/usb_main.c **** volatile uint16_t      keyboard_idle_count                           = 0;
  67:tmk_core/protocol/chibios/usb_main.c **** static virtual_timer_t keyboard_idle_timer;
  68:tmk_core/protocol/chibios/usb_main.c **** static void            keyboard_idle_timer_cb(void *arg);
  69:tmk_core/protocol/chibios/usb_main.c **** 
  70:tmk_core/protocol/chibios/usb_main.c **** report_keyboard_t keyboard_report_sent = {{0}};
  71:tmk_core/protocol/chibios/usb_main.c **** #ifdef MOUSE_ENABLE
  72:tmk_core/protocol/chibios/usb_main.c **** report_mouse_t mouse_report_blank = {0};
  73:tmk_core/protocol/chibios/usb_main.c **** #endif /* MOUSE_ENABLE */
  74:tmk_core/protocol/chibios/usb_main.c **** #ifdef EXTRAKEY_ENABLE
  75:tmk_core/protocol/chibios/usb_main.c **** uint8_t extra_report_blank[3] = {0};
  76:tmk_core/protocol/chibios/usb_main.c **** #endif /* EXTRAKEY_ENABLE */
  77:tmk_core/protocol/chibios/usb_main.c **** 
  78:tmk_core/protocol/chibios/usb_main.c **** /* ---------------------------------------------------------
  79:tmk_core/protocol/chibios/usb_main.c ****  *            Descriptors and USB driver objects
  80:tmk_core/protocol/chibios/usb_main.c ****  * ---------------------------------------------------------
  81:tmk_core/protocol/chibios/usb_main.c ****  */
  82:tmk_core/protocol/chibios/usb_main.c **** 
  83:tmk_core/protocol/chibios/usb_main.c **** /* HID specific constants */
  84:tmk_core/protocol/chibios/usb_main.c **** #define HID_GET_REPORT 0x01
  85:tmk_core/protocol/chibios/usb_main.c **** #define HID_GET_IDLE 0x02
  86:tmk_core/protocol/chibios/usb_main.c **** #define HID_GET_PROTOCOL 0x03
  87:tmk_core/protocol/chibios/usb_main.c **** #define HID_SET_REPORT 0x09
  88:tmk_core/protocol/chibios/usb_main.c **** #define HID_SET_IDLE 0x0A
  89:tmk_core/protocol/chibios/usb_main.c **** #define HID_SET_PROTOCOL 0x0B
  90:tmk_core/protocol/chibios/usb_main.c **** 
  91:tmk_core/protocol/chibios/usb_main.c **** /*
  92:tmk_core/protocol/chibios/usb_main.c ****  * Handles the GET_DESCRIPTOR callback
  93:tmk_core/protocol/chibios/usb_main.c ****  *
  94:tmk_core/protocol/chibios/usb_main.c ****  * Returns the proper descriptor
  95:tmk_core/protocol/chibios/usb_main.c ****  */
  96:tmk_core/protocol/chibios/usb_main.c **** static const USBDescriptor *usb_get_descriptor_cb(USBDriver *usbp, uint8_t dtype, uint8_t dindex, u
  97:tmk_core/protocol/chibios/usb_main.c ****     (void)usbp;
  98:tmk_core/protocol/chibios/usb_main.c ****     static USBDescriptor desc;
  99:tmk_core/protocol/chibios/usb_main.c ****     uint16_t             wValue = ((uint16_t)dtype << 8) | dindex;
 100:tmk_core/protocol/chibios/usb_main.c ****     desc.ud_string              = NULL;
 101:tmk_core/protocol/chibios/usb_main.c ****     desc.ud_size                = get_usb_descriptor(wValue, wIndex, (const void **const) & desc.ud
 102:tmk_core/protocol/chibios/usb_main.c ****     if (desc.ud_string == NULL)
 103:tmk_core/protocol/chibios/usb_main.c ****         return NULL;
 104:tmk_core/protocol/chibios/usb_main.c ****     else
 105:tmk_core/protocol/chibios/usb_main.c ****         return &desc;
 106:tmk_core/protocol/chibios/usb_main.c **** }
 107:tmk_core/protocol/chibios/usb_main.c **** 
 108:tmk_core/protocol/chibios/usb_main.c **** #ifndef KEYBOARD_SHARED_EP
 109:tmk_core/protocol/chibios/usb_main.c **** /* keyboard endpoint state structure */
 110:tmk_core/protocol/chibios/usb_main.c **** static USBInEndpointState kbd_ep_state;
 111:tmk_core/protocol/chibios/usb_main.c **** /* keyboard endpoint initialization structure (IN) - see USBEndpointConfig comment at top of file *
 112:tmk_core/protocol/chibios/usb_main.c **** static const USBEndpointConfig kbd_ep_config = {
 113:tmk_core/protocol/chibios/usb_main.c ****     USB_EP_MODE_TYPE_INTR, /* Interrupt EP */
 114:tmk_core/protocol/chibios/usb_main.c ****     NULL,                  /* SETUP packet notification callback */
 115:tmk_core/protocol/chibios/usb_main.c ****     kbd_in_cb,             /* IN notification callback */
 116:tmk_core/protocol/chibios/usb_main.c ****     NULL,                  /* OUT notification callback */
 117:tmk_core/protocol/chibios/usb_main.c ****     KEYBOARD_EPSIZE,       /* IN maximum packet size */
 118:tmk_core/protocol/chibios/usb_main.c ****     0,                     /* OUT maximum packet size */
 119:tmk_core/protocol/chibios/usb_main.c ****     &kbd_ep_state,         /* IN Endpoint state */
 120:tmk_core/protocol/chibios/usb_main.c ****     NULL,                  /* OUT endpoint state */
 121:tmk_core/protocol/chibios/usb_main.c ****     2,                     /* IN multiplier */
 122:tmk_core/protocol/chibios/usb_main.c ****     NULL                   /* SETUP buffer (not a SETUP endpoint) */
 123:tmk_core/protocol/chibios/usb_main.c **** };
 124:tmk_core/protocol/chibios/usb_main.c **** #endif
 125:tmk_core/protocol/chibios/usb_main.c **** 
 126:tmk_core/protocol/chibios/usb_main.c **** #if defined(MOUSE_ENABLE) && !defined(MOUSE_SHARED_EP)
 127:tmk_core/protocol/chibios/usb_main.c **** /* mouse endpoint state structure */
 128:tmk_core/protocol/chibios/usb_main.c **** static USBInEndpointState mouse_ep_state;
 129:tmk_core/protocol/chibios/usb_main.c **** 
 130:tmk_core/protocol/chibios/usb_main.c **** /* mouse endpoint initialization structure (IN) - see USBEndpointConfig comment at top of file */
 131:tmk_core/protocol/chibios/usb_main.c **** static const USBEndpointConfig mouse_ep_config = {
 132:tmk_core/protocol/chibios/usb_main.c ****     USB_EP_MODE_TYPE_INTR, /* Interrupt EP */
 133:tmk_core/protocol/chibios/usb_main.c ****     NULL,                  /* SETUP packet notification callback */
 134:tmk_core/protocol/chibios/usb_main.c ****     mouse_in_cb,           /* IN notification callback */
 135:tmk_core/protocol/chibios/usb_main.c ****     NULL,                  /* OUT notification callback */
 136:tmk_core/protocol/chibios/usb_main.c ****     MOUSE_EPSIZE,          /* IN maximum packet size */
 137:tmk_core/protocol/chibios/usb_main.c ****     0,                     /* OUT maximum packet size */
 138:tmk_core/protocol/chibios/usb_main.c ****     &mouse_ep_state,       /* IN Endpoint state */
 139:tmk_core/protocol/chibios/usb_main.c ****     NULL,                  /* OUT endpoint state */
 140:tmk_core/protocol/chibios/usb_main.c ****     2,                     /* IN multiplier */
 141:tmk_core/protocol/chibios/usb_main.c ****     NULL                   /* SETUP buffer (not a SETUP endpoint) */
 142:tmk_core/protocol/chibios/usb_main.c **** };
 143:tmk_core/protocol/chibios/usb_main.c **** #endif
 144:tmk_core/protocol/chibios/usb_main.c **** 
 145:tmk_core/protocol/chibios/usb_main.c **** #ifdef SHARED_EP_ENABLE
 146:tmk_core/protocol/chibios/usb_main.c **** /* shared endpoint state structure */
 147:tmk_core/protocol/chibios/usb_main.c **** static USBInEndpointState shared_ep_state;
 148:tmk_core/protocol/chibios/usb_main.c **** 
 149:tmk_core/protocol/chibios/usb_main.c **** /* shared endpoint initialization structure (IN) - see USBEndpointConfig comment at top of file */
 150:tmk_core/protocol/chibios/usb_main.c **** static const USBEndpointConfig shared_ep_config = {
 151:tmk_core/protocol/chibios/usb_main.c ****     USB_EP_MODE_TYPE_INTR, /* Interrupt EP */
 152:tmk_core/protocol/chibios/usb_main.c ****     NULL,                  /* SETUP packet notification callback */
 153:tmk_core/protocol/chibios/usb_main.c ****     shared_in_cb,          /* IN notification callback */
 154:tmk_core/protocol/chibios/usb_main.c ****     NULL,                  /* OUT notification callback */
 155:tmk_core/protocol/chibios/usb_main.c ****     SHARED_EPSIZE,         /* IN maximum packet size */
 156:tmk_core/protocol/chibios/usb_main.c ****     0,                     /* OUT maximum packet size */
 157:tmk_core/protocol/chibios/usb_main.c ****     &shared_ep_state,      /* IN Endpoint state */
 158:tmk_core/protocol/chibios/usb_main.c ****     NULL,                  /* OUT endpoint state */
 159:tmk_core/protocol/chibios/usb_main.c ****     2,                     /* IN multiplier */
 160:tmk_core/protocol/chibios/usb_main.c ****     NULL                   /* SETUP buffer (not a SETUP endpoint) */
 161:tmk_core/protocol/chibios/usb_main.c **** };
 162:tmk_core/protocol/chibios/usb_main.c **** #endif
 163:tmk_core/protocol/chibios/usb_main.c **** 
 164:tmk_core/protocol/chibios/usb_main.c **** typedef struct {
 165:tmk_core/protocol/chibios/usb_main.c ****     size_t              queue_capacity_in;
 166:tmk_core/protocol/chibios/usb_main.c ****     size_t              queue_capacity_out;
 167:tmk_core/protocol/chibios/usb_main.c ****     USBInEndpointState  in_ep_state;
 168:tmk_core/protocol/chibios/usb_main.c ****     USBOutEndpointState out_ep_state;
 169:tmk_core/protocol/chibios/usb_main.c ****     USBInEndpointState  int_ep_state;
 170:tmk_core/protocol/chibios/usb_main.c ****     USBEndpointConfig   in_ep_config;
 171:tmk_core/protocol/chibios/usb_main.c ****     USBEndpointConfig   out_ep_config;
 172:tmk_core/protocol/chibios/usb_main.c ****     USBEndpointConfig   int_ep_config;
 173:tmk_core/protocol/chibios/usb_main.c ****     const QMKUSBConfig  config;
 174:tmk_core/protocol/chibios/usb_main.c ****     QMKUSBDriver        driver;
 175:tmk_core/protocol/chibios/usb_main.c **** } usb_driver_config_t;
 176:tmk_core/protocol/chibios/usb_main.c **** 
 177:tmk_core/protocol/chibios/usb_main.c **** /* Reusable initialization structure - see USBEndpointConfig comment at top of file */
 178:tmk_core/protocol/chibios/usb_main.c **** #define QMK_USB_DRIVER_CONFIG(stream, notification, fixedsize)                                     
 179:tmk_core/protocol/chibios/usb_main.c ****     {                                                                                              
 180:tmk_core/protocol/chibios/usb_main.c ****         .queue_capacity_in = stream##_IN_CAPACITY, .queue_capacity_out = stream##_OUT_CAPACITY,    
 181:tmk_core/protocol/chibios/usb_main.c ****         .in_ep_config =                                                                            
 182:tmk_core/protocol/chibios/usb_main.c ****             {                                                                                      
 183:tmk_core/protocol/chibios/usb_main.c ****                 stream##_IN_MODE,      /* Interrupt EP */                                          
 184:tmk_core/protocol/chibios/usb_main.c ****                 NULL,                  /* SETUP packet notification callback */                    
 185:tmk_core/protocol/chibios/usb_main.c ****                 qmkusbDataTransmitted, /* IN notification callback */                              
 186:tmk_core/protocol/chibios/usb_main.c ****                 NULL,                  /* OUT notification callback */                             
 187:tmk_core/protocol/chibios/usb_main.c ****                 stream##_EPSIZE,       /* IN maximum packet size */                                
 188:tmk_core/protocol/chibios/usb_main.c ****                 0,                     /* OUT maximum packet size */                               
 189:tmk_core/protocol/chibios/usb_main.c ****                 NULL,                  /* IN Endpoint state */                                     
 190:tmk_core/protocol/chibios/usb_main.c ****                 NULL,                  /* OUT endpoint state */                                    
 191:tmk_core/protocol/chibios/usb_main.c ****                 2,                     /* IN multiplier */                                         
 192:tmk_core/protocol/chibios/usb_main.c ****                 NULL                   /* SETUP buffer (not a SETUP endpoint) */                   
 193:tmk_core/protocol/chibios/usb_main.c ****             },                                                                                     
 194:tmk_core/protocol/chibios/usb_main.c ****         .out_ep_config =                                                                           
 195:tmk_core/protocol/chibios/usb_main.c ****             {                                                                                      
 196:tmk_core/protocol/chibios/usb_main.c ****                 stream##_OUT_MODE,  /* Interrupt EP */                                             
 197:tmk_core/protocol/chibios/usb_main.c ****                 NULL,               /* SETUP packet notification callback */                       
 198:tmk_core/protocol/chibios/usb_main.c ****                 NULL,               /* IN notification callback */                                 
 199:tmk_core/protocol/chibios/usb_main.c ****                 qmkusbDataReceived, /* OUT notification callback */                                
 200:tmk_core/protocol/chibios/usb_main.c ****                 0,                  /* IN maximum packet size */                                   
 201:tmk_core/protocol/chibios/usb_main.c ****                 stream##_EPSIZE,    /* OUT maximum packet size */                                  
 202:tmk_core/protocol/chibios/usb_main.c ****                 NULL,               /* IN Endpoint state */                                        
 203:tmk_core/protocol/chibios/usb_main.c ****                 NULL,               /* OUT endpoint state */                                       
 204:tmk_core/protocol/chibios/usb_main.c ****                 2,                  /* IN multiplier */                                            
 205:tmk_core/protocol/chibios/usb_main.c ****                 NULL,               /* SETUP buffer (not a SETUP endpoint) */                      
 206:tmk_core/protocol/chibios/usb_main.c ****             },                                                                                     
 207:tmk_core/protocol/chibios/usb_main.c ****         .int_ep_config =                                                                           
 208:tmk_core/protocol/chibios/usb_main.c ****             {                                                                                      
 209:tmk_core/protocol/chibios/usb_main.c ****                 USB_EP_MODE_TYPE_INTR,      /* Interrupt EP */                                     
 210:tmk_core/protocol/chibios/usb_main.c ****                 NULL,                       /* SETUP packet notification callback */               
 211:tmk_core/protocol/chibios/usb_main.c ****                 qmkusbInterruptTransmitted, /* IN notification callback */                         
 212:tmk_core/protocol/chibios/usb_main.c ****                 NULL,                       /* OUT notification callback */                        
 213:tmk_core/protocol/chibios/usb_main.c ****                 CDC_NOTIFICATION_EPSIZE,    /* IN maximum packet size */                           
 214:tmk_core/protocol/chibios/usb_main.c ****                 0,                          /* OUT maximum packet size */                          
 215:tmk_core/protocol/chibios/usb_main.c ****                 NULL,                       /* IN Endpoint state */                                
 216:tmk_core/protocol/chibios/usb_main.c ****                 NULL,                       /* OUT endpoint state */                               
 217:tmk_core/protocol/chibios/usb_main.c ****                 2,                          /* IN multiplier */                                    
 218:tmk_core/protocol/chibios/usb_main.c ****                 NULL,                       /* SETUP buffer (not a SETUP endpoint) */              
 219:tmk_core/protocol/chibios/usb_main.c ****             },                                                                                     
 220:tmk_core/protocol/chibios/usb_main.c ****         .config = {                                                                                
 221:tmk_core/protocol/chibios/usb_main.c ****             .usbp        = &USB_DRIVER,                                                            
 222:tmk_core/protocol/chibios/usb_main.c ****             .bulk_in     = stream##_IN_EPNUM,                                                      
 223:tmk_core/protocol/chibios/usb_main.c ****             .bulk_out    = stream##_OUT_EPNUM,                                                     
 224:tmk_core/protocol/chibios/usb_main.c ****             .int_in      = notification,                                                           
 225:tmk_core/protocol/chibios/usb_main.c ****             .in_buffers  = stream##_IN_CAPACITY,                                                   
 226:tmk_core/protocol/chibios/usb_main.c ****             .out_buffers = stream##_OUT_CAPACITY,                                                  
 227:tmk_core/protocol/chibios/usb_main.c ****             .in_size     = stream##_EPSIZE,                                                        
 228:tmk_core/protocol/chibios/usb_main.c ****             .out_size    = stream##_EPSIZE,                                                        
 229:tmk_core/protocol/chibios/usb_main.c ****             .fixed_size  = fixedsize,                                                              
 230:tmk_core/protocol/chibios/usb_main.c ****             .ib          = (__attribute__((aligned(4))) uint8_t[BQ_BUFFER_SIZE(stream##_IN_CAPACITY
 231:tmk_core/protocol/chibios/usb_main.c ****             .ob          = (__attribute__((aligned(4))) uint8_t[BQ_BUFFER_SIZE(stream##_OUT_CAPACIT
 232:tmk_core/protocol/chibios/usb_main.c ****         }                                                                                          
 233:tmk_core/protocol/chibios/usb_main.c ****     }
 234:tmk_core/protocol/chibios/usb_main.c **** 
 235:tmk_core/protocol/chibios/usb_main.c **** typedef struct {
 236:tmk_core/protocol/chibios/usb_main.c ****     union {
 237:tmk_core/protocol/chibios/usb_main.c ****         struct {
 238:tmk_core/protocol/chibios/usb_main.c **** #ifdef CONSOLE_ENABLE
 239:tmk_core/protocol/chibios/usb_main.c ****             usb_driver_config_t console_driver;
 240:tmk_core/protocol/chibios/usb_main.c **** #endif
 241:tmk_core/protocol/chibios/usb_main.c **** #ifdef RAW_ENABLE
 242:tmk_core/protocol/chibios/usb_main.c ****             usb_driver_config_t raw_driver;
 243:tmk_core/protocol/chibios/usb_main.c **** #endif
 244:tmk_core/protocol/chibios/usb_main.c **** #ifdef MIDI_ENABLE
 245:tmk_core/protocol/chibios/usb_main.c ****             usb_driver_config_t midi_driver;
 246:tmk_core/protocol/chibios/usb_main.c **** #endif
 247:tmk_core/protocol/chibios/usb_main.c **** #ifdef VIRTSER_ENABLE
 248:tmk_core/protocol/chibios/usb_main.c ****             usb_driver_config_t serial_driver;
 249:tmk_core/protocol/chibios/usb_main.c **** #endif
 250:tmk_core/protocol/chibios/usb_main.c ****         };
 251:tmk_core/protocol/chibios/usb_main.c ****         usb_driver_config_t array[0];
 252:tmk_core/protocol/chibios/usb_main.c ****     };
 253:tmk_core/protocol/chibios/usb_main.c **** } usb_driver_configs_t;
 254:tmk_core/protocol/chibios/usb_main.c **** 
 255:tmk_core/protocol/chibios/usb_main.c **** static usb_driver_configs_t drivers = {
 256:tmk_core/protocol/chibios/usb_main.c **** #ifdef CONSOLE_ENABLE
 257:tmk_core/protocol/chibios/usb_main.c **** #    define CONSOLE_IN_CAPACITY 4
 258:tmk_core/protocol/chibios/usb_main.c **** #    define CONSOLE_OUT_CAPACITY 4
 259:tmk_core/protocol/chibios/usb_main.c **** #    define CONSOLE_IN_MODE USB_EP_MODE_TYPE_INTR
 260:tmk_core/protocol/chibios/usb_main.c **** #    define CONSOLE_OUT_MODE USB_EP_MODE_TYPE_INTR
 261:tmk_core/protocol/chibios/usb_main.c ****     .console_driver = QMK_USB_DRIVER_CONFIG(CONSOLE, 0, true),
 262:tmk_core/protocol/chibios/usb_main.c **** #endif
 263:tmk_core/protocol/chibios/usb_main.c **** #ifdef RAW_ENABLE
 264:tmk_core/protocol/chibios/usb_main.c **** #    define RAW_IN_CAPACITY 4
 265:tmk_core/protocol/chibios/usb_main.c **** #    define RAW_OUT_CAPACITY 4
 266:tmk_core/protocol/chibios/usb_main.c **** #    define RAW_IN_MODE USB_EP_MODE_TYPE_INTR
 267:tmk_core/protocol/chibios/usb_main.c **** #    define RAW_OUT_MODE USB_EP_MODE_TYPE_INTR
 268:tmk_core/protocol/chibios/usb_main.c ****     .raw_driver = QMK_USB_DRIVER_CONFIG(RAW, 0, false),
 269:tmk_core/protocol/chibios/usb_main.c **** #endif
 270:tmk_core/protocol/chibios/usb_main.c **** 
 271:tmk_core/protocol/chibios/usb_main.c **** #ifdef MIDI_ENABLE
 272:tmk_core/protocol/chibios/usb_main.c **** #    define MIDI_STREAM_IN_CAPACITY 4
 273:tmk_core/protocol/chibios/usb_main.c **** #    define MIDI_STREAM_OUT_CAPACITY 4
 274:tmk_core/protocol/chibios/usb_main.c **** #    define MIDI_STREAM_IN_MODE USB_EP_MODE_TYPE_BULK
 275:tmk_core/protocol/chibios/usb_main.c **** #    define MIDI_STREAM_OUT_MODE USB_EP_MODE_TYPE_BULK
 276:tmk_core/protocol/chibios/usb_main.c ****     .midi_driver = QMK_USB_DRIVER_CONFIG(MIDI_STREAM, 0, false),
 277:tmk_core/protocol/chibios/usb_main.c **** #endif
 278:tmk_core/protocol/chibios/usb_main.c **** 
 279:tmk_core/protocol/chibios/usb_main.c **** #ifdef VIRTSER_ENABLE
 280:tmk_core/protocol/chibios/usb_main.c **** #    define CDC_IN_CAPACITY 4
 281:tmk_core/protocol/chibios/usb_main.c **** #    define CDC_OUT_CAPACITY 4
 282:tmk_core/protocol/chibios/usb_main.c **** #    define CDC_IN_MODE USB_EP_MODE_TYPE_BULK
 283:tmk_core/protocol/chibios/usb_main.c **** #    define CDC_OUT_MODE USB_EP_MODE_TYPE_BULK
 284:tmk_core/protocol/chibios/usb_main.c ****     .serial_driver = QMK_USB_DRIVER_CONFIG(CDC, CDC_NOTIFICATION_EPNUM, false),
 285:tmk_core/protocol/chibios/usb_main.c **** #endif
 286:tmk_core/protocol/chibios/usb_main.c **** };
 287:tmk_core/protocol/chibios/usb_main.c **** 
 288:tmk_core/protocol/chibios/usb_main.c **** #define NUM_USB_DRIVERS (sizeof(drivers) / sizeof(usb_driver_config_t))
 289:tmk_core/protocol/chibios/usb_main.c **** 
 290:tmk_core/protocol/chibios/usb_main.c **** /* ---------------------------------------------------------
 291:tmk_core/protocol/chibios/usb_main.c ****  *                  USB driver functions
 292:tmk_core/protocol/chibios/usb_main.c ****  * ---------------------------------------------------------
 293:tmk_core/protocol/chibios/usb_main.c ****  */
 294:tmk_core/protocol/chibios/usb_main.c **** 
 295:tmk_core/protocol/chibios/usb_main.c **** /* Handles the USB driver global events
 296:tmk_core/protocol/chibios/usb_main.c ****  * TODO: maybe disable some things when connection is lost? */
 297:tmk_core/protocol/chibios/usb_main.c **** static void usb_event_cb(USBDriver *usbp, usbevent_t event) {
 298:tmk_core/protocol/chibios/usb_main.c ****     switch (event) {
 299:tmk_core/protocol/chibios/usb_main.c ****         case USB_EVENT_ADDRESS:
 300:tmk_core/protocol/chibios/usb_main.c ****             return;
 301:tmk_core/protocol/chibios/usb_main.c **** 
 302:tmk_core/protocol/chibios/usb_main.c ****         case USB_EVENT_CONFIGURED:
 303:tmk_core/protocol/chibios/usb_main.c ****             osalSysLockFromISR();
 304:tmk_core/protocol/chibios/usb_main.c ****             /* Enable the endpoints specified into the configuration. */
 305:tmk_core/protocol/chibios/usb_main.c **** #ifndef KEYBOARD_SHARED_EP
 306:tmk_core/protocol/chibios/usb_main.c ****             usbInitEndpointI(usbp, KEYBOARD_IN_EPNUM, &kbd_ep_config);
 307:tmk_core/protocol/chibios/usb_main.c **** #endif
 308:tmk_core/protocol/chibios/usb_main.c **** #if defined(MOUSE_ENABLE) && !defined(MOUSE_SHARED_EP)
 309:tmk_core/protocol/chibios/usb_main.c ****             usbInitEndpointI(usbp, MOUSE_IN_EPNUM, &mouse_ep_config);
 310:tmk_core/protocol/chibios/usb_main.c **** #endif
 311:tmk_core/protocol/chibios/usb_main.c **** #ifdef SHARED_EP_ENABLE
 312:tmk_core/protocol/chibios/usb_main.c ****             usbInitEndpointI(usbp, SHARED_IN_EPNUM, &shared_ep_config);
 313:tmk_core/protocol/chibios/usb_main.c **** #endif
 314:tmk_core/protocol/chibios/usb_main.c ****             for (int i = 0; i < NUM_USB_DRIVERS; i++) {
 315:tmk_core/protocol/chibios/usb_main.c ****                 usbInitEndpointI(usbp, drivers.array[i].config.bulk_in, &drivers.array[i].in_ep_con
 316:tmk_core/protocol/chibios/usb_main.c ****                 usbInitEndpointI(usbp, drivers.array[i].config.bulk_out, &drivers.array[i].out_ep_c
 317:tmk_core/protocol/chibios/usb_main.c ****                 if (drivers.array[i].config.int_in) {
 318:tmk_core/protocol/chibios/usb_main.c ****                     usbInitEndpointI(usbp, drivers.array[i].config.int_in, &drivers.array[i].int_ep
 319:tmk_core/protocol/chibios/usb_main.c ****                 }
 320:tmk_core/protocol/chibios/usb_main.c ****                 qmkusbConfigureHookI(&drivers.array[i].driver);
 321:tmk_core/protocol/chibios/usb_main.c ****             }
 322:tmk_core/protocol/chibios/usb_main.c ****             osalSysUnlockFromISR();
 323:tmk_core/protocol/chibios/usb_main.c ****             return;
 324:tmk_core/protocol/chibios/usb_main.c ****         case USB_EVENT_SUSPEND:
 325:tmk_core/protocol/chibios/usb_main.c **** #ifdef SLEEP_LED_ENABLE
 326:tmk_core/protocol/chibios/usb_main.c ****             sleep_led_enable();
 327:tmk_core/protocol/chibios/usb_main.c **** #endif /* SLEEP_LED_ENABLE */
 328:tmk_core/protocol/chibios/usb_main.c ****             /* Falls into.*/
 329:tmk_core/protocol/chibios/usb_main.c ****         case USB_EVENT_UNCONFIGURED:
 330:tmk_core/protocol/chibios/usb_main.c ****             /* Falls into.*/
 331:tmk_core/protocol/chibios/usb_main.c ****         case USB_EVENT_RESET:
 332:tmk_core/protocol/chibios/usb_main.c ****             for (int i = 0; i < NUM_USB_DRIVERS; i++) {
 333:tmk_core/protocol/chibios/usb_main.c ****                 chSysLockFromISR();
 334:tmk_core/protocol/chibios/usb_main.c ****                 /* Disconnection event on suspend.*/
 335:tmk_core/protocol/chibios/usb_main.c ****                 qmkusbSuspendHookI(&drivers.array[i].driver);
 336:tmk_core/protocol/chibios/usb_main.c ****                 chSysUnlockFromISR();
 337:tmk_core/protocol/chibios/usb_main.c ****             }
 338:tmk_core/protocol/chibios/usb_main.c ****             return;
 339:tmk_core/protocol/chibios/usb_main.c **** 
 340:tmk_core/protocol/chibios/usb_main.c ****         case USB_EVENT_WAKEUP:
 341:tmk_core/protocol/chibios/usb_main.c ****             // TODO: from ISR! print("[W]");
 342:tmk_core/protocol/chibios/usb_main.c ****             for (int i = 0; i < NUM_USB_DRIVERS; i++) {
 343:tmk_core/protocol/chibios/usb_main.c ****                 chSysLockFromISR();
 344:tmk_core/protocol/chibios/usb_main.c ****                 /* Disconnection event on suspend.*/
 345:tmk_core/protocol/chibios/usb_main.c ****                 qmkusbWakeupHookI(&drivers.array[i].driver);
 346:tmk_core/protocol/chibios/usb_main.c ****                 chSysUnlockFromISR();
 347:tmk_core/protocol/chibios/usb_main.c ****             }
 348:tmk_core/protocol/chibios/usb_main.c ****             suspend_wakeup_init();
 349:tmk_core/protocol/chibios/usb_main.c **** #ifdef SLEEP_LED_ENABLE
 350:tmk_core/protocol/chibios/usb_main.c ****             sleep_led_disable();
 351:tmk_core/protocol/chibios/usb_main.c ****             // NOTE: converters may not accept this
 352:tmk_core/protocol/chibios/usb_main.c ****             led_set(host_keyboard_leds());
 353:tmk_core/protocol/chibios/usb_main.c **** #endif /* SLEEP_LED_ENABLE */
 354:tmk_core/protocol/chibios/usb_main.c ****             return;
 355:tmk_core/protocol/chibios/usb_main.c **** 
 356:tmk_core/protocol/chibios/usb_main.c ****         case USB_EVENT_STALLED:
 357:tmk_core/protocol/chibios/usb_main.c ****             return;
 358:tmk_core/protocol/chibios/usb_main.c ****     }
 359:tmk_core/protocol/chibios/usb_main.c **** }
 360:tmk_core/protocol/chibios/usb_main.c **** 
 361:tmk_core/protocol/chibios/usb_main.c **** /* Function used locally in os/hal/src/usb.c for getting descriptors
 362:tmk_core/protocol/chibios/usb_main.c ****  * need it here for HID descriptor */
 363:tmk_core/protocol/chibios/usb_main.c **** static uint16_t get_hword(uint8_t *p) {
 364:tmk_core/protocol/chibios/usb_main.c ****     uint16_t hw;
 365:tmk_core/protocol/chibios/usb_main.c **** 
 366:tmk_core/protocol/chibios/usb_main.c ****     hw = (uint16_t)*p++;
 367:tmk_core/protocol/chibios/usb_main.c ****     hw |= (uint16_t)*p << 8U;
 368:tmk_core/protocol/chibios/usb_main.c ****     return hw;
 369:tmk_core/protocol/chibios/usb_main.c **** }
 370:tmk_core/protocol/chibios/usb_main.c **** 
 371:tmk_core/protocol/chibios/usb_main.c **** /*
 372:tmk_core/protocol/chibios/usb_main.c ****  * Appendix G: HID Request Support Requirements
 373:tmk_core/protocol/chibios/usb_main.c ****  *
 374:tmk_core/protocol/chibios/usb_main.c ****  * The following table enumerates the requests that need to be supported by various types of HID cl
 375:tmk_core/protocol/chibios/usb_main.c ****  * Device type     GetReport   SetReport   GetIdle     SetIdle     GetProtocol SetProtocol
 376:tmk_core/protocol/chibios/usb_main.c ****  * ------------------------------------------------------------------------------------------
 377:tmk_core/protocol/chibios/usb_main.c ****  * Boot Mouse      Required    Optional    Optional    Optional    Required    Required
 378:tmk_core/protocol/chibios/usb_main.c ****  * Non-Boot Mouse  Required    Optional    Optional    Optional    Optional    Optional
 379:tmk_core/protocol/chibios/usb_main.c ****  * Boot Keyboard   Required    Optional    Required    Required    Required    Required
 380:tmk_core/protocol/chibios/usb_main.c ****  * Non-Boot Keybrd Required    Optional    Required    Required    Optional    Optional
 381:tmk_core/protocol/chibios/usb_main.c ****  * Other Device    Required    Optional    Optional    Optional    Optional    Optional
 382:tmk_core/protocol/chibios/usb_main.c ****  */
 383:tmk_core/protocol/chibios/usb_main.c **** 
 384:tmk_core/protocol/chibios/usb_main.c **** static uint8_t set_report_buf[2] __attribute__((aligned(2)));
 385:tmk_core/protocol/chibios/usb_main.c **** static void    set_led_transfer_cb(USBDriver *usbp) {
 386:tmk_core/protocol/chibios/usb_main.c ****     if (usbp->setup[6] == 2) { /* LSB(wLength) */
 387:tmk_core/protocol/chibios/usb_main.c ****         uint8_t report_id = set_report_buf[0];
 388:tmk_core/protocol/chibios/usb_main.c ****         if ((report_id == REPORT_ID_KEYBOARD) || (report_id == REPORT_ID_NKRO)) {
 389:tmk_core/protocol/chibios/usb_main.c ****             keyboard_led_stats = set_report_buf[1];
 390:tmk_core/protocol/chibios/usb_main.c ****         }
 391:tmk_core/protocol/chibios/usb_main.c ****     } else {
 392:tmk_core/protocol/chibios/usb_main.c ****         keyboard_led_stats = set_report_buf[0];
 393:tmk_core/protocol/chibios/usb_main.c ****     }
 394:tmk_core/protocol/chibios/usb_main.c **** }
 395:tmk_core/protocol/chibios/usb_main.c **** 
 396:tmk_core/protocol/chibios/usb_main.c **** /* Callback for SETUP request on the endpoint 0 (control) */
 397:tmk_core/protocol/chibios/usb_main.c **** static bool usb_request_hook_cb(USBDriver *usbp) {
 398:tmk_core/protocol/chibios/usb_main.c ****     const USBDescriptor *dp;
 399:tmk_core/protocol/chibios/usb_main.c **** 
 400:tmk_core/protocol/chibios/usb_main.c ****     /* usbp->setup fields:
 401:tmk_core/protocol/chibios/usb_main.c ****      *  0:   bmRequestType (bitmask)
 402:tmk_core/protocol/chibios/usb_main.c ****      *  1:   bRequest
 403:tmk_core/protocol/chibios/usb_main.c ****      *  2,3: (LSB,MSB) wValue
 404:tmk_core/protocol/chibios/usb_main.c ****      *  4,5: (LSB,MSB) wIndex
 405:tmk_core/protocol/chibios/usb_main.c ****      *  6,7: (LSB,MSB) wLength (number of bytes to transfer if there is a data phase) */
 406:tmk_core/protocol/chibios/usb_main.c **** 
 407:tmk_core/protocol/chibios/usb_main.c ****     /* Handle HID class specific requests */
 408:tmk_core/protocol/chibios/usb_main.c ****     if (((usbp->setup[0] & USB_RTYPE_TYPE_MASK) == USB_RTYPE_TYPE_CLASS) && ((usbp->setup[0] & USB_
 409:tmk_core/protocol/chibios/usb_main.c ****         switch (usbp->setup[0] & USB_RTYPE_DIR_MASK) {
 410:tmk_core/protocol/chibios/usb_main.c ****             case USB_RTYPE_DIR_DEV2HOST:
 411:tmk_core/protocol/chibios/usb_main.c ****                 switch (usbp->setup[1]) { /* bRequest */
 412:tmk_core/protocol/chibios/usb_main.c ****                     case HID_GET_REPORT:
 413:tmk_core/protocol/chibios/usb_main.c ****                         switch (usbp->setup[4]) { /* LSB(wIndex) (check MSB==0?) */
 414:tmk_core/protocol/chibios/usb_main.c ****                             case KEYBOARD_INTERFACE:
 415:tmk_core/protocol/chibios/usb_main.c ****                                 usbSetupTransfer(usbp, (uint8_t *)&keyboard_report_sent, sizeof(key
 416:tmk_core/protocol/chibios/usb_main.c ****                                 return TRUE;
 417:tmk_core/protocol/chibios/usb_main.c ****                                 break;
 418:tmk_core/protocol/chibios/usb_main.c **** 
 419:tmk_core/protocol/chibios/usb_main.c **** #if defined(MOUSE_ENABLE) && !defined(MOUSE_SHARED_EP)
 420:tmk_core/protocol/chibios/usb_main.c ****                             case MOUSE_INTERFACE:
 421:tmk_core/protocol/chibios/usb_main.c ****                                 usbSetupTransfer(usbp, (uint8_t *)&mouse_report_blank, sizeof(mouse
 422:tmk_core/protocol/chibios/usb_main.c ****                                 return TRUE;
 423:tmk_core/protocol/chibios/usb_main.c ****                                 break;
 424:tmk_core/protocol/chibios/usb_main.c **** #endif
 425:tmk_core/protocol/chibios/usb_main.c **** 
 426:tmk_core/protocol/chibios/usb_main.c ****                             default:
 427:tmk_core/protocol/chibios/usb_main.c ****                                 usbSetupTransfer(usbp, NULL, 0, NULL);
 428:tmk_core/protocol/chibios/usb_main.c ****                                 return TRUE;
 429:tmk_core/protocol/chibios/usb_main.c ****                                 break;
 430:tmk_core/protocol/chibios/usb_main.c ****                         }
 431:tmk_core/protocol/chibios/usb_main.c ****                         break;
 432:tmk_core/protocol/chibios/usb_main.c **** 
 433:tmk_core/protocol/chibios/usb_main.c ****                     case HID_GET_PROTOCOL:
 434:tmk_core/protocol/chibios/usb_main.c ****                         if ((usbp->setup[4] == KEYBOARD_INTERFACE) && (usbp->setup[5] == 0)) { /* w
 435:tmk_core/protocol/chibios/usb_main.c ****                             usbSetupTransfer(usbp, &keyboard_protocol, 1, NULL);
 436:tmk_core/protocol/chibios/usb_main.c ****                             return TRUE;
 437:tmk_core/protocol/chibios/usb_main.c ****                         }
 438:tmk_core/protocol/chibios/usb_main.c ****                         break;
 439:tmk_core/protocol/chibios/usb_main.c **** 
 440:tmk_core/protocol/chibios/usb_main.c ****                     case HID_GET_IDLE:
 441:tmk_core/protocol/chibios/usb_main.c ****                         usbSetupTransfer(usbp, &keyboard_idle, 1, NULL);
 442:tmk_core/protocol/chibios/usb_main.c ****                         return TRUE;
 443:tmk_core/protocol/chibios/usb_main.c ****                         break;
 444:tmk_core/protocol/chibios/usb_main.c ****                 }
 445:tmk_core/protocol/chibios/usb_main.c ****                 break;
 446:tmk_core/protocol/chibios/usb_main.c **** 
 447:tmk_core/protocol/chibios/usb_main.c ****             case USB_RTYPE_DIR_HOST2DEV:
 448:tmk_core/protocol/chibios/usb_main.c ****                 switch (usbp->setup[1]) { /* bRequest */
 449:tmk_core/protocol/chibios/usb_main.c ****                     case HID_SET_REPORT:
 450:tmk_core/protocol/chibios/usb_main.c ****                         switch (usbp->setup[4]) { /* LSB(wIndex) (check MSB==0?) */
 451:tmk_core/protocol/chibios/usb_main.c ****                             case KEYBOARD_INTERFACE:
 452:tmk_core/protocol/chibios/usb_main.c **** #if defined(SHARED_EP_ENABLE) && !defined(KEYBOARD_SHARED_EP)
 453:tmk_core/protocol/chibios/usb_main.c ****                             case SHARED_INTERFACE:
 454:tmk_core/protocol/chibios/usb_main.c **** #endif
 455:tmk_core/protocol/chibios/usb_main.c ****                                 usbSetupTransfer(usbp, set_report_buf, sizeof(set_report_buf), set_
 456:tmk_core/protocol/chibios/usb_main.c ****                                 return TRUE;
 457:tmk_core/protocol/chibios/usb_main.c ****                                 break;
 458:tmk_core/protocol/chibios/usb_main.c ****                         }
 459:tmk_core/protocol/chibios/usb_main.c ****                         break;
 460:tmk_core/protocol/chibios/usb_main.c **** 
 461:tmk_core/protocol/chibios/usb_main.c ****                     case HID_SET_PROTOCOL:
 462:tmk_core/protocol/chibios/usb_main.c ****                         if ((usbp->setup[4] == KEYBOARD_INTERFACE) && (usbp->setup[5] == 0)) { /* w
 463:tmk_core/protocol/chibios/usb_main.c ****                             keyboard_protocol = ((usbp->setup[2]) != 0x00);                    /* L
 464:tmk_core/protocol/chibios/usb_main.c **** #ifdef NKRO_ENABLE
 465:tmk_core/protocol/chibios/usb_main.c ****                             keymap_config.nkro = !!keyboard_protocol;
 466:tmk_core/protocol/chibios/usb_main.c ****                             if (!keymap_config.nkro && keyboard_idle) {
 467:tmk_core/protocol/chibios/usb_main.c **** #else  /* NKRO_ENABLE */
 468:tmk_core/protocol/chibios/usb_main.c ****                             if (keyboard_idle) {
 469:tmk_core/protocol/chibios/usb_main.c **** #endif /* NKRO_ENABLE */
 470:tmk_core/protocol/chibios/usb_main.c ****                                 /* arm the idle timer if boot protocol & idle */
 471:tmk_core/protocol/chibios/usb_main.c ****                                 osalSysLockFromISR();
 472:tmk_core/protocol/chibios/usb_main.c ****                                 chVTSetI(&keyboard_idle_timer, 4 * TIME_MS2I(keyboard_idle), keyboa
 473:tmk_core/protocol/chibios/usb_main.c ****                                 osalSysUnlockFromISR();
 474:tmk_core/protocol/chibios/usb_main.c ****                             }
 475:tmk_core/protocol/chibios/usb_main.c ****                         }
 476:tmk_core/protocol/chibios/usb_main.c ****                         usbSetupTransfer(usbp, NULL, 0, NULL);
 477:tmk_core/protocol/chibios/usb_main.c ****                         return TRUE;
 478:tmk_core/protocol/chibios/usb_main.c ****                         break;
 479:tmk_core/protocol/chibios/usb_main.c **** 
 480:tmk_core/protocol/chibios/usb_main.c ****                     case HID_SET_IDLE:
 481:tmk_core/protocol/chibios/usb_main.c ****                         keyboard_idle = usbp->setup[3]; /* MSB(wValue) */
 482:tmk_core/protocol/chibios/usb_main.c ****                                                         /* arm the timer */
 483:tmk_core/protocol/chibios/usb_main.c **** #ifdef NKRO_ENABLE
 484:tmk_core/protocol/chibios/usb_main.c ****                         if (!keymap_config.nkro && keyboard_idle) {
 485:tmk_core/protocol/chibios/usb_main.c **** #else  /* NKRO_ENABLE */
 486:tmk_core/protocol/chibios/usb_main.c ****                         if (keyboard_idle) {
 487:tmk_core/protocol/chibios/usb_main.c **** #endif /* NKRO_ENABLE */
 488:tmk_core/protocol/chibios/usb_main.c ****                             osalSysLockFromISR();
 489:tmk_core/protocol/chibios/usb_main.c ****                             chVTSetI(&keyboard_idle_timer, 4 * TIME_MS2I(keyboard_idle), keyboard_i
 490:tmk_core/protocol/chibios/usb_main.c ****                             osalSysUnlockFromISR();
 491:tmk_core/protocol/chibios/usb_main.c ****                         }
 492:tmk_core/protocol/chibios/usb_main.c ****                         usbSetupTransfer(usbp, NULL, 0, NULL);
 493:tmk_core/protocol/chibios/usb_main.c ****                         return TRUE;
 494:tmk_core/protocol/chibios/usb_main.c ****                         break;
 495:tmk_core/protocol/chibios/usb_main.c ****                 }
 496:tmk_core/protocol/chibios/usb_main.c ****                 break;
 497:tmk_core/protocol/chibios/usb_main.c ****         }
 498:tmk_core/protocol/chibios/usb_main.c ****     }
 499:tmk_core/protocol/chibios/usb_main.c **** 
 500:tmk_core/protocol/chibios/usb_main.c ****     /* Handle the Get_Descriptor Request for HID class (not handled by the default hook) */
 501:tmk_core/protocol/chibios/usb_main.c ****     if ((usbp->setup[0] == 0x81) && (usbp->setup[1] == USB_REQ_GET_DESCRIPTOR)) {
 502:tmk_core/protocol/chibios/usb_main.c ****         dp = usbp->config->get_descriptor_cb(usbp, usbp->setup[3], usbp->setup[2], get_hword(&usbp-
 503:tmk_core/protocol/chibios/usb_main.c ****         if (dp == NULL) return FALSE;
 504:tmk_core/protocol/chibios/usb_main.c ****         usbSetupTransfer(usbp, (uint8_t *)dp->ud_string, dp->ud_size, NULL);
 505:tmk_core/protocol/chibios/usb_main.c ****         return TRUE;
 506:tmk_core/protocol/chibios/usb_main.c ****     }
 507:tmk_core/protocol/chibios/usb_main.c **** 
 508:tmk_core/protocol/chibios/usb_main.c ****     for (int i = 0; i < NUM_USB_DRIVERS; i++) {
 509:tmk_core/protocol/chibios/usb_main.c ****         if (drivers.array[i].config.int_in) {
 510:tmk_core/protocol/chibios/usb_main.c ****             // NOTE: Assumes that we only have one serial driver
 511:tmk_core/protocol/chibios/usb_main.c ****             return qmkusbRequestsHook(usbp);
 512:tmk_core/protocol/chibios/usb_main.c ****         }
 513:tmk_core/protocol/chibios/usb_main.c ****     }
 514:tmk_core/protocol/chibios/usb_main.c **** 
 515:tmk_core/protocol/chibios/usb_main.c ****     return FALSE;
 516:tmk_core/protocol/chibios/usb_main.c **** }
 517:tmk_core/protocol/chibios/usb_main.c **** 
 518:tmk_core/protocol/chibios/usb_main.c **** /* Start-of-frame callback */
 519:tmk_core/protocol/chibios/usb_main.c **** static void usb_sof_cb(USBDriver *usbp) {
 520:tmk_core/protocol/chibios/usb_main.c ****     kbd_sof_cb(usbp);
 521:tmk_core/protocol/chibios/usb_main.c ****     osalSysLockFromISR();
 522:tmk_core/protocol/chibios/usb_main.c ****     for (int i = 0; i < NUM_USB_DRIVERS; i++) {
 523:tmk_core/protocol/chibios/usb_main.c ****         qmkusbSOFHookI(&drivers.array[i].driver);
 524:tmk_core/protocol/chibios/usb_main.c ****     }
 525:tmk_core/protocol/chibios/usb_main.c ****     osalSysUnlockFromISR();
 526:tmk_core/protocol/chibios/usb_main.c **** }
 527:tmk_core/protocol/chibios/usb_main.c **** 
 528:tmk_core/protocol/chibios/usb_main.c **** /* USB driver configuration */
 529:tmk_core/protocol/chibios/usb_main.c **** static const USBConfig usbcfg = {
 530:tmk_core/protocol/chibios/usb_main.c ****     usb_event_cb,          /* USB events callback */
 531:tmk_core/protocol/chibios/usb_main.c ****     usb_get_descriptor_cb, /* Device GET_DESCRIPTOR request callback */
 532:tmk_core/protocol/chibios/usb_main.c ****     usb_request_hook_cb,   /* Requests hook callback */
 533:tmk_core/protocol/chibios/usb_main.c ****     usb_sof_cb             /* Start Of Frame callback */
 534:tmk_core/protocol/chibios/usb_main.c **** };
 535:tmk_core/protocol/chibios/usb_main.c **** 
 536:tmk_core/protocol/chibios/usb_main.c **** /*
 537:tmk_core/protocol/chibios/usb_main.c ****  * Initialize the USB driver
 538:tmk_core/protocol/chibios/usb_main.c ****  */
 539:tmk_core/protocol/chibios/usb_main.c **** void init_usb_driver(USBDriver *usbp) {
 540:tmk_core/protocol/chibios/usb_main.c ****     for (int i = 0; i < NUM_USB_DRIVERS; i++) {
 541:tmk_core/protocol/chibios/usb_main.c ****         QMKUSBDriver *driver                     = &drivers.array[i].driver;
 542:tmk_core/protocol/chibios/usb_main.c ****         drivers.array[i].in_ep_config.in_state   = &drivers.array[i].in_ep_state;
 543:tmk_core/protocol/chibios/usb_main.c ****         drivers.array[i].out_ep_config.out_state = &drivers.array[i].out_ep_state;
 544:tmk_core/protocol/chibios/usb_main.c ****         drivers.array[i].int_ep_config.in_state  = &drivers.array[i].int_ep_state;
 545:tmk_core/protocol/chibios/usb_main.c ****         qmkusbObjectInit(driver, &drivers.array[i].config);
 546:tmk_core/protocol/chibios/usb_main.c ****         qmkusbStart(driver, &drivers.array[i].config);
 547:tmk_core/protocol/chibios/usb_main.c ****     }
 548:tmk_core/protocol/chibios/usb_main.c **** 
 549:tmk_core/protocol/chibios/usb_main.c ****     /*
 550:tmk_core/protocol/chibios/usb_main.c ****      * Activates the USB driver and then the USB bus pull-up on D+.
 551:tmk_core/protocol/chibios/usb_main.c ****      * Note, a delay is inserted in order to not have to disconnect the cable
 552:tmk_core/protocol/chibios/usb_main.c ****      * after a reset.
 553:tmk_core/protocol/chibios/usb_main.c ****      */
 554:tmk_core/protocol/chibios/usb_main.c ****     usbDisconnectBus(usbp);
 555:tmk_core/protocol/chibios/usb_main.c ****     wait_ms(1500);
 556:tmk_core/protocol/chibios/usb_main.c ****     usbStart(usbp, &usbcfg);
 557:tmk_core/protocol/chibios/usb_main.c ****     usbConnectBus(usbp);
 558:tmk_core/protocol/chibios/usb_main.c **** 
 559:tmk_core/protocol/chibios/usb_main.c ****     chVTObjectInit(&keyboard_idle_timer);
 560:tmk_core/protocol/chibios/usb_main.c **** }
 561:tmk_core/protocol/chibios/usb_main.c **** 
 562:tmk_core/protocol/chibios/usb_main.c **** /* ---------------------------------------------------------
 563:tmk_core/protocol/chibios/usb_main.c ****  *                  Keyboard functions
 564:tmk_core/protocol/chibios/usb_main.c ****  * ---------------------------------------------------------
 565:tmk_core/protocol/chibios/usb_main.c ****  */
 566:tmk_core/protocol/chibios/usb_main.c **** /* keyboard IN callback hander (a kbd report has made it IN) */
 567:tmk_core/protocol/chibios/usb_main.c **** #ifndef KEYBOARD_SHARED_EP
 568:tmk_core/protocol/chibios/usb_main.c **** void kbd_in_cb(USBDriver *usbp, usbep_t ep) {
  28              		.loc 1 568 45 view -0
  29              		.cfi_startproc
  30              		@ args = 0, pretend = 0, frame = 0
  31              		@ frame_needed = 0, uses_anonymous_args = 0
  32              		@ link register save eliminated.
 569:tmk_core/protocol/chibios/usb_main.c ****     /* STUB */
 570:tmk_core/protocol/chibios/usb_main.c ****     (void)usbp;
  33              		.loc 1 570 5 view .LVU1
 571:tmk_core/protocol/chibios/usb_main.c ****     (void)ep;
  34              		.loc 1 571 5 view .LVU2
 572:tmk_core/protocol/chibios/usb_main.c **** }
  35              		.loc 1 572 1 is_stmt 0 view .LVU3
  36              		@ sp needed
  37 0000 7047     		bx	lr
  38              		.cfi_endproc
  39              	.LFE195:
  41              		.section	.text.usb_get_descriptor_cb,"ax",%progbits
  42              		.align	1
  43              		.syntax unified
  44              		.code	16
  45              		.thumb_func
  46              		.fpu softvfp
  48              	usb_get_descriptor_cb:
  49              	.LVL1:
  50              	.LFB188:
  96:tmk_core/protocol/chibios/usb_main.c ****     (void)usbp;
  51              		.loc 1 96 116 is_stmt 1 view -0
  52              		.cfi_startproc
  53              		@ args = 0, pretend = 0, frame = 0
  54              		@ frame_needed = 0, uses_anonymous_args = 0
  97:tmk_core/protocol/chibios/usb_main.c ****     static USBDescriptor desc;
  55              		.loc 1 97 5 view .LVU5
  98:tmk_core/protocol/chibios/usb_main.c ****     uint16_t             wValue = ((uint16_t)dtype << 8) | dindex;
  56              		.loc 1 98 5 view .LVU6
  99:tmk_core/protocol/chibios/usb_main.c ****     desc.ud_string              = NULL;
  57              		.loc 1 99 5 view .LVU7
  96:tmk_core/protocol/chibios/usb_main.c ****     (void)usbp;
  58              		.loc 1 96 116 is_stmt 0 view .LVU8
  59 0000 70B5     		push	{r4, r5, r6, lr}
  60              		.cfi_def_cfa_offset 16
  61              		.cfi_offset 4, -16
  62              		.cfi_offset 5, -12
  63              		.cfi_offset 6, -8
  64              		.cfi_offset 14, -4
  96:tmk_core/protocol/chibios/usb_main.c ****     (void)usbp;
  65              		.loc 1 96 116 view .LVU9
  66 0002 0D00     		movs	r5, r1
  67              	.LVL2:
 100:tmk_core/protocol/chibios/usb_main.c ****     desc.ud_size                = get_usb_descriptor(wValue, wIndex, (const void **const) & desc.ud
  68              		.loc 1 100 5 is_stmt 1 view .LVU10
  99:tmk_core/protocol/chibios/usb_main.c ****     desc.ud_string              = NULL;
  69              		.loc 1 99 52 is_stmt 0 view .LVU11
  70 0004 2D02     		lsls	r5, r5, #8
  71              	.LVL3:
 100:tmk_core/protocol/chibios/usb_main.c ****     desc.ud_size                = get_usb_descriptor(wValue, wIndex, (const void **const) & desc.ud
  72              		.loc 1 100 33 view .LVU12
  73 0006 0021     		movs	r1, #0
  74              	.LVL4:
 101:tmk_core/protocol/chibios/usb_main.c ****     if (desc.ud_string == NULL)
  75              		.loc 1 101 35 view .LVU13
  76 0008 2800     		movs	r0, r5
  77              	.LVL5:
 100:tmk_core/protocol/chibios/usb_main.c ****     desc.ud_size                = get_usb_descriptor(wValue, wIndex, (const void **const) & desc.ud
  78              		.loc 1 100 33 view .LVU14
  79 000a 074C     		ldr	r4, .L7
 101:tmk_core/protocol/chibios/usb_main.c ****     if (desc.ud_string == NULL)
  80              		.loc 1 101 35 view .LVU15
  81 000c 1043     		orrs	r0, r2
  82 000e 261D     		adds	r6, r4, #4
 100:tmk_core/protocol/chibios/usb_main.c ****     desc.ud_size                = get_usb_descriptor(wValue, wIndex, (const void **const) & desc.ud
  83              		.loc 1 100 33 view .LVU16
  84 0010 6160     		str	r1, [r4, #4]
 101:tmk_core/protocol/chibios/usb_main.c ****     if (desc.ud_string == NULL)
  85              		.loc 1 101 5 is_stmt 1 view .LVU17
 101:tmk_core/protocol/chibios/usb_main.c ****     if (desc.ud_string == NULL)
  86              		.loc 1 101 35 is_stmt 0 view .LVU18
  87 0012 3200     		movs	r2, r6
  88              	.LVL6:
 101:tmk_core/protocol/chibios/usb_main.c ****     if (desc.ud_string == NULL)
  89              		.loc 1 101 35 view .LVU19
  90 0014 1900     		movs	r1, r3
  91 0016 FFF7FEFF 		bl	get_usb_descriptor
  92              	.LVL7:
 101:tmk_core/protocol/chibios/usb_main.c ****     if (desc.ud_string == NULL)
  93              		.loc 1 101 35 view .LVU20
  94 001a 2060     		str	r0, [r4]
 102:tmk_core/protocol/chibios/usb_main.c ****         return NULL;
  95              		.loc 1 102 5 is_stmt 1 view .LVU21
 102:tmk_core/protocol/chibios/usb_main.c ****         return NULL;
  96              		.loc 1 102 13 is_stmt 0 view .LVU22
  97 001c 6068     		ldr	r0, [r4, #4]
 102:tmk_core/protocol/chibios/usb_main.c ****         return NULL;
  98              		.loc 1 102 8 view .LVU23
  99 001e 0028     		cmp	r0, #0
 100 0020 00D0     		beq	.L2
 105:tmk_core/protocol/chibios/usb_main.c **** }
 101              		.loc 1 105 16 view .LVU24
 102 0022 2000     		movs	r0, r4
 103              	.L2:
 106:tmk_core/protocol/chibios/usb_main.c **** 
 104              		.loc 1 106 1 view .LVU25
 105              		@ sp needed
 106 0024 70BD     		pop	{r4, r5, r6, pc}
 107              	.L8:
 108 0026 C046     		.align	2
 109              	.L7:
 110 0028 00000000 		.word	.LANCHOR0
 111              		.cfi_endproc
 112              	.LFE188:
 114              		.section	.text.set_led_transfer_cb,"ax",%progbits
 115              		.align	1
 116              		.syntax unified
 117              		.code	16
 118              		.thumb_func
 119              		.fpu softvfp
 121              	set_led_transfer_cb:
 122              	.LVL8:
 123              	.LFB191:
 385:tmk_core/protocol/chibios/usb_main.c ****     if (usbp->setup[6] == 2) { /* LSB(wLength) */
 124              		.loc 1 385 53 is_stmt 1 view -0
 125              		.cfi_startproc
 126              		@ args = 0, pretend = 0, frame = 0
 127              		@ frame_needed = 0, uses_anonymous_args = 0
 128              		@ link register save eliminated.
 386:tmk_core/protocol/chibios/usb_main.c ****         uint8_t report_id = set_report_buf[0];
 129              		.loc 1 386 5 view .LVU27
 386:tmk_core/protocol/chibios/usb_main.c ****         uint8_t report_id = set_report_buf[0];
 130              		.loc 1 386 20 is_stmt 0 view .LVU28
 131 0000 7A30     		adds	r0, r0, #122
 132              	.LVL9:
 386:tmk_core/protocol/chibios/usb_main.c ****         uint8_t report_id = set_report_buf[0];
 133              		.loc 1 386 20 view .LVU29
 134 0002 084A     		ldr	r2, .L12
 386:tmk_core/protocol/chibios/usb_main.c ****         uint8_t report_id = set_report_buf[0];
 135              		.loc 1 386 8 view .LVU30
 136 0004 0178     		ldrb	r1, [r0]
 137 0006 1378     		ldrb	r3, [r2]
 138 0008 0229     		cmp	r1, #2
 139 000a 07D1     		bne	.L10
 140              	.LBB323:
 141              	.LBI323:
 385:tmk_core/protocol/chibios/usb_main.c ****     if (usbp->setup[6] == 2) { /* LSB(wLength) */
 142              		.loc 1 385 16 is_stmt 1 view .LVU31
 143              	.LVL10:
 144              	.LBB324:
 387:tmk_core/protocol/chibios/usb_main.c ****         if ((report_id == REPORT_ID_KEYBOARD) || (report_id == REPORT_ID_NKRO)) {
 145              		.loc 1 387 9 view .LVU32
 388:tmk_core/protocol/chibios/usb_main.c ****             keyboard_led_stats = set_report_buf[1];
 146              		.loc 1 388 9 view .LVU33
 388:tmk_core/protocol/chibios/usb_main.c ****             keyboard_led_stats = set_report_buf[1];
 147              		.loc 1 388 12 is_stmt 0 view .LVU34
 148 000c 0231     		adds	r1, r1, #2
 149 000e 8B43     		bics	r3, r1
 150 0010 012B     		cmp	r3, #1
 151 0012 02D1     		bne	.L9
 389:tmk_core/protocol/chibios/usb_main.c ****         }
 152              		.loc 1 389 13 is_stmt 1 view .LVU35
 389:tmk_core/protocol/chibios/usb_main.c ****         }
 153              		.loc 1 389 32 is_stmt 0 view .LVU36
 154 0014 5278     		ldrb	r2, [r2, #1]
 155 0016 044B     		ldr	r3, .L12+4
 156 0018 1A70     		strb	r2, [r3]
 157              	.LVL11:
 158              	.L9:
 389:tmk_core/protocol/chibios/usb_main.c ****         }
 159              		.loc 1 389 32 view .LVU37
 160              	.LBE324:
 161              	.LBE323:
 394:tmk_core/protocol/chibios/usb_main.c **** 
 162              		.loc 1 394 1 view .LVU38
 163              		@ sp needed
 164 001a 7047     		bx	lr
 165              	.L10:
 392:tmk_core/protocol/chibios/usb_main.c ****     }
 166              		.loc 1 392 9 is_stmt 1 view .LVU39
 392:tmk_core/protocol/chibios/usb_main.c ****     }
 167              		.loc 1 392 28 is_stmt 0 view .LVU40
 168 001c 024A     		ldr	r2, .L12+4
 169 001e 1370     		strb	r3, [r2]
 394:tmk_core/protocol/chibios/usb_main.c **** 
 170              		.loc 1 394 1 view .LVU41
 171 0020 FBE7     		b	.L9
 172              	.L13:
 173 0022 C046     		.align	2
 174              	.L12:
 175 0024 00000000 		.word	.LANCHOR1
 176 0028 00000000 		.word	.LANCHOR2
 177              		.cfi_endproc
 178              	.LFE191:
 180              		.section	.text.usb_event_cb,"ax",%progbits
 181              		.align	1
 182              		.syntax unified
 183              		.code	16
 184              		.thumb_func
 185              		.fpu softvfp
 187              	usb_event_cb:
 188              	.LVL12:
 189              	.LFB189:
 297:tmk_core/protocol/chibios/usb_main.c ****     switch (event) {
 190              		.loc 1 297 61 is_stmt 1 view -0
 191              		.cfi_startproc
 192              		@ args = 0, pretend = 0, frame = 0
 193              		@ frame_needed = 0, uses_anonymous_args = 0
 298:tmk_core/protocol/chibios/usb_main.c ****         case USB_EVENT_ADDRESS:
 194              		.loc 1 298 5 view .LVU43
 297:tmk_core/protocol/chibios/usb_main.c ****     switch (event) {
 195              		.loc 1 297 61 is_stmt 0 view .LVU44
 196 0000 70B5     		push	{r4, r5, r6, lr}
 197              		.cfi_def_cfa_offset 16
 198              		.cfi_offset 4, -16
 199              		.cfi_offset 5, -12
 200              		.cfi_offset 6, -8
 201              		.cfi_offset 14, -4
 297:tmk_core/protocol/chibios/usb_main.c ****     switch (event) {
 202              		.loc 1 297 61 view .LVU45
 203 0002 0400     		movs	r4, r0
 298:tmk_core/protocol/chibios/usb_main.c ****         case USB_EVENT_ADDRESS:
 204              		.loc 1 298 5 view .LVU46
 205 0004 0529     		cmp	r1, #5
 206 0006 2BD8     		bhi	.L14
 207 0008 0800     		movs	r0, r1
 208              	.LVL13:
 298:tmk_core/protocol/chibios/usb_main.c ****         case USB_EVENT_ADDRESS:
 209              		.loc 1 298 5 view .LVU47
 210 000a FFF7FEFF 		bl	__gnu_thumb1_case_uqi
 211              	.L17:
 212 000e 2C       		.byte	(.L19-.L17)/2
 213 000f 29       		.byte	(.L14-.L17)/2
 214 0010 03       		.byte	(.L20-.L17)/2
 215 0011 2C       		.byte	(.L19-.L17)/2
 216 0012 2A       		.byte	(.L18-.L17)/2
 217 0013 31       		.byte	(.L16-.L17)/2
 218              		.p2align 1
 219              	.L20:
 220              	.LVL14:
 221              	.LBB384:
 222              	.LBI384:
 297:tmk_core/protocol/chibios/usb_main.c ****     switch (event) {
 223              		.loc 1 297 13 is_stmt 1 view .LVU48
 224              	.LBB385:
 303:tmk_core/protocol/chibios/usb_main.c ****             /* Enable the endpoints specified into the configuration. */
 225              		.loc 1 303 13 view .LVU49
 226              	.LBB386:
 227              	.LBI386:
 228              		.file 2 "./lib/chibios/os/hal/osal/rt/osal.h"
   1:./lib/chibios/os/hal/osal/rt/osal.h **** /*
   2:./lib/chibios/os/hal/osal/rt/osal.h ****     ChibiOS - Copyright (C) 2006..2018 Giovanni Di Sirio
   3:./lib/chibios/os/hal/osal/rt/osal.h **** 
   4:./lib/chibios/os/hal/osal/rt/osal.h ****     Licensed under the Apache License, Version 2.0 (the "License");
   5:./lib/chibios/os/hal/osal/rt/osal.h ****     you may not use this file except in compliance with the License.
   6:./lib/chibios/os/hal/osal/rt/osal.h ****     You may obtain a copy of the License at
   7:./lib/chibios/os/hal/osal/rt/osal.h **** 
   8:./lib/chibios/os/hal/osal/rt/osal.h ****         http://www.apache.org/licenses/LICENSE-2.0
   9:./lib/chibios/os/hal/osal/rt/osal.h **** 
  10:./lib/chibios/os/hal/osal/rt/osal.h ****     Unless required by applicable law or agreed to in writing, software
  11:./lib/chibios/os/hal/osal/rt/osal.h ****     distributed under the License is distributed on an "AS IS" BASIS,
  12:./lib/chibios/os/hal/osal/rt/osal.h ****     WITHOUT WARRANTIES OR CONDITIONS OF ANY KIND, either express or implied.
  13:./lib/chibios/os/hal/osal/rt/osal.h ****     See the License for the specific language governing permissions and
  14:./lib/chibios/os/hal/osal/rt/osal.h ****     limitations under the License.
  15:./lib/chibios/os/hal/osal/rt/osal.h **** */
  16:./lib/chibios/os/hal/osal/rt/osal.h **** 
  17:./lib/chibios/os/hal/osal/rt/osal.h **** /**
  18:./lib/chibios/os/hal/osal/rt/osal.h ****  * @file    osal.h
  19:./lib/chibios/os/hal/osal/rt/osal.h ****  * @brief   OSAL module header.
  20:./lib/chibios/os/hal/osal/rt/osal.h ****  *
  21:./lib/chibios/os/hal/osal/rt/osal.h ****  * @addtogroup OSAL
  22:./lib/chibios/os/hal/osal/rt/osal.h ****  * @{
  23:./lib/chibios/os/hal/osal/rt/osal.h ****  */
  24:./lib/chibios/os/hal/osal/rt/osal.h **** 
  25:./lib/chibios/os/hal/osal/rt/osal.h **** #ifndef OSAL_H
  26:./lib/chibios/os/hal/osal/rt/osal.h **** #define OSAL_H
  27:./lib/chibios/os/hal/osal/rt/osal.h **** 
  28:./lib/chibios/os/hal/osal/rt/osal.h **** #include <stddef.h>
  29:./lib/chibios/os/hal/osal/rt/osal.h **** #include <stdint.h>
  30:./lib/chibios/os/hal/osal/rt/osal.h **** #include <stdbool.h>
  31:./lib/chibios/os/hal/osal/rt/osal.h **** 
  32:./lib/chibios/os/hal/osal/rt/osal.h **** #include "ch.h"
  33:./lib/chibios/os/hal/osal/rt/osal.h **** 
  34:./lib/chibios/os/hal/osal/rt/osal.h **** /*===========================================================================*/
  35:./lib/chibios/os/hal/osal/rt/osal.h **** /* Module constants.                                                         */
  36:./lib/chibios/os/hal/osal/rt/osal.h **** /*===========================================================================*/
  37:./lib/chibios/os/hal/osal/rt/osal.h **** 
  38:./lib/chibios/os/hal/osal/rt/osal.h **** /**
  39:./lib/chibios/os/hal/osal/rt/osal.h ****  * @name    Common constants
  40:./lib/chibios/os/hal/osal/rt/osal.h ****  * @{
  41:./lib/chibios/os/hal/osal/rt/osal.h ****  */
  42:./lib/chibios/os/hal/osal/rt/osal.h **** #if !defined(FALSE) || defined(__DOXYGEN__)
  43:./lib/chibios/os/hal/osal/rt/osal.h **** #define FALSE                               0
  44:./lib/chibios/os/hal/osal/rt/osal.h **** #endif
  45:./lib/chibios/os/hal/osal/rt/osal.h **** 
  46:./lib/chibios/os/hal/osal/rt/osal.h **** #if !defined(TRUE) || defined(__DOXYGEN__)
  47:./lib/chibios/os/hal/osal/rt/osal.h **** #define TRUE                                1
  48:./lib/chibios/os/hal/osal/rt/osal.h **** #endif
  49:./lib/chibios/os/hal/osal/rt/osal.h **** 
  50:./lib/chibios/os/hal/osal/rt/osal.h **** #define OSAL_SUCCESS                        false
  51:./lib/chibios/os/hal/osal/rt/osal.h **** #define OSAL_FAILED                         true
  52:./lib/chibios/os/hal/osal/rt/osal.h **** /** @} */
  53:./lib/chibios/os/hal/osal/rt/osal.h **** 
  54:./lib/chibios/os/hal/osal/rt/osal.h **** #if 0
  55:./lib/chibios/os/hal/osal/rt/osal.h **** /**
  56:./lib/chibios/os/hal/osal/rt/osal.h ****  * @name    Messages
  57:./lib/chibios/os/hal/osal/rt/osal.h ****  * @{
  58:./lib/chibios/os/hal/osal/rt/osal.h ****  */
  59:./lib/chibios/os/hal/osal/rt/osal.h **** #define MSG_OK                              (msg_t)0
  60:./lib/chibios/os/hal/osal/rt/osal.h **** #define MSG_TIMEOUT                         (msg_t)-1
  61:./lib/chibios/os/hal/osal/rt/osal.h **** #define MSG_RESET                           (msg_t)-2
  62:./lib/chibios/os/hal/osal/rt/osal.h **** /** @} */
  63:./lib/chibios/os/hal/osal/rt/osal.h **** #endif
  64:./lib/chibios/os/hal/osal/rt/osal.h **** 
  65:./lib/chibios/os/hal/osal/rt/osal.h **** #if 0
  66:./lib/chibios/os/hal/osal/rt/osal.h **** /**
  67:./lib/chibios/os/hal/osal/rt/osal.h ****  * @name    Special time constants
  68:./lib/chibios/os/hal/osal/rt/osal.h ****  * @{
  69:./lib/chibios/os/hal/osal/rt/osal.h ****  */
  70:./lib/chibios/os/hal/osal/rt/osal.h **** #define TIME_IMMEDIATE                      ((sysinterval_t)0)
  71:./lib/chibios/os/hal/osal/rt/osal.h **** #define TIME_INFINITE                       ((sysinterval_t)-1)
  72:./lib/chibios/os/hal/osal/rt/osal.h **** /** @} */
  73:./lib/chibios/os/hal/osal/rt/osal.h **** #endif
  74:./lib/chibios/os/hal/osal/rt/osal.h **** 
  75:./lib/chibios/os/hal/osal/rt/osal.h **** /**
  76:./lib/chibios/os/hal/osal/rt/osal.h ****  * @name    Systick modes.
  77:./lib/chibios/os/hal/osal/rt/osal.h ****  * @{
  78:./lib/chibios/os/hal/osal/rt/osal.h ****  */
  79:./lib/chibios/os/hal/osal/rt/osal.h **** #define OSAL_ST_MODE_NONE                   0
  80:./lib/chibios/os/hal/osal/rt/osal.h **** #define OSAL_ST_MODE_PERIODIC               1
  81:./lib/chibios/os/hal/osal/rt/osal.h **** #define OSAL_ST_MODE_FREERUNNING            2
  82:./lib/chibios/os/hal/osal/rt/osal.h **** /** @} */
  83:./lib/chibios/os/hal/osal/rt/osal.h **** 
  84:./lib/chibios/os/hal/osal/rt/osal.h **** /**
  85:./lib/chibios/os/hal/osal/rt/osal.h ****  * @name    Systick parameters.
  86:./lib/chibios/os/hal/osal/rt/osal.h ****  * @{
  87:./lib/chibios/os/hal/osal/rt/osal.h ****  */
  88:./lib/chibios/os/hal/osal/rt/osal.h **** /**
  89:./lib/chibios/os/hal/osal/rt/osal.h ****  * @brief   Size in bits of the @p systick_t type.
  90:./lib/chibios/os/hal/osal/rt/osal.h ****  */
  91:./lib/chibios/os/hal/osal/rt/osal.h **** #define OSAL_ST_RESOLUTION                  CH_CFG_ST_RESOLUTION
  92:./lib/chibios/os/hal/osal/rt/osal.h **** 
  93:./lib/chibios/os/hal/osal/rt/osal.h **** /**
  94:./lib/chibios/os/hal/osal/rt/osal.h ****  * @brief   Required systick frequency or resolution.
  95:./lib/chibios/os/hal/osal/rt/osal.h ****  */
  96:./lib/chibios/os/hal/osal/rt/osal.h **** #define OSAL_ST_FREQUENCY                   CH_CFG_ST_FREQUENCY
  97:./lib/chibios/os/hal/osal/rt/osal.h **** 
  98:./lib/chibios/os/hal/osal/rt/osal.h **** /**
  99:./lib/chibios/os/hal/osal/rt/osal.h ****  * @brief   Systick mode required by the underlying OS.
 100:./lib/chibios/os/hal/osal/rt/osal.h ****  */
 101:./lib/chibios/os/hal/osal/rt/osal.h **** #if (CH_CFG_ST_TIMEDELTA == 0) || defined(__DOXYGEN__)
 102:./lib/chibios/os/hal/osal/rt/osal.h **** #define OSAL_ST_MODE                        OSAL_ST_MODE_PERIODIC
 103:./lib/chibios/os/hal/osal/rt/osal.h **** #else
 104:./lib/chibios/os/hal/osal/rt/osal.h **** #define OSAL_ST_MODE                        OSAL_ST_MODE_FREERUNNING
 105:./lib/chibios/os/hal/osal/rt/osal.h **** #endif
 106:./lib/chibios/os/hal/osal/rt/osal.h **** /** @} */
 107:./lib/chibios/os/hal/osal/rt/osal.h **** 
 108:./lib/chibios/os/hal/osal/rt/osal.h **** /*===========================================================================*/
 109:./lib/chibios/os/hal/osal/rt/osal.h **** /* Module pre-compile time settings.                                         */
 110:./lib/chibios/os/hal/osal/rt/osal.h **** /*===========================================================================*/
 111:./lib/chibios/os/hal/osal/rt/osal.h **** 
 112:./lib/chibios/os/hal/osal/rt/osal.h **** /*===========================================================================*/
 113:./lib/chibios/os/hal/osal/rt/osal.h **** /* Derived constants and error checks.                                       */
 114:./lib/chibios/os/hal/osal/rt/osal.h **** /*===========================================================================*/
 115:./lib/chibios/os/hal/osal/rt/osal.h **** 
 116:./lib/chibios/os/hal/osal/rt/osal.h **** #if !(OSAL_ST_MODE == OSAL_ST_MODE_NONE) &&                                 \
 117:./lib/chibios/os/hal/osal/rt/osal.h ****     !(OSAL_ST_MODE == OSAL_ST_MODE_PERIODIC) &&                             \
 118:./lib/chibios/os/hal/osal/rt/osal.h ****     !(OSAL_ST_MODE == OSAL_ST_MODE_FREERUNNING)
 119:./lib/chibios/os/hal/osal/rt/osal.h **** #error "invalid OSAL_ST_MODE setting in osal.h"
 120:./lib/chibios/os/hal/osal/rt/osal.h **** #endif
 121:./lib/chibios/os/hal/osal/rt/osal.h **** 
 122:./lib/chibios/os/hal/osal/rt/osal.h **** #if (OSAL_ST_RESOLUTION != 16) && (OSAL_ST_RESOLUTION != 32)
 123:./lib/chibios/os/hal/osal/rt/osal.h **** #error "invalid OSAL_ST_RESOLUTION, must be 16 or 32"
 124:./lib/chibios/os/hal/osal/rt/osal.h **** #endif
 125:./lib/chibios/os/hal/osal/rt/osal.h **** 
 126:./lib/chibios/os/hal/osal/rt/osal.h **** /*===========================================================================*/
 127:./lib/chibios/os/hal/osal/rt/osal.h **** /* Module data structures and types.                                         */
 128:./lib/chibios/os/hal/osal/rt/osal.h **** /*===========================================================================*/
 129:./lib/chibios/os/hal/osal/rt/osal.h **** 
 130:./lib/chibios/os/hal/osal/rt/osal.h **** #if 0
 131:./lib/chibios/os/hal/osal/rt/osal.h **** /**
 132:./lib/chibios/os/hal/osal/rt/osal.h ****  * @brief   Type of a system status word.
 133:./lib/chibios/os/hal/osal/rt/osal.h ****  */
 134:./lib/chibios/os/hal/osal/rt/osal.h **** typedef uint32_t syssts_t;
 135:./lib/chibios/os/hal/osal/rt/osal.h **** #endif
 136:./lib/chibios/os/hal/osal/rt/osal.h **** 
 137:./lib/chibios/os/hal/osal/rt/osal.h **** #if 0
 138:./lib/chibios/os/hal/osal/rt/osal.h **** /**
 139:./lib/chibios/os/hal/osal/rt/osal.h ****  * @brief   Type of a message.
 140:./lib/chibios/os/hal/osal/rt/osal.h ****  */
 141:./lib/chibios/os/hal/osal/rt/osal.h **** typedef int32_t msg_t;
 142:./lib/chibios/os/hal/osal/rt/osal.h **** #endif
 143:./lib/chibios/os/hal/osal/rt/osal.h **** 
 144:./lib/chibios/os/hal/osal/rt/osal.h **** #if 0
 145:./lib/chibios/os/hal/osal/rt/osal.h **** /**
 146:./lib/chibios/os/hal/osal/rt/osal.h ****  * @brief   Type of system time counter.
 147:./lib/chibios/os/hal/osal/rt/osal.h ****  */
 148:./lib/chibios/os/hal/osal/rt/osal.h **** typedef uint32_t systime_t;
 149:./lib/chibios/os/hal/osal/rt/osal.h **** #endif
 150:./lib/chibios/os/hal/osal/rt/osal.h **** 
 151:./lib/chibios/os/hal/osal/rt/osal.h **** #if 0
 152:./lib/chibios/os/hal/osal/rt/osal.h **** /**
 153:./lib/chibios/os/hal/osal/rt/osal.h ****  * @brief   Type of system time interval.
 154:./lib/chibios/os/hal/osal/rt/osal.h ****  */
 155:./lib/chibios/os/hal/osal/rt/osal.h **** typedef uint32_t sysinterval_t;
 156:./lib/chibios/os/hal/osal/rt/osal.h **** #endif
 157:./lib/chibios/os/hal/osal/rt/osal.h **** 
 158:./lib/chibios/os/hal/osal/rt/osal.h **** #if 0
 159:./lib/chibios/os/hal/osal/rt/osal.h **** /**
 160:./lib/chibios/os/hal/osal/rt/osal.h ****  * @brief   Type of realtime counter.
 161:./lib/chibios/os/hal/osal/rt/osal.h ****  */
 162:./lib/chibios/os/hal/osal/rt/osal.h **** typedef uint32_t rtcnt_t;
 163:./lib/chibios/os/hal/osal/rt/osal.h **** #endif
 164:./lib/chibios/os/hal/osal/rt/osal.h **** 
 165:./lib/chibios/os/hal/osal/rt/osal.h **** #if 0
 166:./lib/chibios/os/hal/osal/rt/osal.h **** /**
 167:./lib/chibios/os/hal/osal/rt/osal.h ****  * @brief   Type of a thread reference.
 168:./lib/chibios/os/hal/osal/rt/osal.h ****  */
 169:./lib/chibios/os/hal/osal/rt/osal.h **** typedef thread_t * thread_reference_t;
 170:./lib/chibios/os/hal/osal/rt/osal.h **** #endif
 171:./lib/chibios/os/hal/osal/rt/osal.h **** 
 172:./lib/chibios/os/hal/osal/rt/osal.h **** #if 0
 173:./lib/chibios/os/hal/osal/rt/osal.h **** /**
 174:./lib/chibios/os/hal/osal/rt/osal.h ****  * @brief   Type of an event flags mask.
 175:./lib/chibios/os/hal/osal/rt/osal.h ****  */
 176:./lib/chibios/os/hal/osal/rt/osal.h **** typedef uint32_t eventflags_t;
 177:./lib/chibios/os/hal/osal/rt/osal.h **** #endif
 178:./lib/chibios/os/hal/osal/rt/osal.h **** 
 179:./lib/chibios/os/hal/osal/rt/osal.h **** #if (CH_CFG_USE_EVENTS == FALSE) || defined(__DOXYGEN__)
 180:./lib/chibios/os/hal/osal/rt/osal.h **** /**
 181:./lib/chibios/os/hal/osal/rt/osal.h ****  * @brief   Type of an event flags object.
 182:./lib/chibios/os/hal/osal/rt/osal.h ****  * @note    The content of this structure is not part of the API and should
 183:./lib/chibios/os/hal/osal/rt/osal.h ****  *          not be relied upon. Implementers may define this structure in
 184:./lib/chibios/os/hal/osal/rt/osal.h ****  *          an entirely different way.
 185:./lib/chibios/os/hal/osal/rt/osal.h ****  * @note    Retrieval and clearing of the flags are not defined in this
 186:./lib/chibios/os/hal/osal/rt/osal.h ****  *          API and are implementation-dependent.
 187:./lib/chibios/os/hal/osal/rt/osal.h ****  */
 188:./lib/chibios/os/hal/osal/rt/osal.h **** typedef struct event_source event_source_t;
 189:./lib/chibios/os/hal/osal/rt/osal.h **** 
 190:./lib/chibios/os/hal/osal/rt/osal.h **** /**
 191:./lib/chibios/os/hal/osal/rt/osal.h ****  * @brief   Type of an event source callback.
 192:./lib/chibios/os/hal/osal/rt/osal.h ****  * @note    This type is not part of the OSAL API and is provided
 193:./lib/chibios/os/hal/osal/rt/osal.h ****  *          exclusively as an example and for convenience.
 194:./lib/chibios/os/hal/osal/rt/osal.h ****  */
 195:./lib/chibios/os/hal/osal/rt/osal.h **** typedef void (*eventcallback_t)(event_source_t *esp);
 196:./lib/chibios/os/hal/osal/rt/osal.h **** 
 197:./lib/chibios/os/hal/osal/rt/osal.h **** /**
 198:./lib/chibios/os/hal/osal/rt/osal.h ****  * @brief   Events source object.
 199:./lib/chibios/os/hal/osal/rt/osal.h ****  * @note    The content of this structure is not part of the API and should
 200:./lib/chibios/os/hal/osal/rt/osal.h ****  *          not be relied upon. Implementers may define this structure in
 201:./lib/chibios/os/hal/osal/rt/osal.h ****  *          an entirely different way.
 202:./lib/chibios/os/hal/osal/rt/osal.h ****  * @note    Retrieval and clearing of the flags are not defined in this
 203:./lib/chibios/os/hal/osal/rt/osal.h ****  *          API and are implementation-dependent.
 204:./lib/chibios/os/hal/osal/rt/osal.h ****  */
 205:./lib/chibios/os/hal/osal/rt/osal.h **** struct event_source {
 206:./lib/chibios/os/hal/osal/rt/osal.h ****   volatile eventflags_t flags;      /**< @brief Stored event flags.         */
 207:./lib/chibios/os/hal/osal/rt/osal.h ****   eventcallback_t       cb;         /**< @brief Event source callback.      */
 208:./lib/chibios/os/hal/osal/rt/osal.h ****   void                  *param;     /**< @brief User defined field.         */
 209:./lib/chibios/os/hal/osal/rt/osal.h **** };
 210:./lib/chibios/os/hal/osal/rt/osal.h **** #endif /* CH_CFG_USE_EVENTS == FALSE */
 211:./lib/chibios/os/hal/osal/rt/osal.h **** 
 212:./lib/chibios/os/hal/osal/rt/osal.h **** /**
 213:./lib/chibios/os/hal/osal/rt/osal.h ****  * @brief   Type of a mutex.
 214:./lib/chibios/os/hal/osal/rt/osal.h ****  * @note    If the OS does not support mutexes or there is no OS then the
 215:./lib/chibios/os/hal/osal/rt/osal.h ****  *          mechanism can be simulated.
 216:./lib/chibios/os/hal/osal/rt/osal.h ****  */
 217:./lib/chibios/os/hal/osal/rt/osal.h **** #if CH_CFG_USE_MUTEXES || defined(__DOXYGEN__)
 218:./lib/chibios/os/hal/osal/rt/osal.h **** #elif CH_CFG_USE_SEMAPHORES
 219:./lib/chibios/os/hal/osal/rt/osal.h **** typedef semaphore_t mutex_t;
 220:./lib/chibios/os/hal/osal/rt/osal.h **** #else
 221:./lib/chibios/os/hal/osal/rt/osal.h **** typedef uint32_t mutex_t;
 222:./lib/chibios/os/hal/osal/rt/osal.h **** #endif
 223:./lib/chibios/os/hal/osal/rt/osal.h **** 
 224:./lib/chibios/os/hal/osal/rt/osal.h **** #if 0
 225:./lib/chibios/os/hal/osal/rt/osal.h **** /**
 226:./lib/chibios/os/hal/osal/rt/osal.h ****  * @brief   Type of a thread queue.
 227:./lib/chibios/os/hal/osal/rt/osal.h ****  * @details A thread queue is a queue of sleeping threads, queued threads
 228:./lib/chibios/os/hal/osal/rt/osal.h ****  *          can be dequeued one at time or all together.
 229:./lib/chibios/os/hal/osal/rt/osal.h ****  * @note    In this implementation it is implemented as a single reference
 230:./lib/chibios/os/hal/osal/rt/osal.h ****  *          because there are no real threads.
 231:./lib/chibios/os/hal/osal/rt/osal.h ****  */
 232:./lib/chibios/os/hal/osal/rt/osal.h **** typedef struct {
 233:./lib/chibios/os/hal/osal/rt/osal.h ****   thread_reference_t    tr;
 234:./lib/chibios/os/hal/osal/rt/osal.h **** } threads_queue_t;
 235:./lib/chibios/os/hal/osal/rt/osal.h **** #endif
 236:./lib/chibios/os/hal/osal/rt/osal.h **** 
 237:./lib/chibios/os/hal/osal/rt/osal.h **** /*===========================================================================*/
 238:./lib/chibios/os/hal/osal/rt/osal.h **** /* Module macros.                                                            */
 239:./lib/chibios/os/hal/osal/rt/osal.h **** /*===========================================================================*/
 240:./lib/chibios/os/hal/osal/rt/osal.h **** 
 241:./lib/chibios/os/hal/osal/rt/osal.h **** /**
 242:./lib/chibios/os/hal/osal/rt/osal.h ****  * @name    Debug related macros
 243:./lib/chibios/os/hal/osal/rt/osal.h ****  * @{
 244:./lib/chibios/os/hal/osal/rt/osal.h ****  */
 245:./lib/chibios/os/hal/osal/rt/osal.h **** /**
 246:./lib/chibios/os/hal/osal/rt/osal.h ****  * @brief   Condition assertion.
 247:./lib/chibios/os/hal/osal/rt/osal.h ****  * @details If the condition check fails then the OSAL panics with a
 248:./lib/chibios/os/hal/osal/rt/osal.h ****  *          message and halts.
 249:./lib/chibios/os/hal/osal/rt/osal.h ****  * @note    The condition is tested only if the @p OSAL_ENABLE_ASSERTIONS
 250:./lib/chibios/os/hal/osal/rt/osal.h ****  *          switch is enabled.
 251:./lib/chibios/os/hal/osal/rt/osal.h ****  * @note    The remark string is not currently used except for putting a
 252:./lib/chibios/os/hal/osal/rt/osal.h ****  *          comment in the code about the assertion.
 253:./lib/chibios/os/hal/osal/rt/osal.h ****  *
 254:./lib/chibios/os/hal/osal/rt/osal.h ****  * @param[in] c         the condition to be verified to be true
 255:./lib/chibios/os/hal/osal/rt/osal.h ****  * @param[in] remark    a remark string
 256:./lib/chibios/os/hal/osal/rt/osal.h ****  *
 257:./lib/chibios/os/hal/osal/rt/osal.h ****  * @api
 258:./lib/chibios/os/hal/osal/rt/osal.h ****  */
 259:./lib/chibios/os/hal/osal/rt/osal.h **** #define osalDbgAssert(c, remark) chDbgAssert(c, remark)
 260:./lib/chibios/os/hal/osal/rt/osal.h **** 
 261:./lib/chibios/os/hal/osal/rt/osal.h **** /**
 262:./lib/chibios/os/hal/osal/rt/osal.h ****  * @brief   Function parameters check.
 263:./lib/chibios/os/hal/osal/rt/osal.h ****  * @details If the condition check fails then the OSAL panics and halts.
 264:./lib/chibios/os/hal/osal/rt/osal.h ****  * @note    The condition is tested only if the @p OSAL_ENABLE_CHECKS switch
 265:./lib/chibios/os/hal/osal/rt/osal.h ****  *          is enabled.
 266:./lib/chibios/os/hal/osal/rt/osal.h ****  *
 267:./lib/chibios/os/hal/osal/rt/osal.h ****  * @param[in] c         the condition to be verified to be true
 268:./lib/chibios/os/hal/osal/rt/osal.h ****  *
 269:./lib/chibios/os/hal/osal/rt/osal.h ****  * @api
 270:./lib/chibios/os/hal/osal/rt/osal.h ****  */
 271:./lib/chibios/os/hal/osal/rt/osal.h **** #define osalDbgCheck(c) chDbgCheck(c)
 272:./lib/chibios/os/hal/osal/rt/osal.h **** 
 273:./lib/chibios/os/hal/osal/rt/osal.h **** /**
 274:./lib/chibios/os/hal/osal/rt/osal.h ****  * @brief   I-Class state check.
 275:./lib/chibios/os/hal/osal/rt/osal.h ****  * @note    Not implemented in this simplified OSAL.
 276:./lib/chibios/os/hal/osal/rt/osal.h ****  */
 277:./lib/chibios/os/hal/osal/rt/osal.h **** #define osalDbgCheckClassI() chDbgCheckClassI()
 278:./lib/chibios/os/hal/osal/rt/osal.h **** 
 279:./lib/chibios/os/hal/osal/rt/osal.h **** /**
 280:./lib/chibios/os/hal/osal/rt/osal.h ****  * @brief   S-Class state check.
 281:./lib/chibios/os/hal/osal/rt/osal.h ****  * @note    Not implemented in this simplified OSAL.
 282:./lib/chibios/os/hal/osal/rt/osal.h ****  */
 283:./lib/chibios/os/hal/osal/rt/osal.h **** #define osalDbgCheckClassS() chDbgCheckClassS()
 284:./lib/chibios/os/hal/osal/rt/osal.h **** /** @} */
 285:./lib/chibios/os/hal/osal/rt/osal.h **** 
 286:./lib/chibios/os/hal/osal/rt/osal.h **** /**
 287:./lib/chibios/os/hal/osal/rt/osal.h ****  * @name    IRQ service routines wrappers
 288:./lib/chibios/os/hal/osal/rt/osal.h ****  * @{
 289:./lib/chibios/os/hal/osal/rt/osal.h ****  */
 290:./lib/chibios/os/hal/osal/rt/osal.h **** /**
 291:./lib/chibios/os/hal/osal/rt/osal.h ****  * @brief   Priority level verification macro.
 292:./lib/chibios/os/hal/osal/rt/osal.h ****  */
 293:./lib/chibios/os/hal/osal/rt/osal.h **** #define OSAL_IRQ_IS_VALID_PRIORITY(n) CH_IRQ_IS_VALID_KERNEL_PRIORITY(n)
 294:./lib/chibios/os/hal/osal/rt/osal.h **** 
 295:./lib/chibios/os/hal/osal/rt/osal.h **** /**
 296:./lib/chibios/os/hal/osal/rt/osal.h ****  * @brief   IRQ prologue code.
 297:./lib/chibios/os/hal/osal/rt/osal.h ****  * @details This macro must be inserted at the start of all IRQ handlers.
 298:./lib/chibios/os/hal/osal/rt/osal.h ****  */
 299:./lib/chibios/os/hal/osal/rt/osal.h **** #define OSAL_IRQ_PROLOGUE() CH_IRQ_PROLOGUE()
 300:./lib/chibios/os/hal/osal/rt/osal.h **** 
 301:./lib/chibios/os/hal/osal/rt/osal.h **** /**
 302:./lib/chibios/os/hal/osal/rt/osal.h ****  * @brief   IRQ epilogue code.
 303:./lib/chibios/os/hal/osal/rt/osal.h ****  * @details This macro must be inserted at the end of all IRQ handlers.
 304:./lib/chibios/os/hal/osal/rt/osal.h ****  */
 305:./lib/chibios/os/hal/osal/rt/osal.h **** #define OSAL_IRQ_EPILOGUE() CH_IRQ_EPILOGUE()
 306:./lib/chibios/os/hal/osal/rt/osal.h **** 
 307:./lib/chibios/os/hal/osal/rt/osal.h **** /**
 308:./lib/chibios/os/hal/osal/rt/osal.h ****  * @brief   IRQ handler function declaration.
 309:./lib/chibios/os/hal/osal/rt/osal.h ****  * @details This macro hides the details of an ISR function declaration.
 310:./lib/chibios/os/hal/osal/rt/osal.h ****  *
 311:./lib/chibios/os/hal/osal/rt/osal.h ****  * @param[in] id        a vector name as defined in @p vectors.s
 312:./lib/chibios/os/hal/osal/rt/osal.h ****  */
 313:./lib/chibios/os/hal/osal/rt/osal.h **** #define OSAL_IRQ_HANDLER(id) CH_IRQ_HANDLER(id)
 314:./lib/chibios/os/hal/osal/rt/osal.h **** /** @} */
 315:./lib/chibios/os/hal/osal/rt/osal.h **** 
 316:./lib/chibios/os/hal/osal/rt/osal.h **** /**
 317:./lib/chibios/os/hal/osal/rt/osal.h ****  * @name    Time conversion utilities
 318:./lib/chibios/os/hal/osal/rt/osal.h ****  * @{
 319:./lib/chibios/os/hal/osal/rt/osal.h ****  */
 320:./lib/chibios/os/hal/osal/rt/osal.h **** /**
 321:./lib/chibios/os/hal/osal/rt/osal.h ****  * @brief   Seconds to system ticks.
 322:./lib/chibios/os/hal/osal/rt/osal.h ****  * @details Converts from seconds to system ticks number.
 323:./lib/chibios/os/hal/osal/rt/osal.h ****  * @note    The result is rounded upward to the next tick boundary.
 324:./lib/chibios/os/hal/osal/rt/osal.h ****  *
 325:./lib/chibios/os/hal/osal/rt/osal.h ****  * @param[in] secs      number of seconds
 326:./lib/chibios/os/hal/osal/rt/osal.h ****  * @return              The number of ticks.
 327:./lib/chibios/os/hal/osal/rt/osal.h ****  *
 328:./lib/chibios/os/hal/osal/rt/osal.h ****  * @api
 329:./lib/chibios/os/hal/osal/rt/osal.h ****  */
 330:./lib/chibios/os/hal/osal/rt/osal.h **** #define OSAL_S2I(secs) TIME_S2I(secs)
 331:./lib/chibios/os/hal/osal/rt/osal.h **** 
 332:./lib/chibios/os/hal/osal/rt/osal.h **** /**
 333:./lib/chibios/os/hal/osal/rt/osal.h ****  * @brief   Milliseconds to system ticks.
 334:./lib/chibios/os/hal/osal/rt/osal.h ****  * @details Converts from milliseconds to system ticks number.
 335:./lib/chibios/os/hal/osal/rt/osal.h ****  * @note    The result is rounded upward to the next tick boundary.
 336:./lib/chibios/os/hal/osal/rt/osal.h ****  *
 337:./lib/chibios/os/hal/osal/rt/osal.h ****  * @param[in] msecs     number of milliseconds
 338:./lib/chibios/os/hal/osal/rt/osal.h ****  * @return              The number of ticks.
 339:./lib/chibios/os/hal/osal/rt/osal.h ****  *
 340:./lib/chibios/os/hal/osal/rt/osal.h ****  * @api
 341:./lib/chibios/os/hal/osal/rt/osal.h ****  */
 342:./lib/chibios/os/hal/osal/rt/osal.h **** #define OSAL_MS2I(msecs) TIME_MS2I(msecs)
 343:./lib/chibios/os/hal/osal/rt/osal.h **** 
 344:./lib/chibios/os/hal/osal/rt/osal.h **** /**
 345:./lib/chibios/os/hal/osal/rt/osal.h ****  * @brief   Microseconds to system ticks.
 346:./lib/chibios/os/hal/osal/rt/osal.h ****  * @details Converts from microseconds to system ticks number.
 347:./lib/chibios/os/hal/osal/rt/osal.h ****  * @note    The result is rounded upward to the next tick boundary.
 348:./lib/chibios/os/hal/osal/rt/osal.h ****  *
 349:./lib/chibios/os/hal/osal/rt/osal.h ****  * @param[in] usecs     number of microseconds
 350:./lib/chibios/os/hal/osal/rt/osal.h ****  * @return              The number of ticks.
 351:./lib/chibios/os/hal/osal/rt/osal.h ****  *
 352:./lib/chibios/os/hal/osal/rt/osal.h ****  * @api
 353:./lib/chibios/os/hal/osal/rt/osal.h ****  */
 354:./lib/chibios/os/hal/osal/rt/osal.h **** #define OSAL_US2I(usecs) TIME_US2I(usecs)
 355:./lib/chibios/os/hal/osal/rt/osal.h **** /** @} */
 356:./lib/chibios/os/hal/osal/rt/osal.h **** 
 357:./lib/chibios/os/hal/osal/rt/osal.h **** /**
 358:./lib/chibios/os/hal/osal/rt/osal.h ****  * @name    Time conversion utilities for the realtime counter
 359:./lib/chibios/os/hal/osal/rt/osal.h ****  * @{
 360:./lib/chibios/os/hal/osal/rt/osal.h ****  */
 361:./lib/chibios/os/hal/osal/rt/osal.h **** /**
 362:./lib/chibios/os/hal/osal/rt/osal.h ****  * @brief   Seconds to realtime counter.
 363:./lib/chibios/os/hal/osal/rt/osal.h ****  * @details Converts from seconds to realtime counter cycles.
 364:./lib/chibios/os/hal/osal/rt/osal.h ****  * @note    The macro assumes that @p freq >= @p 1.
 365:./lib/chibios/os/hal/osal/rt/osal.h ****  *
 366:./lib/chibios/os/hal/osal/rt/osal.h ****  * @param[in] freq      clock frequency, in Hz, of the realtime counter
 367:./lib/chibios/os/hal/osal/rt/osal.h ****  * @param[in] sec       number of seconds
 368:./lib/chibios/os/hal/osal/rt/osal.h ****  * @return              The number of cycles.
 369:./lib/chibios/os/hal/osal/rt/osal.h ****  *
 370:./lib/chibios/os/hal/osal/rt/osal.h ****  * @api
 371:./lib/chibios/os/hal/osal/rt/osal.h ****  */
 372:./lib/chibios/os/hal/osal/rt/osal.h **** #define OSAL_S2RTC(freq, sec) S2RTC(freq, sec)
 373:./lib/chibios/os/hal/osal/rt/osal.h **** 
 374:./lib/chibios/os/hal/osal/rt/osal.h **** /**
 375:./lib/chibios/os/hal/osal/rt/osal.h ****  * @brief   Milliseconds to realtime counter.
 376:./lib/chibios/os/hal/osal/rt/osal.h ****  * @details Converts from milliseconds to realtime counter cycles.
 377:./lib/chibios/os/hal/osal/rt/osal.h ****  * @note    The result is rounded upward to the next millisecond boundary.
 378:./lib/chibios/os/hal/osal/rt/osal.h ****  * @note    The macro assumes that @p freq >= @p 1000.
 379:./lib/chibios/os/hal/osal/rt/osal.h ****  *
 380:./lib/chibios/os/hal/osal/rt/osal.h ****  * @param[in] freq      clock frequency, in Hz, of the realtime counter
 381:./lib/chibios/os/hal/osal/rt/osal.h ****  * @param[in] msec      number of milliseconds
 382:./lib/chibios/os/hal/osal/rt/osal.h ****  * @return              The number of cycles.
 383:./lib/chibios/os/hal/osal/rt/osal.h ****  *
 384:./lib/chibios/os/hal/osal/rt/osal.h ****  * @api
 385:./lib/chibios/os/hal/osal/rt/osal.h ****  */
 386:./lib/chibios/os/hal/osal/rt/osal.h **** #define OSAL_MS2RTC(freq, msec) MS2RTC(freq, msec)
 387:./lib/chibios/os/hal/osal/rt/osal.h **** 
 388:./lib/chibios/os/hal/osal/rt/osal.h **** /**
 389:./lib/chibios/os/hal/osal/rt/osal.h ****  * @brief   Microseconds to realtime counter.
 390:./lib/chibios/os/hal/osal/rt/osal.h ****  * @details Converts from microseconds to realtime counter cycles.
 391:./lib/chibios/os/hal/osal/rt/osal.h ****  * @note    The result is rounded upward to the next microsecond boundary.
 392:./lib/chibios/os/hal/osal/rt/osal.h ****  * @note    The macro assumes that @p freq >= @p 1000000.
 393:./lib/chibios/os/hal/osal/rt/osal.h ****  *
 394:./lib/chibios/os/hal/osal/rt/osal.h ****  * @param[in] freq      clock frequency, in Hz, of the realtime counter
 395:./lib/chibios/os/hal/osal/rt/osal.h ****  * @param[in] usec      number of microseconds
 396:./lib/chibios/os/hal/osal/rt/osal.h ****  * @return              The number of cycles.
 397:./lib/chibios/os/hal/osal/rt/osal.h ****  *
 398:./lib/chibios/os/hal/osal/rt/osal.h ****  * @api
 399:./lib/chibios/os/hal/osal/rt/osal.h ****  */
 400:./lib/chibios/os/hal/osal/rt/osal.h **** #define OSAL_US2RTC(freq, usec) US2RTC(freq, usec)
 401:./lib/chibios/os/hal/osal/rt/osal.h **** /** @} */
 402:./lib/chibios/os/hal/osal/rt/osal.h **** 
 403:./lib/chibios/os/hal/osal/rt/osal.h **** /**
 404:./lib/chibios/os/hal/osal/rt/osal.h ****  * @name    Sleep macros using absolute time
 405:./lib/chibios/os/hal/osal/rt/osal.h ****  * @{
 406:./lib/chibios/os/hal/osal/rt/osal.h ****  */
 407:./lib/chibios/os/hal/osal/rt/osal.h **** /**
 408:./lib/chibios/os/hal/osal/rt/osal.h ****  * @brief   Delays the invoking thread for the specified number of seconds.
 409:./lib/chibios/os/hal/osal/rt/osal.h ****  * @note    The specified time is rounded up to a value allowed by the real
 410:./lib/chibios/os/hal/osal/rt/osal.h ****  *          system tick clock.
 411:./lib/chibios/os/hal/osal/rt/osal.h ****  * @note    The maximum specifiable value is implementation dependent.
 412:./lib/chibios/os/hal/osal/rt/osal.h ****  *
 413:./lib/chibios/os/hal/osal/rt/osal.h ****  * @param[in] secs      time in seconds, must be different from zero
 414:./lib/chibios/os/hal/osal/rt/osal.h ****  *
 415:./lib/chibios/os/hal/osal/rt/osal.h ****  * @api
 416:./lib/chibios/os/hal/osal/rt/osal.h ****  */
 417:./lib/chibios/os/hal/osal/rt/osal.h **** #define osalThreadSleepSeconds(secs) osalThreadSleep(OSAL_S2I(secs))
 418:./lib/chibios/os/hal/osal/rt/osal.h **** 
 419:./lib/chibios/os/hal/osal/rt/osal.h **** /**
 420:./lib/chibios/os/hal/osal/rt/osal.h ****  * @brief   Delays the invoking thread for the specified number of
 421:./lib/chibios/os/hal/osal/rt/osal.h ****  *          milliseconds.
 422:./lib/chibios/os/hal/osal/rt/osal.h ****  * @note    The specified time is rounded up to a value allowed by the real
 423:./lib/chibios/os/hal/osal/rt/osal.h ****  *          system tick clock.
 424:./lib/chibios/os/hal/osal/rt/osal.h ****  * @note    The maximum specifiable value is implementation dependent.
 425:./lib/chibios/os/hal/osal/rt/osal.h ****  *
 426:./lib/chibios/os/hal/osal/rt/osal.h ****  * @param[in] msecs     time in milliseconds, must be different from zero
 427:./lib/chibios/os/hal/osal/rt/osal.h ****  *
 428:./lib/chibios/os/hal/osal/rt/osal.h ****  * @api
 429:./lib/chibios/os/hal/osal/rt/osal.h ****  */
 430:./lib/chibios/os/hal/osal/rt/osal.h **** #define osalThreadSleepMilliseconds(msecs) osalThreadSleep(OSAL_MS2I(msecs))
 431:./lib/chibios/os/hal/osal/rt/osal.h **** 
 432:./lib/chibios/os/hal/osal/rt/osal.h **** /**
 433:./lib/chibios/os/hal/osal/rt/osal.h ****  * @brief   Delays the invoking thread for the specified number of
 434:./lib/chibios/os/hal/osal/rt/osal.h ****  *          microseconds.
 435:./lib/chibios/os/hal/osal/rt/osal.h ****  * @note    The specified time is rounded up to a value allowed by the real
 436:./lib/chibios/os/hal/osal/rt/osal.h ****  *          system tick clock.
 437:./lib/chibios/os/hal/osal/rt/osal.h ****  * @note    The maximum specifiable value is implementation dependent.
 438:./lib/chibios/os/hal/osal/rt/osal.h ****  *
 439:./lib/chibios/os/hal/osal/rt/osal.h ****  * @param[in] usecs     time in microseconds, must be different from zero
 440:./lib/chibios/os/hal/osal/rt/osal.h ****  *
 441:./lib/chibios/os/hal/osal/rt/osal.h ****  * @api
 442:./lib/chibios/os/hal/osal/rt/osal.h ****  */
 443:./lib/chibios/os/hal/osal/rt/osal.h **** #define osalThreadSleepMicroseconds(usecs) osalThreadSleep(OSAL_US2I(usecs))
 444:./lib/chibios/os/hal/osal/rt/osal.h **** /** @} */
 445:./lib/chibios/os/hal/osal/rt/osal.h **** 
 446:./lib/chibios/os/hal/osal/rt/osal.h **** /*===========================================================================*/
 447:./lib/chibios/os/hal/osal/rt/osal.h **** /* External declarations.                                                    */
 448:./lib/chibios/os/hal/osal/rt/osal.h **** /*===========================================================================*/
 449:./lib/chibios/os/hal/osal/rt/osal.h **** 
 450:./lib/chibios/os/hal/osal/rt/osal.h **** #ifdef __cplusplus
 451:./lib/chibios/os/hal/osal/rt/osal.h **** extern "C" {
 452:./lib/chibios/os/hal/osal/rt/osal.h **** #endif
 453:./lib/chibios/os/hal/osal/rt/osal.h **** 
 454:./lib/chibios/os/hal/osal/rt/osal.h **** #ifdef __cplusplus
 455:./lib/chibios/os/hal/osal/rt/osal.h **** }
 456:./lib/chibios/os/hal/osal/rt/osal.h **** #endif
 457:./lib/chibios/os/hal/osal/rt/osal.h **** 
 458:./lib/chibios/os/hal/osal/rt/osal.h **** /*===========================================================================*/
 459:./lib/chibios/os/hal/osal/rt/osal.h **** /* Module inline functions.                                                  */
 460:./lib/chibios/os/hal/osal/rt/osal.h **** /*===========================================================================*/
 461:./lib/chibios/os/hal/osal/rt/osal.h **** 
 462:./lib/chibios/os/hal/osal/rt/osal.h **** /**
 463:./lib/chibios/os/hal/osal/rt/osal.h ****  * @brief   OSAL module initialization.
 464:./lib/chibios/os/hal/osal/rt/osal.h ****  *
 465:./lib/chibios/os/hal/osal/rt/osal.h ****  * @api
 466:./lib/chibios/os/hal/osal/rt/osal.h ****  */
 467:./lib/chibios/os/hal/osal/rt/osal.h **** static inline void osalInit(void) {
 468:./lib/chibios/os/hal/osal/rt/osal.h **** 
 469:./lib/chibios/os/hal/osal/rt/osal.h **** }
 470:./lib/chibios/os/hal/osal/rt/osal.h **** 
 471:./lib/chibios/os/hal/osal/rt/osal.h **** /**
 472:./lib/chibios/os/hal/osal/rt/osal.h ****  * @brief   System halt with error message.
 473:./lib/chibios/os/hal/osal/rt/osal.h ****  *
 474:./lib/chibios/os/hal/osal/rt/osal.h ****  * @param[in] reason    the halt message pointer
 475:./lib/chibios/os/hal/osal/rt/osal.h ****  *
 476:./lib/chibios/os/hal/osal/rt/osal.h ****  * @api
 477:./lib/chibios/os/hal/osal/rt/osal.h ****  */
 478:./lib/chibios/os/hal/osal/rt/osal.h **** static inline void osalSysHalt(const char *reason) {
 479:./lib/chibios/os/hal/osal/rt/osal.h **** 
 480:./lib/chibios/os/hal/osal/rt/osal.h ****   chSysHalt(reason);
 481:./lib/chibios/os/hal/osal/rt/osal.h **** }
 482:./lib/chibios/os/hal/osal/rt/osal.h **** 
 483:./lib/chibios/os/hal/osal/rt/osal.h **** /**
 484:./lib/chibios/os/hal/osal/rt/osal.h ****  * @brief   Disables interrupts globally.
 485:./lib/chibios/os/hal/osal/rt/osal.h ****  *
 486:./lib/chibios/os/hal/osal/rt/osal.h ****  * @special
 487:./lib/chibios/os/hal/osal/rt/osal.h ****  */
 488:./lib/chibios/os/hal/osal/rt/osal.h **** static inline void osalSysDisable(void) {
 489:./lib/chibios/os/hal/osal/rt/osal.h **** 
 490:./lib/chibios/os/hal/osal/rt/osal.h ****   chSysDisable();
 491:./lib/chibios/os/hal/osal/rt/osal.h **** }
 492:./lib/chibios/os/hal/osal/rt/osal.h **** 
 493:./lib/chibios/os/hal/osal/rt/osal.h **** /**
 494:./lib/chibios/os/hal/osal/rt/osal.h ****  * @brief   Enables interrupts globally.
 495:./lib/chibios/os/hal/osal/rt/osal.h ****  *
 496:./lib/chibios/os/hal/osal/rt/osal.h ****  * @special
 497:./lib/chibios/os/hal/osal/rt/osal.h ****  */
 498:./lib/chibios/os/hal/osal/rt/osal.h **** static inline void osalSysEnable(void) {
 499:./lib/chibios/os/hal/osal/rt/osal.h **** 
 500:./lib/chibios/os/hal/osal/rt/osal.h ****   chSysEnable();
 501:./lib/chibios/os/hal/osal/rt/osal.h **** }
 502:./lib/chibios/os/hal/osal/rt/osal.h **** 
 503:./lib/chibios/os/hal/osal/rt/osal.h **** /**
 504:./lib/chibios/os/hal/osal/rt/osal.h ****  * @brief   Enters a critical zone from thread context.
 505:./lib/chibios/os/hal/osal/rt/osal.h ****  * @note    This function cannot be used for reentrant critical zones.
 506:./lib/chibios/os/hal/osal/rt/osal.h ****  *
 507:./lib/chibios/os/hal/osal/rt/osal.h ****  * @special
 508:./lib/chibios/os/hal/osal/rt/osal.h ****  */
 509:./lib/chibios/os/hal/osal/rt/osal.h **** static inline void osalSysLock(void) {
 510:./lib/chibios/os/hal/osal/rt/osal.h **** 
 511:./lib/chibios/os/hal/osal/rt/osal.h ****   chSysLock();
 512:./lib/chibios/os/hal/osal/rt/osal.h **** }
 513:./lib/chibios/os/hal/osal/rt/osal.h **** 
 514:./lib/chibios/os/hal/osal/rt/osal.h **** /**
 515:./lib/chibios/os/hal/osal/rt/osal.h ****  * @brief   Leaves a critical zone from thread context.
 516:./lib/chibios/os/hal/osal/rt/osal.h ****  * @note    This function cannot be used for reentrant critical zones.
 517:./lib/chibios/os/hal/osal/rt/osal.h ****  *
 518:./lib/chibios/os/hal/osal/rt/osal.h ****  * @special
 519:./lib/chibios/os/hal/osal/rt/osal.h ****  */
 520:./lib/chibios/os/hal/osal/rt/osal.h **** static inline void osalSysUnlock(void) {
 521:./lib/chibios/os/hal/osal/rt/osal.h **** 
 522:./lib/chibios/os/hal/osal/rt/osal.h ****   chSysUnlock();
 523:./lib/chibios/os/hal/osal/rt/osal.h **** }
 524:./lib/chibios/os/hal/osal/rt/osal.h **** 
 525:./lib/chibios/os/hal/osal/rt/osal.h **** /**
 526:./lib/chibios/os/hal/osal/rt/osal.h ****  * @brief   Enters a critical zone from ISR context.
 527:./lib/chibios/os/hal/osal/rt/osal.h ****  * @note    This function cannot be used for reentrant critical zones.
 528:./lib/chibios/os/hal/osal/rt/osal.h ****  *
 529:./lib/chibios/os/hal/osal/rt/osal.h ****  * @special
 530:./lib/chibios/os/hal/osal/rt/osal.h ****  */
 531:./lib/chibios/os/hal/osal/rt/osal.h **** static inline void osalSysLockFromISR(void) {
 229              		.loc 2 531 20 view .LVU50
 230              	.LBE386:
 231              	.LBE385:
 232              	.LBE384:
 532:./lib/chibios/os/hal/osal/rt/osal.h **** 
 533:./lib/chibios/os/hal/osal/rt/osal.h ****   chSysLockFromISR();
 233              		.loc 2 533 3 view .LVU51
 234              	.LBB428:
 235              	.LBB419:
 236              	.LBB398:
 237              	.LBB387:
 238              	.LBI387:
 239              		.file 3 "./lib/chibios/os/rt/include/chsys.h"
   1:./lib/chibios/os/rt/include/chsys.h **** /*
   2:./lib/chibios/os/rt/include/chsys.h ****     ChibiOS - Copyright (C) 2006..2018 Giovanni Di Sirio.
   3:./lib/chibios/os/rt/include/chsys.h **** 
   4:./lib/chibios/os/rt/include/chsys.h ****     This file is part of ChibiOS.
   5:./lib/chibios/os/rt/include/chsys.h **** 
   6:./lib/chibios/os/rt/include/chsys.h ****     ChibiOS is free software; you can redistribute it and/or modify
   7:./lib/chibios/os/rt/include/chsys.h ****     it under the terms of the GNU General Public License as published by
   8:./lib/chibios/os/rt/include/chsys.h ****     the Free Software Foundation; either version 3 of the License, or
   9:./lib/chibios/os/rt/include/chsys.h ****     (at your option) any later version.
  10:./lib/chibios/os/rt/include/chsys.h **** 
  11:./lib/chibios/os/rt/include/chsys.h ****     ChibiOS is distributed in the hope that it will be useful,
  12:./lib/chibios/os/rt/include/chsys.h ****     but WITHOUT ANY WARRANTY; without even the implied warranty of
  13:./lib/chibios/os/rt/include/chsys.h ****     MERCHANTABILITY or FITNESS FOR A PARTICULAR PURPOSE.  See the
  14:./lib/chibios/os/rt/include/chsys.h ****     GNU General Public License for more details.
  15:./lib/chibios/os/rt/include/chsys.h **** 
  16:./lib/chibios/os/rt/include/chsys.h ****     You should have received a copy of the GNU General Public License
  17:./lib/chibios/os/rt/include/chsys.h ****     along with this program.  If not, see <http://www.gnu.org/licenses/>.
  18:./lib/chibios/os/rt/include/chsys.h **** */
  19:./lib/chibios/os/rt/include/chsys.h **** 
  20:./lib/chibios/os/rt/include/chsys.h **** /**
  21:./lib/chibios/os/rt/include/chsys.h ****  * @file    chsys.h
  22:./lib/chibios/os/rt/include/chsys.h ****  * @brief   System related macros and structures.
  23:./lib/chibios/os/rt/include/chsys.h ****  *
  24:./lib/chibios/os/rt/include/chsys.h ****  * @addtogroup system
  25:./lib/chibios/os/rt/include/chsys.h ****  * @{
  26:./lib/chibios/os/rt/include/chsys.h ****  */
  27:./lib/chibios/os/rt/include/chsys.h **** 
  28:./lib/chibios/os/rt/include/chsys.h **** #ifndef CHSYS_H
  29:./lib/chibios/os/rt/include/chsys.h **** #define CHSYS_H
  30:./lib/chibios/os/rt/include/chsys.h **** 
  31:./lib/chibios/os/rt/include/chsys.h **** /*lint -sem(chSysHalt, r_no)*/
  32:./lib/chibios/os/rt/include/chsys.h **** 
  33:./lib/chibios/os/rt/include/chsys.h **** /*===========================================================================*/
  34:./lib/chibios/os/rt/include/chsys.h **** /* Module constants.                                                         */
  35:./lib/chibios/os/rt/include/chsys.h **** /*===========================================================================*/
  36:./lib/chibios/os/rt/include/chsys.h **** 
  37:./lib/chibios/os/rt/include/chsys.h **** /**
  38:./lib/chibios/os/rt/include/chsys.h ****  * @name    Masks of executable integrity checks.
  39:./lib/chibios/os/rt/include/chsys.h ****  * @{
  40:./lib/chibios/os/rt/include/chsys.h ****  */
  41:./lib/chibios/os/rt/include/chsys.h **** #define CH_INTEGRITY_RLIST                  1U
  42:./lib/chibios/os/rt/include/chsys.h **** #define CH_INTEGRITY_VTLIST                 2U
  43:./lib/chibios/os/rt/include/chsys.h **** #define CH_INTEGRITY_REGISTRY               4U
  44:./lib/chibios/os/rt/include/chsys.h **** #define CH_INTEGRITY_PORT                   8U
  45:./lib/chibios/os/rt/include/chsys.h **** /** @} */
  46:./lib/chibios/os/rt/include/chsys.h **** 
  47:./lib/chibios/os/rt/include/chsys.h **** /*===========================================================================*/
  48:./lib/chibios/os/rt/include/chsys.h **** /* Module pre-compile time settings.                                         */
  49:./lib/chibios/os/rt/include/chsys.h **** /*===========================================================================*/
  50:./lib/chibios/os/rt/include/chsys.h **** 
  51:./lib/chibios/os/rt/include/chsys.h **** /*===========================================================================*/
  52:./lib/chibios/os/rt/include/chsys.h **** /* Derived constants and error checks.                                       */
  53:./lib/chibios/os/rt/include/chsys.h **** /*===========================================================================*/
  54:./lib/chibios/os/rt/include/chsys.h **** 
  55:./lib/chibios/os/rt/include/chsys.h **** /*===========================================================================*/
  56:./lib/chibios/os/rt/include/chsys.h **** /* Module data structures and types.                                         */
  57:./lib/chibios/os/rt/include/chsys.h **** /*===========================================================================*/
  58:./lib/chibios/os/rt/include/chsys.h **** 
  59:./lib/chibios/os/rt/include/chsys.h **** /*===========================================================================*/
  60:./lib/chibios/os/rt/include/chsys.h **** /* Module macros.                                                            */
  61:./lib/chibios/os/rt/include/chsys.h **** /*===========================================================================*/
  62:./lib/chibios/os/rt/include/chsys.h **** 
  63:./lib/chibios/os/rt/include/chsys.h **** /**
  64:./lib/chibios/os/rt/include/chsys.h ****  * @name    ISRs abstraction macros
  65:./lib/chibios/os/rt/include/chsys.h ****  */
  66:./lib/chibios/os/rt/include/chsys.h **** /**
  67:./lib/chibios/os/rt/include/chsys.h ****  * @brief   Priority level validation macro.
  68:./lib/chibios/os/rt/include/chsys.h ****  * @details This macro determines if the passed value is a valid priority
  69:./lib/chibios/os/rt/include/chsys.h ****  *          level for the underlying architecture.
  70:./lib/chibios/os/rt/include/chsys.h ****  *
  71:./lib/chibios/os/rt/include/chsys.h ****  * @param[in] prio      the priority level
  72:./lib/chibios/os/rt/include/chsys.h ****  * @return              Priority range result.
  73:./lib/chibios/os/rt/include/chsys.h ****  * @retval false        if the priority is invalid or if the architecture
  74:./lib/chibios/os/rt/include/chsys.h ****  *                      does not support priorities.
  75:./lib/chibios/os/rt/include/chsys.h ****  * @retval true         if the priority is valid.
  76:./lib/chibios/os/rt/include/chsys.h ****  */
  77:./lib/chibios/os/rt/include/chsys.h **** #if defined(PORT_IRQ_IS_VALID_PRIORITY) || defined(__DOXYGEN__)
  78:./lib/chibios/os/rt/include/chsys.h **** #define CH_IRQ_IS_VALID_PRIORITY(prio)                                      \
  79:./lib/chibios/os/rt/include/chsys.h ****   PORT_IRQ_IS_VALID_PRIORITY(prio)
  80:./lib/chibios/os/rt/include/chsys.h **** #else
  81:./lib/chibios/os/rt/include/chsys.h **** #define CH_IRQ_IS_VALID_PRIORITY(prio) false
  82:./lib/chibios/os/rt/include/chsys.h **** #endif
  83:./lib/chibios/os/rt/include/chsys.h **** 
  84:./lib/chibios/os/rt/include/chsys.h **** /**
  85:./lib/chibios/os/rt/include/chsys.h ****  * @brief   Priority level validation macro.
  86:./lib/chibios/os/rt/include/chsys.h ****  * @details This macro determines if the passed value is a valid priority
  87:./lib/chibios/os/rt/include/chsys.h ****  *          level that cannot preempt the kernel critical zone.
  88:./lib/chibios/os/rt/include/chsys.h ****  *
  89:./lib/chibios/os/rt/include/chsys.h ****  * @param[in] prio      the priority level
  90:./lib/chibios/os/rt/include/chsys.h ****  * @return              Priority range result.
  91:./lib/chibios/os/rt/include/chsys.h ****  * @retval false        if the priority is invalid or if the architecture
  92:./lib/chibios/os/rt/include/chsys.h ****  *                      does not support priorities.
  93:./lib/chibios/os/rt/include/chsys.h ****  * @retval true         if the priority is valid.
  94:./lib/chibios/os/rt/include/chsys.h ****  */
  95:./lib/chibios/os/rt/include/chsys.h **** #if defined(PORT_IRQ_IS_VALID_KERNEL_PRIORITY) || defined(__DOXYGEN__)
  96:./lib/chibios/os/rt/include/chsys.h **** #define CH_IRQ_IS_VALID_KERNEL_PRIORITY(prio)                               \
  97:./lib/chibios/os/rt/include/chsys.h ****   PORT_IRQ_IS_VALID_KERNEL_PRIORITY(prio)
  98:./lib/chibios/os/rt/include/chsys.h **** #else
  99:./lib/chibios/os/rt/include/chsys.h **** #define CH_IRQ_IS_VALID_KERNEL_PRIORITY(prio) false
 100:./lib/chibios/os/rt/include/chsys.h **** #endif
 101:./lib/chibios/os/rt/include/chsys.h **** 
 102:./lib/chibios/os/rt/include/chsys.h **** /**
 103:./lib/chibios/os/rt/include/chsys.h ****  * @brief   IRQ handler enter code.
 104:./lib/chibios/os/rt/include/chsys.h ****  * @note    Usually IRQ handlers functions are also declared naked.
 105:./lib/chibios/os/rt/include/chsys.h ****  * @note    On some architectures this macro can be empty.
 106:./lib/chibios/os/rt/include/chsys.h ****  *
 107:./lib/chibios/os/rt/include/chsys.h ****  * @special
 108:./lib/chibios/os/rt/include/chsys.h ****  */
 109:./lib/chibios/os/rt/include/chsys.h **** #define CH_IRQ_PROLOGUE()                                                   \
 110:./lib/chibios/os/rt/include/chsys.h ****   PORT_IRQ_PROLOGUE();                                                      \
 111:./lib/chibios/os/rt/include/chsys.h ****   CH_CFG_IRQ_PROLOGUE_HOOK();                                               \
 112:./lib/chibios/os/rt/include/chsys.h ****   _stats_increase_irq();                                                    \
 113:./lib/chibios/os/rt/include/chsys.h ****   _trace_isr_enter(__func__);                                               \
 114:./lib/chibios/os/rt/include/chsys.h ****   _dbg_check_enter_isr()
 115:./lib/chibios/os/rt/include/chsys.h **** 
 116:./lib/chibios/os/rt/include/chsys.h **** /**
 117:./lib/chibios/os/rt/include/chsys.h ****  * @brief   IRQ handler exit code.
 118:./lib/chibios/os/rt/include/chsys.h ****  * @note    Usually IRQ handlers function are also declared naked.
 119:./lib/chibios/os/rt/include/chsys.h ****  * @note    This macro usually performs the final reschedule by using
 120:./lib/chibios/os/rt/include/chsys.h ****  *          @p chSchIsPreemptionRequired() and @p chSchDoReschedule().
 121:./lib/chibios/os/rt/include/chsys.h ****  *
 122:./lib/chibios/os/rt/include/chsys.h ****  * @special
 123:./lib/chibios/os/rt/include/chsys.h ****  */
 124:./lib/chibios/os/rt/include/chsys.h **** #define CH_IRQ_EPILOGUE()                                                   \
 125:./lib/chibios/os/rt/include/chsys.h ****   _dbg_check_leave_isr();                                                   \
 126:./lib/chibios/os/rt/include/chsys.h ****   _trace_isr_leave(__func__);                                               \
 127:./lib/chibios/os/rt/include/chsys.h ****   CH_CFG_IRQ_EPILOGUE_HOOK();                                               \
 128:./lib/chibios/os/rt/include/chsys.h ****   PORT_IRQ_EPILOGUE()
 129:./lib/chibios/os/rt/include/chsys.h **** 
 130:./lib/chibios/os/rt/include/chsys.h **** /**
 131:./lib/chibios/os/rt/include/chsys.h ****  * @brief   Standard normal IRQ handler declaration.
 132:./lib/chibios/os/rt/include/chsys.h ****  * @note    @p id can be a function name or a vector number depending on the
 133:./lib/chibios/os/rt/include/chsys.h ****  *          port implementation.
 134:./lib/chibios/os/rt/include/chsys.h ****  *
 135:./lib/chibios/os/rt/include/chsys.h ****  * @special
 136:./lib/chibios/os/rt/include/chsys.h ****  */
 137:./lib/chibios/os/rt/include/chsys.h **** #define CH_IRQ_HANDLER(id) PORT_IRQ_HANDLER(id)
 138:./lib/chibios/os/rt/include/chsys.h **** /** @} */
 139:./lib/chibios/os/rt/include/chsys.h **** 
 140:./lib/chibios/os/rt/include/chsys.h **** /**
 141:./lib/chibios/os/rt/include/chsys.h ****  * @name    Fast ISRs abstraction macros
 142:./lib/chibios/os/rt/include/chsys.h ****  */
 143:./lib/chibios/os/rt/include/chsys.h **** /**
 144:./lib/chibios/os/rt/include/chsys.h ****  * @brief   Standard fast IRQ handler declaration.
 145:./lib/chibios/os/rt/include/chsys.h ****  * @note    @p id can be a function name or a vector number depending on the
 146:./lib/chibios/os/rt/include/chsys.h ****  *          port implementation.
 147:./lib/chibios/os/rt/include/chsys.h ****  * @note    Not all architectures support fast interrupts.
 148:./lib/chibios/os/rt/include/chsys.h ****  *
 149:./lib/chibios/os/rt/include/chsys.h ****  * @special
 150:./lib/chibios/os/rt/include/chsys.h ****  */
 151:./lib/chibios/os/rt/include/chsys.h **** #define CH_FAST_IRQ_HANDLER(id) PORT_FAST_IRQ_HANDLER(id)
 152:./lib/chibios/os/rt/include/chsys.h **** /** @} */
 153:./lib/chibios/os/rt/include/chsys.h **** 
 154:./lib/chibios/os/rt/include/chsys.h **** /**
 155:./lib/chibios/os/rt/include/chsys.h ****  * @name    Time conversion utilities for the realtime counter
 156:./lib/chibios/os/rt/include/chsys.h ****  * @{
 157:./lib/chibios/os/rt/include/chsys.h ****  */
 158:./lib/chibios/os/rt/include/chsys.h **** /**
 159:./lib/chibios/os/rt/include/chsys.h ****  * @brief   Seconds to realtime counter.
 160:./lib/chibios/os/rt/include/chsys.h ****  * @details Converts from seconds to realtime counter cycles.
 161:./lib/chibios/os/rt/include/chsys.h ****  * @note    The macro assumes that @p freq >= @p 1.
 162:./lib/chibios/os/rt/include/chsys.h ****  *
 163:./lib/chibios/os/rt/include/chsys.h ****  * @param[in] freq      clock frequency, in Hz, of the realtime counter
 164:./lib/chibios/os/rt/include/chsys.h ****  * @param[in] sec       number of seconds
 165:./lib/chibios/os/rt/include/chsys.h ****  * @return              The number of cycles.
 166:./lib/chibios/os/rt/include/chsys.h ****  *
 167:./lib/chibios/os/rt/include/chsys.h ****  * @api
 168:./lib/chibios/os/rt/include/chsys.h ****  */
 169:./lib/chibios/os/rt/include/chsys.h **** #define S2RTC(freq, sec) ((freq) * (sec))
 170:./lib/chibios/os/rt/include/chsys.h **** 
 171:./lib/chibios/os/rt/include/chsys.h **** /**
 172:./lib/chibios/os/rt/include/chsys.h ****  * @brief   Milliseconds to realtime counter.
 173:./lib/chibios/os/rt/include/chsys.h ****  * @details Converts from milliseconds to realtime counter cycles.
 174:./lib/chibios/os/rt/include/chsys.h ****  * @note    The result is rounded upward to the next millisecond boundary.
 175:./lib/chibios/os/rt/include/chsys.h ****  * @note    The macro assumes that @p freq >= @p 1000.
 176:./lib/chibios/os/rt/include/chsys.h ****  *
 177:./lib/chibios/os/rt/include/chsys.h ****  * @param[in] freq      clock frequency, in Hz, of the realtime counter
 178:./lib/chibios/os/rt/include/chsys.h ****  * @param[in] msec      number of milliseconds
 179:./lib/chibios/os/rt/include/chsys.h ****  * @return              The number of cycles.
 180:./lib/chibios/os/rt/include/chsys.h ****  *
 181:./lib/chibios/os/rt/include/chsys.h ****  * @api
 182:./lib/chibios/os/rt/include/chsys.h ****  */
 183:./lib/chibios/os/rt/include/chsys.h **** #define MS2RTC(freq, msec) (rtcnt_t)((((freq) + 999UL) / 1000UL) * (msec))
 184:./lib/chibios/os/rt/include/chsys.h **** 
 185:./lib/chibios/os/rt/include/chsys.h **** /**
 186:./lib/chibios/os/rt/include/chsys.h ****  * @brief   Microseconds to realtime counter.
 187:./lib/chibios/os/rt/include/chsys.h ****  * @details Converts from microseconds to realtime counter cycles.
 188:./lib/chibios/os/rt/include/chsys.h ****  * @note    The result is rounded upward to the next microsecond boundary.
 189:./lib/chibios/os/rt/include/chsys.h ****  * @note    The macro assumes that @p freq >= @p 1000000.
 190:./lib/chibios/os/rt/include/chsys.h ****  *
 191:./lib/chibios/os/rt/include/chsys.h ****  * @param[in] freq      clock frequency, in Hz, of the realtime counter
 192:./lib/chibios/os/rt/include/chsys.h ****  * @param[in] usec      number of microseconds
 193:./lib/chibios/os/rt/include/chsys.h ****  * @return              The number of cycles.
 194:./lib/chibios/os/rt/include/chsys.h ****  *
 195:./lib/chibios/os/rt/include/chsys.h ****  * @api
 196:./lib/chibios/os/rt/include/chsys.h ****  */
 197:./lib/chibios/os/rt/include/chsys.h **** #define US2RTC(freq, usec) (rtcnt_t)((((freq) + 999999UL) / 1000000UL) * (usec))
 198:./lib/chibios/os/rt/include/chsys.h **** 
 199:./lib/chibios/os/rt/include/chsys.h **** /**
 200:./lib/chibios/os/rt/include/chsys.h ****  * @brief   Realtime counter cycles to seconds.
 201:./lib/chibios/os/rt/include/chsys.h ****  * @details Converts from realtime counter cycles number to seconds.
 202:./lib/chibios/os/rt/include/chsys.h ****  * @note    The result is rounded up to the next second boundary.
 203:./lib/chibios/os/rt/include/chsys.h ****  * @note    The macro assumes that @p freq >= @p 1.
 204:./lib/chibios/os/rt/include/chsys.h ****  *
 205:./lib/chibios/os/rt/include/chsys.h ****  * @param[in] freq      clock frequency, in Hz, of the realtime counter
 206:./lib/chibios/os/rt/include/chsys.h ****  * @param[in] n         number of cycles
 207:./lib/chibios/os/rt/include/chsys.h ****  * @return              The number of seconds.
 208:./lib/chibios/os/rt/include/chsys.h ****  *
 209:./lib/chibios/os/rt/include/chsys.h ****  * @api
 210:./lib/chibios/os/rt/include/chsys.h ****  */
 211:./lib/chibios/os/rt/include/chsys.h **** #define RTC2S(freq, n) ((((n) - 1UL) / (freq)) + 1UL)
 212:./lib/chibios/os/rt/include/chsys.h **** 
 213:./lib/chibios/os/rt/include/chsys.h **** /**
 214:./lib/chibios/os/rt/include/chsys.h ****  * @brief   Realtime counter cycles to milliseconds.
 215:./lib/chibios/os/rt/include/chsys.h ****  * @details Converts from realtime counter cycles number to milliseconds.
 216:./lib/chibios/os/rt/include/chsys.h ****  * @note    The result is rounded up to the next millisecond boundary.
 217:./lib/chibios/os/rt/include/chsys.h ****  * @note    The macro assumes that @p freq >= @p 1000.
 218:./lib/chibios/os/rt/include/chsys.h ****  *
 219:./lib/chibios/os/rt/include/chsys.h ****  * @param[in] freq      clock frequency, in Hz, of the realtime counter
 220:./lib/chibios/os/rt/include/chsys.h ****  * @param[in] n         number of cycles
 221:./lib/chibios/os/rt/include/chsys.h ****  * @return              The number of milliseconds.
 222:./lib/chibios/os/rt/include/chsys.h ****  *
 223:./lib/chibios/os/rt/include/chsys.h ****  * @api
 224:./lib/chibios/os/rt/include/chsys.h ****  */
 225:./lib/chibios/os/rt/include/chsys.h **** #define RTC2MS(freq, n) ((((n) - 1UL) / ((freq) / 1000UL)) + 1UL)
 226:./lib/chibios/os/rt/include/chsys.h **** 
 227:./lib/chibios/os/rt/include/chsys.h **** /**
 228:./lib/chibios/os/rt/include/chsys.h ****  * @brief   Realtime counter cycles to microseconds.
 229:./lib/chibios/os/rt/include/chsys.h ****  * @details Converts from realtime counter cycles number to microseconds.
 230:./lib/chibios/os/rt/include/chsys.h ****  * @note    The result is rounded up to the next microsecond boundary.
 231:./lib/chibios/os/rt/include/chsys.h ****  * @note    The macro assumes that @p freq >= @p 1000000.
 232:./lib/chibios/os/rt/include/chsys.h ****  *
 233:./lib/chibios/os/rt/include/chsys.h ****  * @param[in] freq      clock frequency, in Hz, of the realtime counter
 234:./lib/chibios/os/rt/include/chsys.h ****  * @param[in] n         number of cycles
 235:./lib/chibios/os/rt/include/chsys.h ****  * @return              The number of microseconds.
 236:./lib/chibios/os/rt/include/chsys.h ****  *
 237:./lib/chibios/os/rt/include/chsys.h ****  * @api
 238:./lib/chibios/os/rt/include/chsys.h ****  */
 239:./lib/chibios/os/rt/include/chsys.h **** #define RTC2US(freq, n) ((((n) - 1UL) / ((freq) / 1000000UL)) + 1UL)
 240:./lib/chibios/os/rt/include/chsys.h **** /** @} */
 241:./lib/chibios/os/rt/include/chsys.h **** 
 242:./lib/chibios/os/rt/include/chsys.h **** /**
 243:./lib/chibios/os/rt/include/chsys.h ****  * @brief   Returns the current value of the system real time counter.
 244:./lib/chibios/os/rt/include/chsys.h ****  * @note    This function is only available if the port layer supports the
 245:./lib/chibios/os/rt/include/chsys.h ****  *          option @p PORT_SUPPORTS_RT.
 246:./lib/chibios/os/rt/include/chsys.h ****  *
 247:./lib/chibios/os/rt/include/chsys.h ****  * @return              The value of the system realtime counter of
 248:./lib/chibios/os/rt/include/chsys.h ****  *                      type rtcnt_t.
 249:./lib/chibios/os/rt/include/chsys.h ****  *
 250:./lib/chibios/os/rt/include/chsys.h ****  * @xclass
 251:./lib/chibios/os/rt/include/chsys.h ****  */
 252:./lib/chibios/os/rt/include/chsys.h **** #if (PORT_SUPPORTS_RT == TRUE) || defined(__DOXYGEN__)
 253:./lib/chibios/os/rt/include/chsys.h **** #define chSysGetRealtimeCounterX() (rtcnt_t)port_rt_get_counter_value()
 254:./lib/chibios/os/rt/include/chsys.h **** #endif
 255:./lib/chibios/os/rt/include/chsys.h **** 
 256:./lib/chibios/os/rt/include/chsys.h **** /**
 257:./lib/chibios/os/rt/include/chsys.h ****  * @brief   Performs a context switch.
 258:./lib/chibios/os/rt/include/chsys.h ****  * @note    Not a user function, it is meant to be invoked by the scheduler
 259:./lib/chibios/os/rt/include/chsys.h ****  *          itself or from within the port layer.
 260:./lib/chibios/os/rt/include/chsys.h ****  *
 261:./lib/chibios/os/rt/include/chsys.h ****  * @param[in] ntp       the thread to be switched in
 262:./lib/chibios/os/rt/include/chsys.h ****  * @param[in] otp       the thread to be switched out
 263:./lib/chibios/os/rt/include/chsys.h ****  *
 264:./lib/chibios/os/rt/include/chsys.h ****  * @special
 265:./lib/chibios/os/rt/include/chsys.h ****  */
 266:./lib/chibios/os/rt/include/chsys.h **** #define chSysSwitch(ntp, otp) {                                             \
 267:./lib/chibios/os/rt/include/chsys.h ****                                                                             \
 268:./lib/chibios/os/rt/include/chsys.h ****   _trace_switch(ntp, otp);                                                  \
 269:./lib/chibios/os/rt/include/chsys.h ****   _stats_ctxswc(ntp, otp);                                                  \
 270:./lib/chibios/os/rt/include/chsys.h ****   CH_CFG_CONTEXT_SWITCH_HOOK(ntp, otp);                                     \
 271:./lib/chibios/os/rt/include/chsys.h ****   port_switch(ntp, otp);                                                    \
 272:./lib/chibios/os/rt/include/chsys.h **** }
 273:./lib/chibios/os/rt/include/chsys.h **** 
 274:./lib/chibios/os/rt/include/chsys.h **** /*===========================================================================*/
 275:./lib/chibios/os/rt/include/chsys.h **** /* External declarations.                                                    */
 276:./lib/chibios/os/rt/include/chsys.h **** /*===========================================================================*/
 277:./lib/chibios/os/rt/include/chsys.h **** 
 278:./lib/chibios/os/rt/include/chsys.h **** #if !defined(__DOXYGEN__)
 279:./lib/chibios/os/rt/include/chsys.h **** extern stkalign_t ch_idle_thread_wa[];
 280:./lib/chibios/os/rt/include/chsys.h **** #endif
 281:./lib/chibios/os/rt/include/chsys.h **** 
 282:./lib/chibios/os/rt/include/chsys.h **** #ifdef __cplusplus
 283:./lib/chibios/os/rt/include/chsys.h **** extern "C" {
 284:./lib/chibios/os/rt/include/chsys.h **** #endif
 285:./lib/chibios/os/rt/include/chsys.h ****   void chSysInit(void);
 286:./lib/chibios/os/rt/include/chsys.h ****   bool chSysIntegrityCheckI(unsigned testmask);
 287:./lib/chibios/os/rt/include/chsys.h ****   void chSysTimerHandlerI(void);
 288:./lib/chibios/os/rt/include/chsys.h ****   syssts_t chSysGetStatusAndLockX(void);
 289:./lib/chibios/os/rt/include/chsys.h ****   void chSysRestoreStatusX(syssts_t sts);
 290:./lib/chibios/os/rt/include/chsys.h **** #if PORT_SUPPORTS_RT == TRUE
 291:./lib/chibios/os/rt/include/chsys.h ****   bool chSysIsCounterWithinX(rtcnt_t cnt, rtcnt_t start, rtcnt_t end);
 292:./lib/chibios/os/rt/include/chsys.h ****   void chSysPolledDelayX(rtcnt_t cycles);
 293:./lib/chibios/os/rt/include/chsys.h **** #endif
 294:./lib/chibios/os/rt/include/chsys.h **** #ifdef __cplusplus
 295:./lib/chibios/os/rt/include/chsys.h **** }
 296:./lib/chibios/os/rt/include/chsys.h **** #endif
 297:./lib/chibios/os/rt/include/chsys.h **** 
 298:./lib/chibios/os/rt/include/chsys.h **** /*===========================================================================*/
 299:./lib/chibios/os/rt/include/chsys.h **** /* Module inline functions.                                                  */
 300:./lib/chibios/os/rt/include/chsys.h **** /*===========================================================================*/
 301:./lib/chibios/os/rt/include/chsys.h **** 
 302:./lib/chibios/os/rt/include/chsys.h **** /**
 303:./lib/chibios/os/rt/include/chsys.h ****  * @brief   Raises the system interrupt priority mask to the maximum level.
 304:./lib/chibios/os/rt/include/chsys.h ****  * @details All the maskable interrupt sources are disabled regardless their
 305:./lib/chibios/os/rt/include/chsys.h ****  *          hardware priority.
 306:./lib/chibios/os/rt/include/chsys.h ****  * @note    Do not invoke this API from within a kernel lock.
 307:./lib/chibios/os/rt/include/chsys.h ****  *
 308:./lib/chibios/os/rt/include/chsys.h ****  * @special
 309:./lib/chibios/os/rt/include/chsys.h ****  */
 310:./lib/chibios/os/rt/include/chsys.h **** static inline void chSysDisable(void) {
 311:./lib/chibios/os/rt/include/chsys.h **** 
 312:./lib/chibios/os/rt/include/chsys.h ****   port_disable();
 313:./lib/chibios/os/rt/include/chsys.h ****   _dbg_check_disable();
 314:./lib/chibios/os/rt/include/chsys.h **** }
 315:./lib/chibios/os/rt/include/chsys.h **** 
 316:./lib/chibios/os/rt/include/chsys.h **** /**
 317:./lib/chibios/os/rt/include/chsys.h ****  * @brief   Raises the system interrupt priority mask to system level.
 318:./lib/chibios/os/rt/include/chsys.h ****  * @details The interrupt sources that should not be able to preempt the kernel
 319:./lib/chibios/os/rt/include/chsys.h ****  *          are disabled, interrupt sources with higher priority are still
 320:./lib/chibios/os/rt/include/chsys.h ****  *          enabled.
 321:./lib/chibios/os/rt/include/chsys.h ****  * @note    Do not invoke this API from within a kernel lock.
 322:./lib/chibios/os/rt/include/chsys.h ****  * @note    This API is no replacement for @p chSysLock(), the @p chSysLock()
 323:./lib/chibios/os/rt/include/chsys.h ****  *          could do more than just disable the interrupts.
 324:./lib/chibios/os/rt/include/chsys.h ****  *
 325:./lib/chibios/os/rt/include/chsys.h ****  * @special
 326:./lib/chibios/os/rt/include/chsys.h ****  */
 327:./lib/chibios/os/rt/include/chsys.h **** static inline void chSysSuspend(void) {
 328:./lib/chibios/os/rt/include/chsys.h **** 
 329:./lib/chibios/os/rt/include/chsys.h ****   port_suspend();
 330:./lib/chibios/os/rt/include/chsys.h ****   _dbg_check_suspend();
 331:./lib/chibios/os/rt/include/chsys.h **** }
 332:./lib/chibios/os/rt/include/chsys.h **** 
 333:./lib/chibios/os/rt/include/chsys.h **** /**
 334:./lib/chibios/os/rt/include/chsys.h ****  * @brief   Lowers the system interrupt priority mask to user level.
 335:./lib/chibios/os/rt/include/chsys.h ****  * @details All the interrupt sources are enabled.
 336:./lib/chibios/os/rt/include/chsys.h ****  * @note    Do not invoke this API from within a kernel lock.
 337:./lib/chibios/os/rt/include/chsys.h ****  * @note    This API is no replacement for @p chSysUnlock(), the
 338:./lib/chibios/os/rt/include/chsys.h ****  *          @p chSysUnlock() could do more than just enable the interrupts.
 339:./lib/chibios/os/rt/include/chsys.h ****  *
 340:./lib/chibios/os/rt/include/chsys.h ****  * @special
 341:./lib/chibios/os/rt/include/chsys.h ****  */
 342:./lib/chibios/os/rt/include/chsys.h **** static inline void chSysEnable(void) {
 343:./lib/chibios/os/rt/include/chsys.h **** 
 344:./lib/chibios/os/rt/include/chsys.h ****   _dbg_check_enable();
 345:./lib/chibios/os/rt/include/chsys.h ****   port_enable();
 346:./lib/chibios/os/rt/include/chsys.h **** }
 347:./lib/chibios/os/rt/include/chsys.h **** 
 348:./lib/chibios/os/rt/include/chsys.h **** /**
 349:./lib/chibios/os/rt/include/chsys.h ****  * @brief   Enters the kernel lock state.
 350:./lib/chibios/os/rt/include/chsys.h ****  *
 351:./lib/chibios/os/rt/include/chsys.h ****  * @special
 352:./lib/chibios/os/rt/include/chsys.h ****  */
 353:./lib/chibios/os/rt/include/chsys.h **** static inline void chSysLock(void) {
 354:./lib/chibios/os/rt/include/chsys.h **** 
 355:./lib/chibios/os/rt/include/chsys.h ****   port_lock();
 356:./lib/chibios/os/rt/include/chsys.h ****   _stats_start_measure_crit_thd();
 357:./lib/chibios/os/rt/include/chsys.h ****   _dbg_check_lock();
 358:./lib/chibios/os/rt/include/chsys.h **** }
 359:./lib/chibios/os/rt/include/chsys.h **** 
 360:./lib/chibios/os/rt/include/chsys.h **** /**
 361:./lib/chibios/os/rt/include/chsys.h ****  * @brief   Leaves the kernel lock state.
 362:./lib/chibios/os/rt/include/chsys.h ****  *
 363:./lib/chibios/os/rt/include/chsys.h ****  * @special
 364:./lib/chibios/os/rt/include/chsys.h ****  */
 365:./lib/chibios/os/rt/include/chsys.h **** static inline void chSysUnlock(void) {
 366:./lib/chibios/os/rt/include/chsys.h **** 
 367:./lib/chibios/os/rt/include/chsys.h ****   _dbg_check_unlock();
 368:./lib/chibios/os/rt/include/chsys.h ****   _stats_stop_measure_crit_thd();
 369:./lib/chibios/os/rt/include/chsys.h **** 
 370:./lib/chibios/os/rt/include/chsys.h ****   /* The following condition can be triggered by the use of i-class functions
 371:./lib/chibios/os/rt/include/chsys.h ****      in a critical section not followed by a chSchResceduleS(), this means
 372:./lib/chibios/os/rt/include/chsys.h ****      that the current thread has a lower priority than the next thread in
 373:./lib/chibios/os/rt/include/chsys.h ****      the ready list.*/
 374:./lib/chibios/os/rt/include/chsys.h ****   chDbgAssert((ch.rlist.queue.next == (thread_t *)&ch.rlist.queue) ||
 375:./lib/chibios/os/rt/include/chsys.h ****               (ch.rlist.current->prio >= ch.rlist.queue.next->prio),
 376:./lib/chibios/os/rt/include/chsys.h ****               "priority order violation");
 377:./lib/chibios/os/rt/include/chsys.h **** 
 378:./lib/chibios/os/rt/include/chsys.h ****   port_unlock();
 379:./lib/chibios/os/rt/include/chsys.h **** }
 380:./lib/chibios/os/rt/include/chsys.h **** 
 381:./lib/chibios/os/rt/include/chsys.h **** /**
 382:./lib/chibios/os/rt/include/chsys.h ****  * @brief   Enters the kernel lock state from within an interrupt handler.
 383:./lib/chibios/os/rt/include/chsys.h ****  * @note    This API may do nothing on some architectures, it is required
 384:./lib/chibios/os/rt/include/chsys.h ****  *          because on ports that support preemptable interrupt handlers
 385:./lib/chibios/os/rt/include/chsys.h ****  *          it is required to raise the interrupt mask to the same level of
 386:./lib/chibios/os/rt/include/chsys.h ****  *          the system mutual exclusion zone.<br>
 387:./lib/chibios/os/rt/include/chsys.h ****  *          It is good practice to invoke this API before invoking any I-class
 388:./lib/chibios/os/rt/include/chsys.h ****  *          syscall from an interrupt handler.
 389:./lib/chibios/os/rt/include/chsys.h ****  * @note    This API must be invoked exclusively from interrupt handlers.
 390:./lib/chibios/os/rt/include/chsys.h ****  *
 391:./lib/chibios/os/rt/include/chsys.h ****  * @special
 392:./lib/chibios/os/rt/include/chsys.h ****  */
 393:./lib/chibios/os/rt/include/chsys.h **** static inline void chSysLockFromISR(void) {
 240              		.loc 3 393 20 view .LVU52
 241              	.LBE387:
 242              	.LBE398:
 243              	.LBE419:
 244              	.LBE428:
 394:./lib/chibios/os/rt/include/chsys.h **** 
 395:./lib/chibios/os/rt/include/chsys.h ****   port_lock_from_isr();
 245              		.loc 3 395 3 view .LVU53
 246              	.LBB429:
 247              	.LBB420:
 248              	.LBB399:
 249              	.LBB395:
 250              	.LBB388:
 251              	.LBI388:
 252              		.file 4 "./lib/chibios/os/common/ports/ARMCMx/chcore_v6m.h"
   1:./lib/chibios/os/common/ports/ARMCMx/chcore_v6m.h **** /*
   2:./lib/chibios/os/common/ports/ARMCMx/chcore_v6m.h ****     ChibiOS - Copyright (C) 2006..2018 Giovanni Di Sirio.
   3:./lib/chibios/os/common/ports/ARMCMx/chcore_v6m.h **** 
   4:./lib/chibios/os/common/ports/ARMCMx/chcore_v6m.h ****     This file is part of ChibiOS.
   5:./lib/chibios/os/common/ports/ARMCMx/chcore_v6m.h **** 
   6:./lib/chibios/os/common/ports/ARMCMx/chcore_v6m.h ****     ChibiOS is free software; you can redistribute it and/or modify
   7:./lib/chibios/os/common/ports/ARMCMx/chcore_v6m.h ****     it under the terms of the GNU General Public License as published by
   8:./lib/chibios/os/common/ports/ARMCMx/chcore_v6m.h ****     the Free Software Foundation; either version 3 of the License, or
   9:./lib/chibios/os/common/ports/ARMCMx/chcore_v6m.h ****     (at your option) any later version.
  10:./lib/chibios/os/common/ports/ARMCMx/chcore_v6m.h **** 
  11:./lib/chibios/os/common/ports/ARMCMx/chcore_v6m.h ****     ChibiOS is distributed in the hope that it will be useful,
  12:./lib/chibios/os/common/ports/ARMCMx/chcore_v6m.h ****     but WITHOUT ANY WARRANTY; without even the implied warranty of
  13:./lib/chibios/os/common/ports/ARMCMx/chcore_v6m.h ****     MERCHANTABILITY or FITNESS FOR A PARTICULAR PURPOSE.  See the
  14:./lib/chibios/os/common/ports/ARMCMx/chcore_v6m.h ****     GNU General Public License for more details.
  15:./lib/chibios/os/common/ports/ARMCMx/chcore_v6m.h **** 
  16:./lib/chibios/os/common/ports/ARMCMx/chcore_v6m.h ****     You should have received a copy of the GNU General Public License
  17:./lib/chibios/os/common/ports/ARMCMx/chcore_v6m.h ****     along with this program.  If not, see <http://www.gnu.org/licenses/>.
  18:./lib/chibios/os/common/ports/ARMCMx/chcore_v6m.h **** */
  19:./lib/chibios/os/common/ports/ARMCMx/chcore_v6m.h **** 
  20:./lib/chibios/os/common/ports/ARMCMx/chcore_v6m.h **** /**
  21:./lib/chibios/os/common/ports/ARMCMx/chcore_v6m.h ****  * @file    chcore_v6m.h
  22:./lib/chibios/os/common/ports/ARMCMx/chcore_v6m.h ****  * @brief   ARMv6-M architecture port macros and structures.
  23:./lib/chibios/os/common/ports/ARMCMx/chcore_v6m.h ****  *
  24:./lib/chibios/os/common/ports/ARMCMx/chcore_v6m.h ****  * @addtogroup ARMCMx_V6M_CORE
  25:./lib/chibios/os/common/ports/ARMCMx/chcore_v6m.h ****  * @{
  26:./lib/chibios/os/common/ports/ARMCMx/chcore_v6m.h ****  */
  27:./lib/chibios/os/common/ports/ARMCMx/chcore_v6m.h **** 
  28:./lib/chibios/os/common/ports/ARMCMx/chcore_v6m.h **** #ifndef CHCORE_V6M_H
  29:./lib/chibios/os/common/ports/ARMCMx/chcore_v6m.h **** #define CHCORE_V6M_H
  30:./lib/chibios/os/common/ports/ARMCMx/chcore_v6m.h **** 
  31:./lib/chibios/os/common/ports/ARMCMx/chcore_v6m.h **** /*===========================================================================*/
  32:./lib/chibios/os/common/ports/ARMCMx/chcore_v6m.h **** /* Module constants.                                                         */
  33:./lib/chibios/os/common/ports/ARMCMx/chcore_v6m.h **** /*===========================================================================*/
  34:./lib/chibios/os/common/ports/ARMCMx/chcore_v6m.h **** 
  35:./lib/chibios/os/common/ports/ARMCMx/chcore_v6m.h **** /**
  36:./lib/chibios/os/common/ports/ARMCMx/chcore_v6m.h ****  * @name    Port Capabilities and Constants
  37:./lib/chibios/os/common/ports/ARMCMx/chcore_v6m.h ****  * @{
  38:./lib/chibios/os/common/ports/ARMCMx/chcore_v6m.h ****  */
  39:./lib/chibios/os/common/ports/ARMCMx/chcore_v6m.h **** /**
  40:./lib/chibios/os/common/ports/ARMCMx/chcore_v6m.h ****  * @brief   This port supports a realtime counter.
  41:./lib/chibios/os/common/ports/ARMCMx/chcore_v6m.h ****  */
  42:./lib/chibios/os/common/ports/ARMCMx/chcore_v6m.h **** #define PORT_SUPPORTS_RT                FALSE
  43:./lib/chibios/os/common/ports/ARMCMx/chcore_v6m.h **** 
  44:./lib/chibios/os/common/ports/ARMCMx/chcore_v6m.h **** /**
  45:./lib/chibios/os/common/ports/ARMCMx/chcore_v6m.h ****  * @brief   Natural alignment constant.
  46:./lib/chibios/os/common/ports/ARMCMx/chcore_v6m.h ****  * @note    It is the minimum alignment for pointer-size variables.
  47:./lib/chibios/os/common/ports/ARMCMx/chcore_v6m.h ****  */
  48:./lib/chibios/os/common/ports/ARMCMx/chcore_v6m.h **** #define PORT_NATURAL_ALIGN              sizeof (void *)
  49:./lib/chibios/os/common/ports/ARMCMx/chcore_v6m.h **** 
  50:./lib/chibios/os/common/ports/ARMCMx/chcore_v6m.h **** /**
  51:./lib/chibios/os/common/ports/ARMCMx/chcore_v6m.h ****  * @brief   Stack alignment constant.
  52:./lib/chibios/os/common/ports/ARMCMx/chcore_v6m.h ****  * @note    It is the alignment required for the stack pointer.
  53:./lib/chibios/os/common/ports/ARMCMx/chcore_v6m.h ****  */
  54:./lib/chibios/os/common/ports/ARMCMx/chcore_v6m.h **** #define PORT_STACK_ALIGN                sizeof (stkalign_t)
  55:./lib/chibios/os/common/ports/ARMCMx/chcore_v6m.h **** 
  56:./lib/chibios/os/common/ports/ARMCMx/chcore_v6m.h **** /**
  57:./lib/chibios/os/common/ports/ARMCMx/chcore_v6m.h ****  * @brief   Working Areas alignment constant.
  58:./lib/chibios/os/common/ports/ARMCMx/chcore_v6m.h ****  * @note    It is the alignment to be enforced for thread working areas.
  59:./lib/chibios/os/common/ports/ARMCMx/chcore_v6m.h ****  */
  60:./lib/chibios/os/common/ports/ARMCMx/chcore_v6m.h **** #define PORT_WORKING_AREA_ALIGN         PORT_STACK_ALIGN
  61:./lib/chibios/os/common/ports/ARMCMx/chcore_v6m.h **** /** @} */
  62:./lib/chibios/os/common/ports/ARMCMx/chcore_v6m.h **** 
  63:./lib/chibios/os/common/ports/ARMCMx/chcore_v6m.h **** /**
  64:./lib/chibios/os/common/ports/ARMCMx/chcore_v6m.h ****  * @brief   PendSV priority level.
  65:./lib/chibios/os/common/ports/ARMCMx/chcore_v6m.h ****  * @note    This priority is enforced to be equal to @p 0,
  66:./lib/chibios/os/common/ports/ARMCMx/chcore_v6m.h ****  *          this handler always has the highest priority that cannot preempt
  67:./lib/chibios/os/common/ports/ARMCMx/chcore_v6m.h ****  *          the kernel.
  68:./lib/chibios/os/common/ports/ARMCMx/chcore_v6m.h ****  */
  69:./lib/chibios/os/common/ports/ARMCMx/chcore_v6m.h **** #define CORTEX_PRIORITY_PENDSV          0
  70:./lib/chibios/os/common/ports/ARMCMx/chcore_v6m.h **** 
  71:./lib/chibios/os/common/ports/ARMCMx/chcore_v6m.h **** /*===========================================================================*/
  72:./lib/chibios/os/common/ports/ARMCMx/chcore_v6m.h **** /* Module pre-compile time settings.                                         */
  73:./lib/chibios/os/common/ports/ARMCMx/chcore_v6m.h **** /*===========================================================================*/
  74:./lib/chibios/os/common/ports/ARMCMx/chcore_v6m.h **** 
  75:./lib/chibios/os/common/ports/ARMCMx/chcore_v6m.h **** /**
  76:./lib/chibios/os/common/ports/ARMCMx/chcore_v6m.h ****  * @brief   Stack size for the system idle thread.
  77:./lib/chibios/os/common/ports/ARMCMx/chcore_v6m.h ****  * @details This size depends on the idle thread implementation, usually
  78:./lib/chibios/os/common/ports/ARMCMx/chcore_v6m.h ****  *          the idle thread should take no more space than those reserved
  79:./lib/chibios/os/common/ports/ARMCMx/chcore_v6m.h ****  *          by @p PORT_INT_REQUIRED_STACK.
  80:./lib/chibios/os/common/ports/ARMCMx/chcore_v6m.h ****  * @note    In this port it is set to 16 because the idle thread does have
  81:./lib/chibios/os/common/ports/ARMCMx/chcore_v6m.h ****  *          a stack frame when compiling without optimizations. You may
  82:./lib/chibios/os/common/ports/ARMCMx/chcore_v6m.h ****  *          reduce this value to zero when compiling with optimizations.
  83:./lib/chibios/os/common/ports/ARMCMx/chcore_v6m.h ****  */
  84:./lib/chibios/os/common/ports/ARMCMx/chcore_v6m.h **** #if !defined(PORT_IDLE_THREAD_STACK_SIZE)
  85:./lib/chibios/os/common/ports/ARMCMx/chcore_v6m.h **** #define PORT_IDLE_THREAD_STACK_SIZE     16
  86:./lib/chibios/os/common/ports/ARMCMx/chcore_v6m.h **** #endif
  87:./lib/chibios/os/common/ports/ARMCMx/chcore_v6m.h **** 
  88:./lib/chibios/os/common/ports/ARMCMx/chcore_v6m.h **** /**
  89:./lib/chibios/os/common/ports/ARMCMx/chcore_v6m.h ****  * @brief   Per-thread stack overhead for interrupts servicing.
  90:./lib/chibios/os/common/ports/ARMCMx/chcore_v6m.h ****  * @details This constant is used in the calculation of the correct working
  91:./lib/chibios/os/common/ports/ARMCMx/chcore_v6m.h ****  *          area size.
  92:./lib/chibios/os/common/ports/ARMCMx/chcore_v6m.h ****  * @note    In this port this value is conservatively set to 64 because the
  93:./lib/chibios/os/common/ports/ARMCMx/chcore_v6m.h ****  *          function @p chSchDoReschedule() can have a stack frame, especially
  94:./lib/chibios/os/common/ports/ARMCMx/chcore_v6m.h ****  *          with compiler optimizations disabled. The value can be reduced
  95:./lib/chibios/os/common/ports/ARMCMx/chcore_v6m.h ****  *          when compiler optimizations are enabled.
  96:./lib/chibios/os/common/ports/ARMCMx/chcore_v6m.h ****  */
  97:./lib/chibios/os/common/ports/ARMCMx/chcore_v6m.h **** #if !defined(PORT_INT_REQUIRED_STACK)
  98:./lib/chibios/os/common/ports/ARMCMx/chcore_v6m.h **** #define PORT_INT_REQUIRED_STACK         64
  99:./lib/chibios/os/common/ports/ARMCMx/chcore_v6m.h **** #endif
 100:./lib/chibios/os/common/ports/ARMCMx/chcore_v6m.h **** 
 101:./lib/chibios/os/common/ports/ARMCMx/chcore_v6m.h **** /**
 102:./lib/chibios/os/common/ports/ARMCMx/chcore_v6m.h ****  * @brief   Enables the use of the WFI instruction in the idle thread loop.
 103:./lib/chibios/os/common/ports/ARMCMx/chcore_v6m.h ****  */
 104:./lib/chibios/os/common/ports/ARMCMx/chcore_v6m.h **** #if !defined(CORTEX_ENABLE_WFI_IDLE)
 105:./lib/chibios/os/common/ports/ARMCMx/chcore_v6m.h **** #define CORTEX_ENABLE_WFI_IDLE          FALSE
 106:./lib/chibios/os/common/ports/ARMCMx/chcore_v6m.h **** #endif
 107:./lib/chibios/os/common/ports/ARMCMx/chcore_v6m.h **** 
 108:./lib/chibios/os/common/ports/ARMCMx/chcore_v6m.h **** /**
 109:./lib/chibios/os/common/ports/ARMCMx/chcore_v6m.h ****  * @brief   Alternate preemption method.
 110:./lib/chibios/os/common/ports/ARMCMx/chcore_v6m.h ****  * @details Activating this option will make the Kernel use the PendSV
 111:./lib/chibios/os/common/ports/ARMCMx/chcore_v6m.h ****  *          handler for preemption instead of the NMI handler.
 112:./lib/chibios/os/common/ports/ARMCMx/chcore_v6m.h ****  */
 113:./lib/chibios/os/common/ports/ARMCMx/chcore_v6m.h **** #ifndef CORTEX_ALTERNATE_SWITCH
 114:./lib/chibios/os/common/ports/ARMCMx/chcore_v6m.h **** #define CORTEX_ALTERNATE_SWITCH         FALSE
 115:./lib/chibios/os/common/ports/ARMCMx/chcore_v6m.h **** #endif
 116:./lib/chibios/os/common/ports/ARMCMx/chcore_v6m.h **** 
 117:./lib/chibios/os/common/ports/ARMCMx/chcore_v6m.h **** /*===========================================================================*/
 118:./lib/chibios/os/common/ports/ARMCMx/chcore_v6m.h **** /* Derived constants and error checks.                                       */
 119:./lib/chibios/os/common/ports/ARMCMx/chcore_v6m.h **** /*===========================================================================*/
 120:./lib/chibios/os/common/ports/ARMCMx/chcore_v6m.h **** 
 121:./lib/chibios/os/common/ports/ARMCMx/chcore_v6m.h **** #if !defined(CH_CUSTOMER_LIC_PORT_CM0)
 122:./lib/chibios/os/common/ports/ARMCMx/chcore_v6m.h **** #error "CH_CUSTOMER_LIC_PORT_CM0 not defined"
 123:./lib/chibios/os/common/ports/ARMCMx/chcore_v6m.h **** #endif
 124:./lib/chibios/os/common/ports/ARMCMx/chcore_v6m.h **** 
 125:./lib/chibios/os/common/ports/ARMCMx/chcore_v6m.h **** #if CH_CUSTOMER_LIC_PORT_CM0 == FALSE
 126:./lib/chibios/os/common/ports/ARMCMx/chcore_v6m.h **** #error "ChibiOS Cortex-M0 port not licensed"
 127:./lib/chibios/os/common/ports/ARMCMx/chcore_v6m.h **** #endif
 128:./lib/chibios/os/common/ports/ARMCMx/chcore_v6m.h **** 
 129:./lib/chibios/os/common/ports/ARMCMx/chcore_v6m.h **** /* Handling a GCC problem impacting ARMv6-M.*/
 130:./lib/chibios/os/common/ports/ARMCMx/chcore_v6m.h **** #if defined(__GNUC__) && !defined(PORT_IGNORE_GCC_VERSION_CHECK)
 131:./lib/chibios/os/common/ports/ARMCMx/chcore_v6m.h **** #if __GNUC__ > 5
 132:./lib/chibios/os/common/ports/ARMCMx/chcore_v6m.h **** #warning "This compiler has a know problem with Cortex-M0, see bugs: 88167, 88656."
 133:./lib/chibios/os/common/ports/ARMCMx/chcore_v6m.h **** #warning "*** Use GCC version 5 or below ***"
 134:./lib/chibios/os/common/ports/ARMCMx/chcore_v6m.h **** #endif
 135:./lib/chibios/os/common/ports/ARMCMx/chcore_v6m.h **** #endif
 136:./lib/chibios/os/common/ports/ARMCMx/chcore_v6m.h **** 
 137:./lib/chibios/os/common/ports/ARMCMx/chcore_v6m.h **** /**
 138:./lib/chibios/os/common/ports/ARMCMx/chcore_v6m.h ****  * @name    Architecture and Compiler
 139:./lib/chibios/os/common/ports/ARMCMx/chcore_v6m.h ****  * @{
 140:./lib/chibios/os/common/ports/ARMCMx/chcore_v6m.h ****  */
 141:./lib/chibios/os/common/ports/ARMCMx/chcore_v6m.h **** #if ((CORTEX_MODEL == 0) && !defined(__CORE_CM0PLUS_H_DEPENDANT)) ||        \
 142:./lib/chibios/os/common/ports/ARMCMx/chcore_v6m.h ****     defined(__DOXYGEN__)
 143:./lib/chibios/os/common/ports/ARMCMx/chcore_v6m.h **** /**
 144:./lib/chibios/os/common/ports/ARMCMx/chcore_v6m.h ****  * @brief   Macro defining the specific ARM architecture.
 145:./lib/chibios/os/common/ports/ARMCMx/chcore_v6m.h ****  */
 146:./lib/chibios/os/common/ports/ARMCMx/chcore_v6m.h **** #define PORT_ARCHITECTURE_ARM_v6M
 147:./lib/chibios/os/common/ports/ARMCMx/chcore_v6m.h **** 
 148:./lib/chibios/os/common/ports/ARMCMx/chcore_v6m.h **** /**
 149:./lib/chibios/os/common/ports/ARMCMx/chcore_v6m.h ****  * @brief   Name of the implemented architecture.
 150:./lib/chibios/os/common/ports/ARMCMx/chcore_v6m.h ****  */
 151:./lib/chibios/os/common/ports/ARMCMx/chcore_v6m.h **** #define PORT_ARCHITECTURE_NAME          "ARMv6-M"
 152:./lib/chibios/os/common/ports/ARMCMx/chcore_v6m.h **** 
 153:./lib/chibios/os/common/ports/ARMCMx/chcore_v6m.h **** /**
 154:./lib/chibios/os/common/ports/ARMCMx/chcore_v6m.h ****  * @brief   Name of the architecture variant.
 155:./lib/chibios/os/common/ports/ARMCMx/chcore_v6m.h ****  */
 156:./lib/chibios/os/common/ports/ARMCMx/chcore_v6m.h **** #define PORT_CORE_VARIANT_NAME          "Cortex-M0"
 157:./lib/chibios/os/common/ports/ARMCMx/chcore_v6m.h **** 
 158:./lib/chibios/os/common/ports/ARMCMx/chcore_v6m.h **** #elif (CORTEX_MODEL == 0) && defined(__CORE_CM0PLUS_H_DEPENDANT)
 159:./lib/chibios/os/common/ports/ARMCMx/chcore_v6m.h **** #define PORT_ARCHITECTURE_ARM_v6M
 160:./lib/chibios/os/common/ports/ARMCMx/chcore_v6m.h **** #define PORT_ARCHITECTURE_NAME          "ARMv6-M"
 161:./lib/chibios/os/common/ports/ARMCMx/chcore_v6m.h **** #define PORT_CORE_VARIANT_NAME          "Cortex-M0+"
 162:./lib/chibios/os/common/ports/ARMCMx/chcore_v6m.h **** #endif
 163:./lib/chibios/os/common/ports/ARMCMx/chcore_v6m.h **** 
 164:./lib/chibios/os/common/ports/ARMCMx/chcore_v6m.h **** /**
 165:./lib/chibios/os/common/ports/ARMCMx/chcore_v6m.h ****  * @brief   Port-specific information string.
 166:./lib/chibios/os/common/ports/ARMCMx/chcore_v6m.h ****  */
 167:./lib/chibios/os/common/ports/ARMCMx/chcore_v6m.h **** #if (CORTEX_ALTERNATE_SWITCH == FALSE) || defined(__DOXYGEN__)
 168:./lib/chibios/os/common/ports/ARMCMx/chcore_v6m.h **** #define PORT_INFO                       "Preemption through NMI"
 169:./lib/chibios/os/common/ports/ARMCMx/chcore_v6m.h **** #else
 170:./lib/chibios/os/common/ports/ARMCMx/chcore_v6m.h **** #define PORT_INFO                       "Preemption through PendSV"
 171:./lib/chibios/os/common/ports/ARMCMx/chcore_v6m.h **** #endif
 172:./lib/chibios/os/common/ports/ARMCMx/chcore_v6m.h **** /** @} */
 173:./lib/chibios/os/common/ports/ARMCMx/chcore_v6m.h **** 
 174:./lib/chibios/os/common/ports/ARMCMx/chcore_v6m.h **** /**
 175:./lib/chibios/os/common/ports/ARMCMx/chcore_v6m.h ****  * @brief   Maximum usable priority for normal ISRs.
 176:./lib/chibios/os/common/ports/ARMCMx/chcore_v6m.h ****  */
 177:./lib/chibios/os/common/ports/ARMCMx/chcore_v6m.h **** #if (CORTEX_ALTERNATE_SWITCH == TRUE) || defined(__DOXYGEN__)
 178:./lib/chibios/os/common/ports/ARMCMx/chcore_v6m.h **** #define CORTEX_MAX_KERNEL_PRIORITY      1
 179:./lib/chibios/os/common/ports/ARMCMx/chcore_v6m.h **** #else
 180:./lib/chibios/os/common/ports/ARMCMx/chcore_v6m.h **** #define CORTEX_MAX_KERNEL_PRIORITY      0
 181:./lib/chibios/os/common/ports/ARMCMx/chcore_v6m.h **** #endif
 182:./lib/chibios/os/common/ports/ARMCMx/chcore_v6m.h **** 
 183:./lib/chibios/os/common/ports/ARMCMx/chcore_v6m.h **** /*===========================================================================*/
 184:./lib/chibios/os/common/ports/ARMCMx/chcore_v6m.h **** /* Module data structures and types.                                         */
 185:./lib/chibios/os/common/ports/ARMCMx/chcore_v6m.h **** /*===========================================================================*/
 186:./lib/chibios/os/common/ports/ARMCMx/chcore_v6m.h **** 
 187:./lib/chibios/os/common/ports/ARMCMx/chcore_v6m.h **** #if !defined(_FROM_ASM_)
 188:./lib/chibios/os/common/ports/ARMCMx/chcore_v6m.h **** 
 189:./lib/chibios/os/common/ports/ARMCMx/chcore_v6m.h ****  /* The documentation of the following declarations is in chconf.h in order
 190:./lib/chibios/os/common/ports/ARMCMx/chcore_v6m.h ****     to not have duplicated structure names into the documentation.*/
 191:./lib/chibios/os/common/ports/ARMCMx/chcore_v6m.h **** #if !defined(__DOXYGEN__)
 192:./lib/chibios/os/common/ports/ARMCMx/chcore_v6m.h **** struct port_extctx {
 193:./lib/chibios/os/common/ports/ARMCMx/chcore_v6m.h ****   regarm_t      r0;
 194:./lib/chibios/os/common/ports/ARMCMx/chcore_v6m.h ****   regarm_t      r1;
 195:./lib/chibios/os/common/ports/ARMCMx/chcore_v6m.h ****   regarm_t      r2;
 196:./lib/chibios/os/common/ports/ARMCMx/chcore_v6m.h ****   regarm_t      r3;
 197:./lib/chibios/os/common/ports/ARMCMx/chcore_v6m.h ****   regarm_t      r12;
 198:./lib/chibios/os/common/ports/ARMCMx/chcore_v6m.h ****   regarm_t      lr_thd;
 199:./lib/chibios/os/common/ports/ARMCMx/chcore_v6m.h ****   regarm_t      pc;
 200:./lib/chibios/os/common/ports/ARMCMx/chcore_v6m.h ****   regarm_t      xpsr;
 201:./lib/chibios/os/common/ports/ARMCMx/chcore_v6m.h **** };
 202:./lib/chibios/os/common/ports/ARMCMx/chcore_v6m.h **** 
 203:./lib/chibios/os/common/ports/ARMCMx/chcore_v6m.h **** struct port_intctx {
 204:./lib/chibios/os/common/ports/ARMCMx/chcore_v6m.h ****   regarm_t      r8;
 205:./lib/chibios/os/common/ports/ARMCMx/chcore_v6m.h ****   regarm_t      r9;
 206:./lib/chibios/os/common/ports/ARMCMx/chcore_v6m.h ****   regarm_t      r10;
 207:./lib/chibios/os/common/ports/ARMCMx/chcore_v6m.h ****   regarm_t      r11;
 208:./lib/chibios/os/common/ports/ARMCMx/chcore_v6m.h ****   regarm_t      r4;
 209:./lib/chibios/os/common/ports/ARMCMx/chcore_v6m.h ****   regarm_t      r5;
 210:./lib/chibios/os/common/ports/ARMCMx/chcore_v6m.h ****   regarm_t      r6;
 211:./lib/chibios/os/common/ports/ARMCMx/chcore_v6m.h ****   regarm_t      r7;
 212:./lib/chibios/os/common/ports/ARMCMx/chcore_v6m.h ****   regarm_t      lr;
 213:./lib/chibios/os/common/ports/ARMCMx/chcore_v6m.h **** };
 214:./lib/chibios/os/common/ports/ARMCMx/chcore_v6m.h **** #endif /* !defined(__DOXYGEN__) */
 215:./lib/chibios/os/common/ports/ARMCMx/chcore_v6m.h **** 
 216:./lib/chibios/os/common/ports/ARMCMx/chcore_v6m.h **** /*===========================================================================*/
 217:./lib/chibios/os/common/ports/ARMCMx/chcore_v6m.h **** /* Module macros.                                                            */
 218:./lib/chibios/os/common/ports/ARMCMx/chcore_v6m.h **** /*===========================================================================*/
 219:./lib/chibios/os/common/ports/ARMCMx/chcore_v6m.h **** 
 220:./lib/chibios/os/common/ports/ARMCMx/chcore_v6m.h **** /**
 221:./lib/chibios/os/common/ports/ARMCMx/chcore_v6m.h ****  * @brief   Platform dependent part of the @p chThdCreateI() API.
 222:./lib/chibios/os/common/ports/ARMCMx/chcore_v6m.h ****  * @details This code usually setup the context switching frame represented
 223:./lib/chibios/os/common/ports/ARMCMx/chcore_v6m.h ****  *          by an @p port_intctx structure.
 224:./lib/chibios/os/common/ports/ARMCMx/chcore_v6m.h ****  */
 225:./lib/chibios/os/common/ports/ARMCMx/chcore_v6m.h **** #define PORT_SETUP_CONTEXT(tp, wbase, wtop, pf, arg) {                      \
 226:./lib/chibios/os/common/ports/ARMCMx/chcore_v6m.h ****   (tp)->ctx.sp = (struct port_intctx *)((uint8_t *)(wtop) -                 \
 227:./lib/chibios/os/common/ports/ARMCMx/chcore_v6m.h ****                                         sizeof (struct port_intctx));       \
 228:./lib/chibios/os/common/ports/ARMCMx/chcore_v6m.h ****   (tp)->ctx.sp->r4 = (regarm_t)(pf);                                        \
 229:./lib/chibios/os/common/ports/ARMCMx/chcore_v6m.h ****   (tp)->ctx.sp->r5 = (regarm_t)(arg);                                       \
 230:./lib/chibios/os/common/ports/ARMCMx/chcore_v6m.h ****   (tp)->ctx.sp->lr = (regarm_t)_port_thread_start;                          \
 231:./lib/chibios/os/common/ports/ARMCMx/chcore_v6m.h **** }
 232:./lib/chibios/os/common/ports/ARMCMx/chcore_v6m.h **** 
 233:./lib/chibios/os/common/ports/ARMCMx/chcore_v6m.h **** /**
 234:./lib/chibios/os/common/ports/ARMCMx/chcore_v6m.h ****  * @brief   Computes the thread working area global size.
 235:./lib/chibios/os/common/ports/ARMCMx/chcore_v6m.h ****  * @note    There is no need to perform alignments in this macro.
 236:./lib/chibios/os/common/ports/ARMCMx/chcore_v6m.h ****  */
 237:./lib/chibios/os/common/ports/ARMCMx/chcore_v6m.h **** #define PORT_WA_SIZE(n) (sizeof (struct port_intctx) +                      \
 238:./lib/chibios/os/common/ports/ARMCMx/chcore_v6m.h ****                          sizeof (struct port_extctx) +                      \
 239:./lib/chibios/os/common/ports/ARMCMx/chcore_v6m.h ****                          ((size_t)(n)) + ((size_t)(PORT_INT_REQUIRED_STACK)))
 240:./lib/chibios/os/common/ports/ARMCMx/chcore_v6m.h **** 
 241:./lib/chibios/os/common/ports/ARMCMx/chcore_v6m.h **** /**
 242:./lib/chibios/os/common/ports/ARMCMx/chcore_v6m.h ****  * @brief   Static working area allocation.
 243:./lib/chibios/os/common/ports/ARMCMx/chcore_v6m.h ****  * @details This macro is used to allocate a static thread working area
 244:./lib/chibios/os/common/ports/ARMCMx/chcore_v6m.h ****  *          aligned as both position and size.
 245:./lib/chibios/os/common/ports/ARMCMx/chcore_v6m.h ****  *
 246:./lib/chibios/os/common/ports/ARMCMx/chcore_v6m.h ****  * @param[in] s         the name to be assigned to the stack array
 247:./lib/chibios/os/common/ports/ARMCMx/chcore_v6m.h ****  * @param[in] n         the stack size to be assigned to the thread
 248:./lib/chibios/os/common/ports/ARMCMx/chcore_v6m.h ****  */
 249:./lib/chibios/os/common/ports/ARMCMx/chcore_v6m.h **** #define PORT_WORKING_AREA(s, n)                                             \
 250:./lib/chibios/os/common/ports/ARMCMx/chcore_v6m.h ****   stkalign_t s[THD_WORKING_AREA_SIZE(n) / sizeof (stkalign_t)]
 251:./lib/chibios/os/common/ports/ARMCMx/chcore_v6m.h **** 
 252:./lib/chibios/os/common/ports/ARMCMx/chcore_v6m.h **** /**
 253:./lib/chibios/os/common/ports/ARMCMx/chcore_v6m.h ****  * @brief   IRQ prologue code.
 254:./lib/chibios/os/common/ports/ARMCMx/chcore_v6m.h ****  * @details This macro must be inserted at the start of all IRQ handlers
 255:./lib/chibios/os/common/ports/ARMCMx/chcore_v6m.h ****  *          enabled to invoke system APIs.
 256:./lib/chibios/os/common/ports/ARMCMx/chcore_v6m.h ****  */
 257:./lib/chibios/os/common/ports/ARMCMx/chcore_v6m.h **** #if defined(__GNUC__) || defined(__DOXYGEN__)
 258:./lib/chibios/os/common/ports/ARMCMx/chcore_v6m.h **** #define PORT_IRQ_PROLOGUE()                                                 \
 259:./lib/chibios/os/common/ports/ARMCMx/chcore_v6m.h ****   regarm_t _saved_lr = (regarm_t)__builtin_return_address(0)
 260:./lib/chibios/os/common/ports/ARMCMx/chcore_v6m.h **** #elif defined(__ICCARM__)
 261:./lib/chibios/os/common/ports/ARMCMx/chcore_v6m.h **** #define PORT_IRQ_PROLOGUE()                                                 \
 262:./lib/chibios/os/common/ports/ARMCMx/chcore_v6m.h ****   regarm_t _saved_lr = (regarm_t)__get_LR()
 263:./lib/chibios/os/common/ports/ARMCMx/chcore_v6m.h **** #elif defined(__CC_ARM)
 264:./lib/chibios/os/common/ports/ARMCMx/chcore_v6m.h **** #define PORT_IRQ_PROLOGUE()                                                 \
 265:./lib/chibios/os/common/ports/ARMCMx/chcore_v6m.h ****   regarm_t _saved_lr = (regarm_t)__return_address()
 266:./lib/chibios/os/common/ports/ARMCMx/chcore_v6m.h **** #endif
 267:./lib/chibios/os/common/ports/ARMCMx/chcore_v6m.h **** 
 268:./lib/chibios/os/common/ports/ARMCMx/chcore_v6m.h **** /**
 269:./lib/chibios/os/common/ports/ARMCMx/chcore_v6m.h ****  * @brief   IRQ epilogue code.
 270:./lib/chibios/os/common/ports/ARMCMx/chcore_v6m.h ****  * @details This macro must be inserted at the end of all IRQ handlers
 271:./lib/chibios/os/common/ports/ARMCMx/chcore_v6m.h ****  *          enabled to invoke system APIs.
 272:./lib/chibios/os/common/ports/ARMCMx/chcore_v6m.h ****  */
 273:./lib/chibios/os/common/ports/ARMCMx/chcore_v6m.h **** #define PORT_IRQ_EPILOGUE() _port_irq_epilogue(_saved_lr)
 274:./lib/chibios/os/common/ports/ARMCMx/chcore_v6m.h **** 
 275:./lib/chibios/os/common/ports/ARMCMx/chcore_v6m.h **** /**
 276:./lib/chibios/os/common/ports/ARMCMx/chcore_v6m.h ****  * @brief   IRQ handler function declaration.
 277:./lib/chibios/os/common/ports/ARMCMx/chcore_v6m.h ****  * @note    @p id can be a function name or a vector number depending on the
 278:./lib/chibios/os/common/ports/ARMCMx/chcore_v6m.h ****  *          port implementation.
 279:./lib/chibios/os/common/ports/ARMCMx/chcore_v6m.h ****  */
 280:./lib/chibios/os/common/ports/ARMCMx/chcore_v6m.h **** #ifdef __cplusplus
 281:./lib/chibios/os/common/ports/ARMCMx/chcore_v6m.h **** #define PORT_IRQ_HANDLER(id) extern "C" void id(void)
 282:./lib/chibios/os/common/ports/ARMCMx/chcore_v6m.h **** #else
 283:./lib/chibios/os/common/ports/ARMCMx/chcore_v6m.h **** #define PORT_IRQ_HANDLER(id) void id(void)
 284:./lib/chibios/os/common/ports/ARMCMx/chcore_v6m.h **** #endif
 285:./lib/chibios/os/common/ports/ARMCMx/chcore_v6m.h **** 
 286:./lib/chibios/os/common/ports/ARMCMx/chcore_v6m.h **** /**
 287:./lib/chibios/os/common/ports/ARMCMx/chcore_v6m.h ****  * @brief   Fast IRQ handler function declaration.
 288:./lib/chibios/os/common/ports/ARMCMx/chcore_v6m.h ****  * @note    @p id can be a function name or a vector number depending on the
 289:./lib/chibios/os/common/ports/ARMCMx/chcore_v6m.h ****  *          port implementation.
 290:./lib/chibios/os/common/ports/ARMCMx/chcore_v6m.h ****  */
 291:./lib/chibios/os/common/ports/ARMCMx/chcore_v6m.h **** #ifdef __cplusplus
 292:./lib/chibios/os/common/ports/ARMCMx/chcore_v6m.h **** #define PORT_FAST_IRQ_HANDLER(id) extern "C" void id(void)
 293:./lib/chibios/os/common/ports/ARMCMx/chcore_v6m.h **** #else
 294:./lib/chibios/os/common/ports/ARMCMx/chcore_v6m.h **** #define PORT_FAST_IRQ_HANDLER(id) void id(void)
 295:./lib/chibios/os/common/ports/ARMCMx/chcore_v6m.h **** #endif
 296:./lib/chibios/os/common/ports/ARMCMx/chcore_v6m.h **** 
 297:./lib/chibios/os/common/ports/ARMCMx/chcore_v6m.h **** /**
 298:./lib/chibios/os/common/ports/ARMCMx/chcore_v6m.h ****  * @brief   Performs a context switch between two threads.
 299:./lib/chibios/os/common/ports/ARMCMx/chcore_v6m.h ****  * @details This is the most critical code in any port, this function
 300:./lib/chibios/os/common/ports/ARMCMx/chcore_v6m.h ****  *          is responsible for the context switch between 2 threads.
 301:./lib/chibios/os/common/ports/ARMCMx/chcore_v6m.h ****  * @note    The implementation of this code affects <b>directly</b> the context
 302:./lib/chibios/os/common/ports/ARMCMx/chcore_v6m.h ****  *          switch performance so optimize here as much as you can.
 303:./lib/chibios/os/common/ports/ARMCMx/chcore_v6m.h ****  *
 304:./lib/chibios/os/common/ports/ARMCMx/chcore_v6m.h ****  * @param[in] ntp       the thread to be switched in
 305:./lib/chibios/os/common/ports/ARMCMx/chcore_v6m.h ****  * @param[in] otp       the thread to be switched out
 306:./lib/chibios/os/common/ports/ARMCMx/chcore_v6m.h ****  */
 307:./lib/chibios/os/common/ports/ARMCMx/chcore_v6m.h **** #if (CH_DBG_ENABLE_STACK_CHECK == FALSE) || defined(__DOXYGEN__)
 308:./lib/chibios/os/common/ports/ARMCMx/chcore_v6m.h **** #define port_switch(ntp, otp) _port_switch(ntp, otp)
 309:./lib/chibios/os/common/ports/ARMCMx/chcore_v6m.h **** #else
 310:./lib/chibios/os/common/ports/ARMCMx/chcore_v6m.h **** #define port_switch(ntp, otp) {                                             \
 311:./lib/chibios/os/common/ports/ARMCMx/chcore_v6m.h ****   struct port_intctx *r13 = (struct port_intctx *)__get_PSP();              \
 312:./lib/chibios/os/common/ports/ARMCMx/chcore_v6m.h ****   if ((stkalign_t *)(r13 - 1) < (otp)->wabase) {                            \
 313:./lib/chibios/os/common/ports/ARMCMx/chcore_v6m.h ****     chSysHalt("stack overflow");                                            \
 314:./lib/chibios/os/common/ports/ARMCMx/chcore_v6m.h ****   }                                                                         \
 315:./lib/chibios/os/common/ports/ARMCMx/chcore_v6m.h ****   _port_switch(ntp, otp);                                                   \
 316:./lib/chibios/os/common/ports/ARMCMx/chcore_v6m.h **** }
 317:./lib/chibios/os/common/ports/ARMCMx/chcore_v6m.h **** #endif
 318:./lib/chibios/os/common/ports/ARMCMx/chcore_v6m.h **** 
 319:./lib/chibios/os/common/ports/ARMCMx/chcore_v6m.h **** /*===========================================================================*/
 320:./lib/chibios/os/common/ports/ARMCMx/chcore_v6m.h **** /* External declarations.                                                    */
 321:./lib/chibios/os/common/ports/ARMCMx/chcore_v6m.h **** /*===========================================================================*/
 322:./lib/chibios/os/common/ports/ARMCMx/chcore_v6m.h **** 
 323:./lib/chibios/os/common/ports/ARMCMx/chcore_v6m.h **** #ifdef __cplusplus
 324:./lib/chibios/os/common/ports/ARMCMx/chcore_v6m.h **** extern "C" {
 325:./lib/chibios/os/common/ports/ARMCMx/chcore_v6m.h **** #endif
 326:./lib/chibios/os/common/ports/ARMCMx/chcore_v6m.h ****   void _port_irq_epilogue(regarm_t lr);
 327:./lib/chibios/os/common/ports/ARMCMx/chcore_v6m.h ****   void _port_switch(thread_t *ntp, thread_t *otp);
 328:./lib/chibios/os/common/ports/ARMCMx/chcore_v6m.h ****   void _port_thread_start(void);
 329:./lib/chibios/os/common/ports/ARMCMx/chcore_v6m.h ****   void _port_switch_from_isr(void);
 330:./lib/chibios/os/common/ports/ARMCMx/chcore_v6m.h ****   void _port_exit_from_isr(void);
 331:./lib/chibios/os/common/ports/ARMCMx/chcore_v6m.h **** #ifdef __cplusplus
 332:./lib/chibios/os/common/ports/ARMCMx/chcore_v6m.h **** }
 333:./lib/chibios/os/common/ports/ARMCMx/chcore_v6m.h **** #endif
 334:./lib/chibios/os/common/ports/ARMCMx/chcore_v6m.h **** 
 335:./lib/chibios/os/common/ports/ARMCMx/chcore_v6m.h **** /*===========================================================================*/
 336:./lib/chibios/os/common/ports/ARMCMx/chcore_v6m.h **** /* Module inline functions.                                                  */
 337:./lib/chibios/os/common/ports/ARMCMx/chcore_v6m.h **** /*===========================================================================*/
 338:./lib/chibios/os/common/ports/ARMCMx/chcore_v6m.h **** 
 339:./lib/chibios/os/common/ports/ARMCMx/chcore_v6m.h **** /**
 340:./lib/chibios/os/common/ports/ARMCMx/chcore_v6m.h ****  * @brief   Port-related initialization code.
 341:./lib/chibios/os/common/ports/ARMCMx/chcore_v6m.h ****  */
 342:./lib/chibios/os/common/ports/ARMCMx/chcore_v6m.h **** static inline void port_init(void) {
 343:./lib/chibios/os/common/ports/ARMCMx/chcore_v6m.h **** 
 344:./lib/chibios/os/common/ports/ARMCMx/chcore_v6m.h ****   NVIC_SetPriority(PendSV_IRQn, CORTEX_PRIORITY_PENDSV);
 345:./lib/chibios/os/common/ports/ARMCMx/chcore_v6m.h **** }
 346:./lib/chibios/os/common/ports/ARMCMx/chcore_v6m.h **** 
 347:./lib/chibios/os/common/ports/ARMCMx/chcore_v6m.h **** /**
 348:./lib/chibios/os/common/ports/ARMCMx/chcore_v6m.h ****  * @brief   Returns a word encoding the current interrupts status.
 349:./lib/chibios/os/common/ports/ARMCMx/chcore_v6m.h ****  *
 350:./lib/chibios/os/common/ports/ARMCMx/chcore_v6m.h ****  * @return              The interrupts status.
 351:./lib/chibios/os/common/ports/ARMCMx/chcore_v6m.h ****  */
 352:./lib/chibios/os/common/ports/ARMCMx/chcore_v6m.h **** static inline syssts_t port_get_irq_status(void) {
 353:./lib/chibios/os/common/ports/ARMCMx/chcore_v6m.h **** 
 354:./lib/chibios/os/common/ports/ARMCMx/chcore_v6m.h ****   return (syssts_t)__get_PRIMASK();
 355:./lib/chibios/os/common/ports/ARMCMx/chcore_v6m.h **** }
 356:./lib/chibios/os/common/ports/ARMCMx/chcore_v6m.h **** 
 357:./lib/chibios/os/common/ports/ARMCMx/chcore_v6m.h **** /**
 358:./lib/chibios/os/common/ports/ARMCMx/chcore_v6m.h ****  * @brief   Checks the interrupt status.
 359:./lib/chibios/os/common/ports/ARMCMx/chcore_v6m.h ****  *
 360:./lib/chibios/os/common/ports/ARMCMx/chcore_v6m.h ****  * @param[in] sts       the interrupt status word
 361:./lib/chibios/os/common/ports/ARMCMx/chcore_v6m.h ****  *
 362:./lib/chibios/os/common/ports/ARMCMx/chcore_v6m.h ****  * @return              The interrupt status.
 363:./lib/chibios/os/common/ports/ARMCMx/chcore_v6m.h ****  * @retval false        the word specified a disabled interrupts status.
 364:./lib/chibios/os/common/ports/ARMCMx/chcore_v6m.h ****  * @retval true         the word specified an enabled interrupts status.
 365:./lib/chibios/os/common/ports/ARMCMx/chcore_v6m.h ****  */
 366:./lib/chibios/os/common/ports/ARMCMx/chcore_v6m.h **** static inline bool port_irq_enabled(syssts_t sts) {
 367:./lib/chibios/os/common/ports/ARMCMx/chcore_v6m.h **** 
 368:./lib/chibios/os/common/ports/ARMCMx/chcore_v6m.h ****   return (sts & (syssts_t)1) == (syssts_t)0;
 369:./lib/chibios/os/common/ports/ARMCMx/chcore_v6m.h **** }
 370:./lib/chibios/os/common/ports/ARMCMx/chcore_v6m.h **** 
 371:./lib/chibios/os/common/ports/ARMCMx/chcore_v6m.h **** /**
 372:./lib/chibios/os/common/ports/ARMCMx/chcore_v6m.h ****  * @brief   Determines the current execution context.
 373:./lib/chibios/os/common/ports/ARMCMx/chcore_v6m.h ****  *
 374:./lib/chibios/os/common/ports/ARMCMx/chcore_v6m.h ****  * @return              The execution context.
 375:./lib/chibios/os/common/ports/ARMCMx/chcore_v6m.h ****  * @retval false        not running in ISR mode.
 376:./lib/chibios/os/common/ports/ARMCMx/chcore_v6m.h ****  * @retval true         running in ISR mode.
 377:./lib/chibios/os/common/ports/ARMCMx/chcore_v6m.h ****  */
 378:./lib/chibios/os/common/ports/ARMCMx/chcore_v6m.h **** static inline bool port_is_isr_context(void) {
 379:./lib/chibios/os/common/ports/ARMCMx/chcore_v6m.h **** 
 380:./lib/chibios/os/common/ports/ARMCMx/chcore_v6m.h ****   return (bool)((__get_IPSR() & 0x1FFU) != 0U);
 381:./lib/chibios/os/common/ports/ARMCMx/chcore_v6m.h **** }
 382:./lib/chibios/os/common/ports/ARMCMx/chcore_v6m.h **** 
 383:./lib/chibios/os/common/ports/ARMCMx/chcore_v6m.h **** /**
 384:./lib/chibios/os/common/ports/ARMCMx/chcore_v6m.h ****  * @brief   Kernel-lock action.
 385:./lib/chibios/os/common/ports/ARMCMx/chcore_v6m.h ****  * @details In this port this function disables interrupts globally.
 386:./lib/chibios/os/common/ports/ARMCMx/chcore_v6m.h ****  */
 387:./lib/chibios/os/common/ports/ARMCMx/chcore_v6m.h **** static inline void port_lock(void) {
 388:./lib/chibios/os/common/ports/ARMCMx/chcore_v6m.h **** 
 389:./lib/chibios/os/common/ports/ARMCMx/chcore_v6m.h ****   __disable_irq();
 390:./lib/chibios/os/common/ports/ARMCMx/chcore_v6m.h **** }
 391:./lib/chibios/os/common/ports/ARMCMx/chcore_v6m.h **** 
 392:./lib/chibios/os/common/ports/ARMCMx/chcore_v6m.h **** /**
 393:./lib/chibios/os/common/ports/ARMCMx/chcore_v6m.h ****  * @brief   Kernel-unlock action.
 394:./lib/chibios/os/common/ports/ARMCMx/chcore_v6m.h ****  * @details In this port this function enables interrupts globally.
 395:./lib/chibios/os/common/ports/ARMCMx/chcore_v6m.h ****  */
 396:./lib/chibios/os/common/ports/ARMCMx/chcore_v6m.h **** static inline void port_unlock(void) {
 397:./lib/chibios/os/common/ports/ARMCMx/chcore_v6m.h **** 
 398:./lib/chibios/os/common/ports/ARMCMx/chcore_v6m.h ****   __enable_irq();
 399:./lib/chibios/os/common/ports/ARMCMx/chcore_v6m.h **** }
 400:./lib/chibios/os/common/ports/ARMCMx/chcore_v6m.h **** 
 401:./lib/chibios/os/common/ports/ARMCMx/chcore_v6m.h **** /**
 402:./lib/chibios/os/common/ports/ARMCMx/chcore_v6m.h ****  * @brief   Kernel-lock action from an interrupt handler.
 403:./lib/chibios/os/common/ports/ARMCMx/chcore_v6m.h ****  * @details In this port this function disables interrupts globally.
 404:./lib/chibios/os/common/ports/ARMCMx/chcore_v6m.h ****  * @note    Same as @p port_lock() in this port.
 405:./lib/chibios/os/common/ports/ARMCMx/chcore_v6m.h ****  */
 406:./lib/chibios/os/common/ports/ARMCMx/chcore_v6m.h **** static inline void port_lock_from_isr(void) {
 253              		.loc 4 406 20 view .LVU54
 254              	.LBE388:
 255              	.LBE395:
 256              	.LBE399:
 257              	.LBE420:
 258              	.LBE429:
 407:./lib/chibios/os/common/ports/ARMCMx/chcore_v6m.h **** 
 408:./lib/chibios/os/common/ports/ARMCMx/chcore_v6m.h ****   port_lock();
 259              		.loc 4 408 3 view .LVU55
 260              	.LBB430:
 261              	.LBB421:
 262              	.LBB400:
 263              	.LBB396:
 264              	.LBB393:
 265              	.LBB389:
 266              	.LBI389:
 387:./lib/chibios/os/common/ports/ARMCMx/chcore_v6m.h **** 
 267              		.loc 4 387 20 view .LVU56
 268              	.LBE389:
 269              	.LBE393:
 270              	.LBE396:
 271              	.LBE400:
 272              	.LBE421:
 273              	.LBE430:
 389:./lib/chibios/os/common/ports/ARMCMx/chcore_v6m.h **** }
 274              		.loc 4 389 3 view .LVU57
 275              	.LBB431:
 276              	.LBB422:
 277              	.LBB401:
 278              	.LBB397:
 279              	.LBB394:
 280              	.LBB392:
 281              	.LBB390:
 282              	.LBI390:
 283              		.file 5 "./lib/chibios/os/common/ext/ARM/CMSIS/Core/Include/cmsis_gcc.h"
   1:./lib/chibios/os/common/ext/ARM/CMSIS/Core/Include/cmsis_gcc.h **** /**************************************************************************//**
   2:./lib/chibios/os/common/ext/ARM/CMSIS/Core/Include/cmsis_gcc.h ****  * @file     cmsis_gcc.h
   3:./lib/chibios/os/common/ext/ARM/CMSIS/Core/Include/cmsis_gcc.h ****  * @brief    CMSIS compiler GCC header file
   4:./lib/chibios/os/common/ext/ARM/CMSIS/Core/Include/cmsis_gcc.h ****  * @version  V5.0.4
   5:./lib/chibios/os/common/ext/ARM/CMSIS/Core/Include/cmsis_gcc.h ****  * @date     09. April 2018
   6:./lib/chibios/os/common/ext/ARM/CMSIS/Core/Include/cmsis_gcc.h ****  ******************************************************************************/
   7:./lib/chibios/os/common/ext/ARM/CMSIS/Core/Include/cmsis_gcc.h **** /*
   8:./lib/chibios/os/common/ext/ARM/CMSIS/Core/Include/cmsis_gcc.h ****  * Copyright (c) 2009-2018 Arm Limited. All rights reserved.
   9:./lib/chibios/os/common/ext/ARM/CMSIS/Core/Include/cmsis_gcc.h ****  *
  10:./lib/chibios/os/common/ext/ARM/CMSIS/Core/Include/cmsis_gcc.h ****  * SPDX-License-Identifier: Apache-2.0
  11:./lib/chibios/os/common/ext/ARM/CMSIS/Core/Include/cmsis_gcc.h ****  *
  12:./lib/chibios/os/common/ext/ARM/CMSIS/Core/Include/cmsis_gcc.h ****  * Licensed under the Apache License, Version 2.0 (the License); you may
  13:./lib/chibios/os/common/ext/ARM/CMSIS/Core/Include/cmsis_gcc.h ****  * not use this file except in compliance with the License.
  14:./lib/chibios/os/common/ext/ARM/CMSIS/Core/Include/cmsis_gcc.h ****  * You may obtain a copy of the License at
  15:./lib/chibios/os/common/ext/ARM/CMSIS/Core/Include/cmsis_gcc.h ****  *
  16:./lib/chibios/os/common/ext/ARM/CMSIS/Core/Include/cmsis_gcc.h ****  * www.apache.org/licenses/LICENSE-2.0
  17:./lib/chibios/os/common/ext/ARM/CMSIS/Core/Include/cmsis_gcc.h ****  *
  18:./lib/chibios/os/common/ext/ARM/CMSIS/Core/Include/cmsis_gcc.h ****  * Unless required by applicable law or agreed to in writing, software
  19:./lib/chibios/os/common/ext/ARM/CMSIS/Core/Include/cmsis_gcc.h ****  * distributed under the License is distributed on an AS IS BASIS, WITHOUT
  20:./lib/chibios/os/common/ext/ARM/CMSIS/Core/Include/cmsis_gcc.h ****  * WARRANTIES OR CONDITIONS OF ANY KIND, either express or implied.
  21:./lib/chibios/os/common/ext/ARM/CMSIS/Core/Include/cmsis_gcc.h ****  * See the License for the specific language governing permissions and
  22:./lib/chibios/os/common/ext/ARM/CMSIS/Core/Include/cmsis_gcc.h ****  * limitations under the License.
  23:./lib/chibios/os/common/ext/ARM/CMSIS/Core/Include/cmsis_gcc.h ****  */
  24:./lib/chibios/os/common/ext/ARM/CMSIS/Core/Include/cmsis_gcc.h **** 
  25:./lib/chibios/os/common/ext/ARM/CMSIS/Core/Include/cmsis_gcc.h **** #ifndef __CMSIS_GCC_H
  26:./lib/chibios/os/common/ext/ARM/CMSIS/Core/Include/cmsis_gcc.h **** #define __CMSIS_GCC_H
  27:./lib/chibios/os/common/ext/ARM/CMSIS/Core/Include/cmsis_gcc.h **** 
  28:./lib/chibios/os/common/ext/ARM/CMSIS/Core/Include/cmsis_gcc.h **** /* ignore some GCC warnings */
  29:./lib/chibios/os/common/ext/ARM/CMSIS/Core/Include/cmsis_gcc.h **** #pragma GCC diagnostic push
  30:./lib/chibios/os/common/ext/ARM/CMSIS/Core/Include/cmsis_gcc.h **** #pragma GCC diagnostic ignored "-Wsign-conversion"
  31:./lib/chibios/os/common/ext/ARM/CMSIS/Core/Include/cmsis_gcc.h **** #pragma GCC diagnostic ignored "-Wconversion"
  32:./lib/chibios/os/common/ext/ARM/CMSIS/Core/Include/cmsis_gcc.h **** #pragma GCC diagnostic ignored "-Wunused-parameter"
  33:./lib/chibios/os/common/ext/ARM/CMSIS/Core/Include/cmsis_gcc.h **** 
  34:./lib/chibios/os/common/ext/ARM/CMSIS/Core/Include/cmsis_gcc.h **** /* Fallback for __has_builtin */
  35:./lib/chibios/os/common/ext/ARM/CMSIS/Core/Include/cmsis_gcc.h **** #ifndef __has_builtin
  36:./lib/chibios/os/common/ext/ARM/CMSIS/Core/Include/cmsis_gcc.h ****   #define __has_builtin(x) (0)
  37:./lib/chibios/os/common/ext/ARM/CMSIS/Core/Include/cmsis_gcc.h **** #endif
  38:./lib/chibios/os/common/ext/ARM/CMSIS/Core/Include/cmsis_gcc.h **** 
  39:./lib/chibios/os/common/ext/ARM/CMSIS/Core/Include/cmsis_gcc.h **** /* CMSIS compiler specific defines */
  40:./lib/chibios/os/common/ext/ARM/CMSIS/Core/Include/cmsis_gcc.h **** #ifndef   __ASM
  41:./lib/chibios/os/common/ext/ARM/CMSIS/Core/Include/cmsis_gcc.h ****   #define __ASM                                  __asm
  42:./lib/chibios/os/common/ext/ARM/CMSIS/Core/Include/cmsis_gcc.h **** #endif
  43:./lib/chibios/os/common/ext/ARM/CMSIS/Core/Include/cmsis_gcc.h **** #ifndef   __INLINE
  44:./lib/chibios/os/common/ext/ARM/CMSIS/Core/Include/cmsis_gcc.h ****   #define __INLINE                               inline
  45:./lib/chibios/os/common/ext/ARM/CMSIS/Core/Include/cmsis_gcc.h **** #endif
  46:./lib/chibios/os/common/ext/ARM/CMSIS/Core/Include/cmsis_gcc.h **** #ifndef   __STATIC_INLINE
  47:./lib/chibios/os/common/ext/ARM/CMSIS/Core/Include/cmsis_gcc.h ****   #define __STATIC_INLINE                        static inline
  48:./lib/chibios/os/common/ext/ARM/CMSIS/Core/Include/cmsis_gcc.h **** #endif
  49:./lib/chibios/os/common/ext/ARM/CMSIS/Core/Include/cmsis_gcc.h **** #ifndef   __STATIC_FORCEINLINE                 
  50:./lib/chibios/os/common/ext/ARM/CMSIS/Core/Include/cmsis_gcc.h ****   #define __STATIC_FORCEINLINE                   __attribute__((always_inline)) static inline
  51:./lib/chibios/os/common/ext/ARM/CMSIS/Core/Include/cmsis_gcc.h **** #endif                                           
  52:./lib/chibios/os/common/ext/ARM/CMSIS/Core/Include/cmsis_gcc.h **** #ifndef   __NO_RETURN
  53:./lib/chibios/os/common/ext/ARM/CMSIS/Core/Include/cmsis_gcc.h ****   #define __NO_RETURN                            __attribute__((__noreturn__))
  54:./lib/chibios/os/common/ext/ARM/CMSIS/Core/Include/cmsis_gcc.h **** #endif
  55:./lib/chibios/os/common/ext/ARM/CMSIS/Core/Include/cmsis_gcc.h **** #ifndef   __USED
  56:./lib/chibios/os/common/ext/ARM/CMSIS/Core/Include/cmsis_gcc.h ****   #define __USED                                 __attribute__((used))
  57:./lib/chibios/os/common/ext/ARM/CMSIS/Core/Include/cmsis_gcc.h **** #endif
  58:./lib/chibios/os/common/ext/ARM/CMSIS/Core/Include/cmsis_gcc.h **** #ifndef   __WEAK
  59:./lib/chibios/os/common/ext/ARM/CMSIS/Core/Include/cmsis_gcc.h ****   #define __WEAK                                 __attribute__((weak))
  60:./lib/chibios/os/common/ext/ARM/CMSIS/Core/Include/cmsis_gcc.h **** #endif
  61:./lib/chibios/os/common/ext/ARM/CMSIS/Core/Include/cmsis_gcc.h **** #ifndef   __PACKED
  62:./lib/chibios/os/common/ext/ARM/CMSIS/Core/Include/cmsis_gcc.h ****   #define __PACKED                               __attribute__((packed, aligned(1)))
  63:./lib/chibios/os/common/ext/ARM/CMSIS/Core/Include/cmsis_gcc.h **** #endif
  64:./lib/chibios/os/common/ext/ARM/CMSIS/Core/Include/cmsis_gcc.h **** #ifndef   __PACKED_STRUCT
  65:./lib/chibios/os/common/ext/ARM/CMSIS/Core/Include/cmsis_gcc.h ****   #define __PACKED_STRUCT                        struct __attribute__((packed, aligned(1)))
  66:./lib/chibios/os/common/ext/ARM/CMSIS/Core/Include/cmsis_gcc.h **** #endif
  67:./lib/chibios/os/common/ext/ARM/CMSIS/Core/Include/cmsis_gcc.h **** #ifndef   __PACKED_UNION
  68:./lib/chibios/os/common/ext/ARM/CMSIS/Core/Include/cmsis_gcc.h ****   #define __PACKED_UNION                         union __attribute__((packed, aligned(1)))
  69:./lib/chibios/os/common/ext/ARM/CMSIS/Core/Include/cmsis_gcc.h **** #endif
  70:./lib/chibios/os/common/ext/ARM/CMSIS/Core/Include/cmsis_gcc.h **** #ifndef   __UNALIGNED_UINT32        /* deprecated */
  71:./lib/chibios/os/common/ext/ARM/CMSIS/Core/Include/cmsis_gcc.h ****   #pragma GCC diagnostic push
  72:./lib/chibios/os/common/ext/ARM/CMSIS/Core/Include/cmsis_gcc.h ****   #pragma GCC diagnostic ignored "-Wpacked"
  73:./lib/chibios/os/common/ext/ARM/CMSIS/Core/Include/cmsis_gcc.h ****   #pragma GCC diagnostic ignored "-Wattributes"
  74:./lib/chibios/os/common/ext/ARM/CMSIS/Core/Include/cmsis_gcc.h ****   struct __attribute__((packed)) T_UINT32 { uint32_t v; };
  75:./lib/chibios/os/common/ext/ARM/CMSIS/Core/Include/cmsis_gcc.h ****   #pragma GCC diagnostic pop
  76:./lib/chibios/os/common/ext/ARM/CMSIS/Core/Include/cmsis_gcc.h ****   #define __UNALIGNED_UINT32(x)                  (((struct T_UINT32 *)(x))->v)
  77:./lib/chibios/os/common/ext/ARM/CMSIS/Core/Include/cmsis_gcc.h **** #endif
  78:./lib/chibios/os/common/ext/ARM/CMSIS/Core/Include/cmsis_gcc.h **** #ifndef   __UNALIGNED_UINT16_WRITE
  79:./lib/chibios/os/common/ext/ARM/CMSIS/Core/Include/cmsis_gcc.h ****   #pragma GCC diagnostic push
  80:./lib/chibios/os/common/ext/ARM/CMSIS/Core/Include/cmsis_gcc.h ****   #pragma GCC diagnostic ignored "-Wpacked"
  81:./lib/chibios/os/common/ext/ARM/CMSIS/Core/Include/cmsis_gcc.h ****   #pragma GCC diagnostic ignored "-Wattributes"
  82:./lib/chibios/os/common/ext/ARM/CMSIS/Core/Include/cmsis_gcc.h ****   __PACKED_STRUCT T_UINT16_WRITE { uint16_t v; };
  83:./lib/chibios/os/common/ext/ARM/CMSIS/Core/Include/cmsis_gcc.h ****   #pragma GCC diagnostic pop
  84:./lib/chibios/os/common/ext/ARM/CMSIS/Core/Include/cmsis_gcc.h ****   #define __UNALIGNED_UINT16_WRITE(addr, val)    (void)((((struct T_UINT16_WRITE *)(void *)(addr))-
  85:./lib/chibios/os/common/ext/ARM/CMSIS/Core/Include/cmsis_gcc.h **** #endif
  86:./lib/chibios/os/common/ext/ARM/CMSIS/Core/Include/cmsis_gcc.h **** #ifndef   __UNALIGNED_UINT16_READ
  87:./lib/chibios/os/common/ext/ARM/CMSIS/Core/Include/cmsis_gcc.h ****   #pragma GCC diagnostic push
  88:./lib/chibios/os/common/ext/ARM/CMSIS/Core/Include/cmsis_gcc.h ****   #pragma GCC diagnostic ignored "-Wpacked"
  89:./lib/chibios/os/common/ext/ARM/CMSIS/Core/Include/cmsis_gcc.h ****   #pragma GCC diagnostic ignored "-Wattributes"
  90:./lib/chibios/os/common/ext/ARM/CMSIS/Core/Include/cmsis_gcc.h ****   __PACKED_STRUCT T_UINT16_READ { uint16_t v; };
  91:./lib/chibios/os/common/ext/ARM/CMSIS/Core/Include/cmsis_gcc.h ****   #pragma GCC diagnostic pop
  92:./lib/chibios/os/common/ext/ARM/CMSIS/Core/Include/cmsis_gcc.h ****   #define __UNALIGNED_UINT16_READ(addr)          (((const struct T_UINT16_READ *)(const void *)(add
  93:./lib/chibios/os/common/ext/ARM/CMSIS/Core/Include/cmsis_gcc.h **** #endif
  94:./lib/chibios/os/common/ext/ARM/CMSIS/Core/Include/cmsis_gcc.h **** #ifndef   __UNALIGNED_UINT32_WRITE
  95:./lib/chibios/os/common/ext/ARM/CMSIS/Core/Include/cmsis_gcc.h ****   #pragma GCC diagnostic push
  96:./lib/chibios/os/common/ext/ARM/CMSIS/Core/Include/cmsis_gcc.h ****   #pragma GCC diagnostic ignored "-Wpacked"
  97:./lib/chibios/os/common/ext/ARM/CMSIS/Core/Include/cmsis_gcc.h ****   #pragma GCC diagnostic ignored "-Wattributes"
  98:./lib/chibios/os/common/ext/ARM/CMSIS/Core/Include/cmsis_gcc.h ****   __PACKED_STRUCT T_UINT32_WRITE { uint32_t v; };
  99:./lib/chibios/os/common/ext/ARM/CMSIS/Core/Include/cmsis_gcc.h ****   #pragma GCC diagnostic pop
 100:./lib/chibios/os/common/ext/ARM/CMSIS/Core/Include/cmsis_gcc.h ****   #define __UNALIGNED_UINT32_WRITE(addr, val)    (void)((((struct T_UINT32_WRITE *)(void *)(addr))-
 101:./lib/chibios/os/common/ext/ARM/CMSIS/Core/Include/cmsis_gcc.h **** #endif
 102:./lib/chibios/os/common/ext/ARM/CMSIS/Core/Include/cmsis_gcc.h **** #ifndef   __UNALIGNED_UINT32_READ
 103:./lib/chibios/os/common/ext/ARM/CMSIS/Core/Include/cmsis_gcc.h ****   #pragma GCC diagnostic push
 104:./lib/chibios/os/common/ext/ARM/CMSIS/Core/Include/cmsis_gcc.h ****   #pragma GCC diagnostic ignored "-Wpacked"
 105:./lib/chibios/os/common/ext/ARM/CMSIS/Core/Include/cmsis_gcc.h ****   #pragma GCC diagnostic ignored "-Wattributes"
 106:./lib/chibios/os/common/ext/ARM/CMSIS/Core/Include/cmsis_gcc.h ****   __PACKED_STRUCT T_UINT32_READ { uint32_t v; };
 107:./lib/chibios/os/common/ext/ARM/CMSIS/Core/Include/cmsis_gcc.h ****   #pragma GCC diagnostic pop
 108:./lib/chibios/os/common/ext/ARM/CMSIS/Core/Include/cmsis_gcc.h ****   #define __UNALIGNED_UINT32_READ(addr)          (((const struct T_UINT32_READ *)(const void *)(add
 109:./lib/chibios/os/common/ext/ARM/CMSIS/Core/Include/cmsis_gcc.h **** #endif
 110:./lib/chibios/os/common/ext/ARM/CMSIS/Core/Include/cmsis_gcc.h **** #ifndef   __ALIGNED
 111:./lib/chibios/os/common/ext/ARM/CMSIS/Core/Include/cmsis_gcc.h ****   #define __ALIGNED(x)                           __attribute__((aligned(x)))
 112:./lib/chibios/os/common/ext/ARM/CMSIS/Core/Include/cmsis_gcc.h **** #endif
 113:./lib/chibios/os/common/ext/ARM/CMSIS/Core/Include/cmsis_gcc.h **** #ifndef   __RESTRICT
 114:./lib/chibios/os/common/ext/ARM/CMSIS/Core/Include/cmsis_gcc.h ****   #define __RESTRICT                             __restrict
 115:./lib/chibios/os/common/ext/ARM/CMSIS/Core/Include/cmsis_gcc.h **** #endif
 116:./lib/chibios/os/common/ext/ARM/CMSIS/Core/Include/cmsis_gcc.h **** 
 117:./lib/chibios/os/common/ext/ARM/CMSIS/Core/Include/cmsis_gcc.h **** 
 118:./lib/chibios/os/common/ext/ARM/CMSIS/Core/Include/cmsis_gcc.h **** /* ###########################  Core Function Access  ########################### */
 119:./lib/chibios/os/common/ext/ARM/CMSIS/Core/Include/cmsis_gcc.h **** /** \ingroup  CMSIS_Core_FunctionInterface
 120:./lib/chibios/os/common/ext/ARM/CMSIS/Core/Include/cmsis_gcc.h ****     \defgroup CMSIS_Core_RegAccFunctions CMSIS Core Register Access Functions
 121:./lib/chibios/os/common/ext/ARM/CMSIS/Core/Include/cmsis_gcc.h ****   @{
 122:./lib/chibios/os/common/ext/ARM/CMSIS/Core/Include/cmsis_gcc.h ****  */
 123:./lib/chibios/os/common/ext/ARM/CMSIS/Core/Include/cmsis_gcc.h **** 
 124:./lib/chibios/os/common/ext/ARM/CMSIS/Core/Include/cmsis_gcc.h **** /**
 125:./lib/chibios/os/common/ext/ARM/CMSIS/Core/Include/cmsis_gcc.h ****   \brief   Enable IRQ Interrupts
 126:./lib/chibios/os/common/ext/ARM/CMSIS/Core/Include/cmsis_gcc.h ****   \details Enables IRQ interrupts by clearing the I-bit in the CPSR.
 127:./lib/chibios/os/common/ext/ARM/CMSIS/Core/Include/cmsis_gcc.h ****            Can only be executed in Privileged modes.
 128:./lib/chibios/os/common/ext/ARM/CMSIS/Core/Include/cmsis_gcc.h ****  */
 129:./lib/chibios/os/common/ext/ARM/CMSIS/Core/Include/cmsis_gcc.h **** __STATIC_FORCEINLINE void __enable_irq(void)
 130:./lib/chibios/os/common/ext/ARM/CMSIS/Core/Include/cmsis_gcc.h **** {
 131:./lib/chibios/os/common/ext/ARM/CMSIS/Core/Include/cmsis_gcc.h ****   __ASM volatile ("cpsie i" : : : "memory");
 132:./lib/chibios/os/common/ext/ARM/CMSIS/Core/Include/cmsis_gcc.h **** }
 133:./lib/chibios/os/common/ext/ARM/CMSIS/Core/Include/cmsis_gcc.h **** 
 134:./lib/chibios/os/common/ext/ARM/CMSIS/Core/Include/cmsis_gcc.h **** 
 135:./lib/chibios/os/common/ext/ARM/CMSIS/Core/Include/cmsis_gcc.h **** /**
 136:./lib/chibios/os/common/ext/ARM/CMSIS/Core/Include/cmsis_gcc.h ****   \brief   Disable IRQ Interrupts
 137:./lib/chibios/os/common/ext/ARM/CMSIS/Core/Include/cmsis_gcc.h ****   \details Disables IRQ interrupts by setting the I-bit in the CPSR.
 138:./lib/chibios/os/common/ext/ARM/CMSIS/Core/Include/cmsis_gcc.h ****            Can only be executed in Privileged modes.
 139:./lib/chibios/os/common/ext/ARM/CMSIS/Core/Include/cmsis_gcc.h ****  */
 140:./lib/chibios/os/common/ext/ARM/CMSIS/Core/Include/cmsis_gcc.h **** __STATIC_FORCEINLINE void __disable_irq(void)
 284              		.loc 5 140 27 view .LVU58
 285              	.LBB391:
 141:./lib/chibios/os/common/ext/ARM/CMSIS/Core/Include/cmsis_gcc.h **** {
 142:./lib/chibios/os/common/ext/ARM/CMSIS/Core/Include/cmsis_gcc.h ****   __ASM volatile ("cpsid i" : : : "memory");
 286              		.loc 5 142 3 view .LVU59
 287              		.syntax divided
 288              	@ 142 "./lib/chibios/os/common/ext/ARM/CMSIS/Core/Include/cmsis_gcc.h" 1
 289 0014 72B6     		cpsid i
 290              	@ 0 "" 2
 291              		.thumb
 292              		.syntax unified
 293              	.LBE391:
 294              	.LBE390:
 295              	.LBE392:
 296              	.LBE394:
 297              	.LBE397:
 298              	.LBE401:
 299              	.LBE422:
 300              	.LBE431:
 396:./lib/chibios/os/rt/include/chsys.h ****   _stats_start_measure_crit_isr();
 301              		.loc 3 396 34 view .LVU60
 397:./lib/chibios/os/rt/include/chsys.h ****   _dbg_check_lock_from_isr();
 302              		.loc 3 397 29 view .LVU61
 303              	.LBB432:
 304              	.LBB423:
 306:tmk_core/protocol/chibios/usb_main.c **** #endif
 305              		.loc 1 306 13 view .LVU62
 306 0016 1D4A     		ldr	r2, .L26
 307 0018 0121     		movs	r1, #1
 308              	.LVL15:
 306:tmk_core/protocol/chibios/usb_main.c **** #endif
 309              		.loc 1 306 13 is_stmt 0 view .LVU63
 310 001a 2000     		movs	r0, r4
 311 001c FFF7FEFF 		bl	usbInitEndpointI
 312              	.LVL16:
 312:tmk_core/protocol/chibios/usb_main.c **** #endif
 313              		.loc 1 312 13 is_stmt 1 view .LVU64
 314 0020 1B4A     		ldr	r2, .L26+4
 315 0022 0221     		movs	r1, #2
 316 0024 2000     		movs	r0, r4
 317 0026 FFF7FEFF 		bl	usbInitEndpointI
 318              	.LVL17:
 314:tmk_core/protocol/chibios/usb_main.c ****                 usbInitEndpointI(usbp, drivers.array[i].config.bulk_in, &drivers.array[i].in_ep_con
 319              		.loc 1 314 13 view .LVU65
 320              	.LBB402:
 314:tmk_core/protocol/chibios/usb_main.c ****                 usbInitEndpointI(usbp, drivers.array[i].config.bulk_in, &drivers.array[i].in_ep_con
 321              		.loc 1 314 18 view .LVU66
 315:tmk_core/protocol/chibios/usb_main.c ****                 usbInitEndpointI(usbp, drivers.array[i].config.bulk_out, &drivers.array[i].out_ep_c
 322              		.loc 1 315 17 view .LVU67
 323 002a 1A4D     		ldr	r5, .L26+8
 324 002c 1A4A     		ldr	r2, .L26+12
 325 002e 2B00     		movs	r3, r5
 326 0030 B433     		adds	r3, r3, #180
 327 0032 1978     		ldrb	r1, [r3]
 328 0034 2000     		movs	r0, r4
 329 0036 FFF7FEFF 		bl	usbInitEndpointI
 330              	.LVL18:
 316:tmk_core/protocol/chibios/usb_main.c ****                 if (drivers.array[i].config.int_in) {
 331              		.loc 1 316 17 view .LVU68
 332 003a 2B00     		movs	r3, r5
 333 003c B533     		adds	r3, r3, #181
 334 003e 1978     		ldrb	r1, [r3]
 335 0040 164A     		ldr	r2, .L26+16
 336 0042 2000     		movs	r0, r4
 317:tmk_core/protocol/chibios/usb_main.c ****                     usbInitEndpointI(usbp, drivers.array[i].config.int_in, &drivers.array[i].int_ep
 337              		.loc 1 317 44 is_stmt 0 view .LVU69
 338 0044 B635     		adds	r5, r5, #182
 316:tmk_core/protocol/chibios/usb_main.c ****                 if (drivers.array[i].config.int_in) {
 339              		.loc 1 316 17 view .LVU70
 340 0046 FFF7FEFF 		bl	usbInitEndpointI
 341              	.LVL19:
 317:tmk_core/protocol/chibios/usb_main.c ****                     usbInitEndpointI(usbp, drivers.array[i].config.int_in, &drivers.array[i].int_ep
 342              		.loc 1 317 17 is_stmt 1 view .LVU71
 317:tmk_core/protocol/chibios/usb_main.c ****                     usbInitEndpointI(usbp, drivers.array[i].config.int_in, &drivers.array[i].int_ep
 343              		.loc 1 317 44 is_stmt 0 view .LVU72
 344 004a 2978     		ldrb	r1, [r5]
 317:tmk_core/protocol/chibios/usb_main.c ****                     usbInitEndpointI(usbp, drivers.array[i].config.int_in, &drivers.array[i].int_ep
 345              		.loc 1 317 20 view .LVU73
 346 004c 0029     		cmp	r1, #0
 347 004e 03D0     		beq	.L21
 318:tmk_core/protocol/chibios/usb_main.c ****                 }
 348              		.loc 1 318 21 is_stmt 1 view .LVU74
 349 0050 134A     		ldr	r2, .L26+20
 350 0052 2000     		movs	r0, r4
 351 0054 FFF7FEFF 		bl	usbInitEndpointI
 352              	.LVL20:
 353              	.L21:
 320:tmk_core/protocol/chibios/usb_main.c ****             }
 354              		.loc 1 320 17 view .LVU75
 355 0058 1248     		ldr	r0, .L26+24
 356 005a FFF7FEFF 		bl	qmkusbConfigureHookI
 357              	.LVL21:
 320:tmk_core/protocol/chibios/usb_main.c ****             }
 358              		.loc 1 320 17 is_stmt 0 view .LVU76
 359              	.LBE402:
 322:tmk_core/protocol/chibios/usb_main.c ****             return;
 360              		.loc 1 322 13 is_stmt 1 view .LVU77
 361              	.LBB403:
 362              	.LBI403:
 534:./lib/chibios/os/hal/osal/rt/osal.h **** }
 535:./lib/chibios/os/hal/osal/rt/osal.h **** 
 536:./lib/chibios/os/hal/osal/rt/osal.h **** /**
 537:./lib/chibios/os/hal/osal/rt/osal.h ****  * @brief   Leaves a critical zone from ISR context.
 538:./lib/chibios/os/hal/osal/rt/osal.h ****  * @note    This function cannot be used for reentrant critical zones.
 539:./lib/chibios/os/hal/osal/rt/osal.h ****  *
 540:./lib/chibios/os/hal/osal/rt/osal.h ****  * @special
 541:./lib/chibios/os/hal/osal/rt/osal.h ****  */
 542:./lib/chibios/os/hal/osal/rt/osal.h **** static inline void osalSysUnlockFromISR(void) {
 363              		.loc 2 542 20 view .LVU78
 364              	.LBE403:
 365              	.LBE423:
 366              	.LBE432:
 543:./lib/chibios/os/hal/osal/rt/osal.h **** 
 544:./lib/chibios/os/hal/osal/rt/osal.h ****   chSysUnlockFromISR();
 367              		.loc 2 544 3 view .LVU79
 368              	.LBB433:
 369              	.LBB424:
 370              	.LBB415:
 371              	.LBB404:
 372              	.LBI404:
 398:./lib/chibios/os/rt/include/chsys.h **** }
 399:./lib/chibios/os/rt/include/chsys.h **** 
 400:./lib/chibios/os/rt/include/chsys.h **** /**
 401:./lib/chibios/os/rt/include/chsys.h ****  * @brief   Leaves the kernel lock state from within an interrupt handler.
 402:./lib/chibios/os/rt/include/chsys.h ****  *
 403:./lib/chibios/os/rt/include/chsys.h ****  * @note    This API may do nothing on some architectures, it is required
 404:./lib/chibios/os/rt/include/chsys.h ****  *          because on ports that support preemptable interrupt handlers
 405:./lib/chibios/os/rt/include/chsys.h ****  *          it is required to raise the interrupt mask to the same level of
 406:./lib/chibios/os/rt/include/chsys.h ****  *          the system mutual exclusion zone.<br>
 407:./lib/chibios/os/rt/include/chsys.h ****  *          It is good practice to invoke this API after invoking any I-class
 408:./lib/chibios/os/rt/include/chsys.h ****  *          syscall from an interrupt handler.
 409:./lib/chibios/os/rt/include/chsys.h ****  * @note    This API must be invoked exclusively from interrupt handlers.
 410:./lib/chibios/os/rt/include/chsys.h ****  *
 411:./lib/chibios/os/rt/include/chsys.h ****  * @special
 412:./lib/chibios/os/rt/include/chsys.h ****  */
 413:./lib/chibios/os/rt/include/chsys.h **** static inline void chSysUnlockFromISR(void) {
 373              		.loc 3 413 20 view .LVU80
 374              	.LBE404:
 375              	.LBE415:
 376              	.LBE424:
 377              	.LBE433:
 414:./lib/chibios/os/rt/include/chsys.h **** 
 415:./lib/chibios/os/rt/include/chsys.h ****   _dbg_check_unlock_from_isr();
 378              		.loc 3 415 31 view .LVU81
 416:./lib/chibios/os/rt/include/chsys.h ****   _stats_stop_measure_crit_isr();
 379              		.loc 3 416 33 view .LVU82
 417:./lib/chibios/os/rt/include/chsys.h ****   port_unlock_from_isr();
 380              		.loc 3 417 3 view .LVU83
 381              	.LBB434:
 382              	.LBB425:
 383              	.LBB416:
 384              	.LBB412:
 385              	.LBB405:
 386              	.LBI405:
 409:./lib/chibios/os/common/ports/ARMCMx/chcore_v6m.h **** }
 410:./lib/chibios/os/common/ports/ARMCMx/chcore_v6m.h **** 
 411:./lib/chibios/os/common/ports/ARMCMx/chcore_v6m.h **** /**
 412:./lib/chibios/os/common/ports/ARMCMx/chcore_v6m.h ****  * @brief   Kernel-unlock action from an interrupt handler.
 413:./lib/chibios/os/common/ports/ARMCMx/chcore_v6m.h ****  * @details In this port this function enables interrupts globally.
 414:./lib/chibios/os/common/ports/ARMCMx/chcore_v6m.h ****  * @note    Same as @p port_lock() in this port.
 415:./lib/chibios/os/common/ports/ARMCMx/chcore_v6m.h ****  */
 416:./lib/chibios/os/common/ports/ARMCMx/chcore_v6m.h **** static inline void port_unlock_from_isr(void) {
 387              		.loc 4 416 20 view .LVU84
 388              	.LBE405:
 389              	.LBE412:
 390              	.LBE416:
 391              	.LBE425:
 392              	.LBE434:
 417:./lib/chibios/os/common/ports/ARMCMx/chcore_v6m.h **** 
 418:./lib/chibios/os/common/ports/ARMCMx/chcore_v6m.h ****   port_unlock();
 393              		.loc 4 418 3 view .LVU85
 394              	.LBB435:
 395              	.LBB426:
 396              	.LBB417:
 397              	.LBB413:
 398              	.LBB410:
 399              	.LBB406:
 400              	.LBI406:
 396:./lib/chibios/os/common/ports/ARMCMx/chcore_v6m.h **** 
 401              		.loc 4 396 20 view .LVU86
 402              	.LBE406:
 403              	.LBE410:
 404              	.LBE413:
 405              	.LBE417:
 406              	.LBE426:
 407              	.LBE435:
 398:./lib/chibios/os/common/ports/ARMCMx/chcore_v6m.h **** }
 408              		.loc 4 398 3 view .LVU87
 409              	.LBB436:
 410              	.LBB427:
 411              	.LBB418:
 412              	.LBB414:
 413              	.LBB411:
 414              	.LBB409:
 415              	.LBB407:
 416              	.LBI407:
 129:./lib/chibios/os/common/ext/ARM/CMSIS/Core/Include/cmsis_gcc.h **** {
 417              		.loc 5 129 27 view .LVU88
 418              	.LBB408:
 131:./lib/chibios/os/common/ext/ARM/CMSIS/Core/Include/cmsis_gcc.h **** }
 419              		.loc 5 131 3 view .LVU89
 420              	.L25:
 131:./lib/chibios/os/common/ext/ARM/CMSIS/Core/Include/cmsis_gcc.h **** }
 421              		.loc 5 131 3 is_stmt 0 view .LVU90
 422              	.LBE408:
 423              	.LBE407:
 424              	.LBE409:
 425              	.LBE411:
 426              	.LBE414:
 427              	.LBE418:
 428              	.LBE427:
 429              	.LBE436:
 430              	.LBB437:
 336:tmk_core/protocol/chibios/usb_main.c ****             }
 431              		.loc 1 336 17 is_stmt 1 view .LVU91
 432              	.LBB438:
 433              	.LBI438:
 413:./lib/chibios/os/rt/include/chsys.h **** 
 434              		.loc 3 413 20 view .LVU92
 435              	.LBE438:
 436              	.LBE437:
 415:./lib/chibios/os/rt/include/chsys.h ****   _stats_stop_measure_crit_isr();
 437              		.loc 3 415 31 view .LVU93
 416:./lib/chibios/os/rt/include/chsys.h ****   port_unlock_from_isr();
 438              		.loc 3 416 33 view .LVU94
 439              		.loc 3 417 3 view .LVU95
 440              	.LBB460:
 441              	.LBB446:
 442              	.LBB439:
 443              	.LBI439:
 416:./lib/chibios/os/common/ports/ARMCMx/chcore_v6m.h **** 
 444              		.loc 4 416 20 view .LVU96
 445              	.LBE439:
 446              	.LBE446:
 447              	.LBE460:
 448              		.loc 4 418 3 view .LVU97
 449              	.LBB461:
 450              	.LBB447:
 451              	.LBB444:
 452              	.LBB440:
 453              	.LBI440:
 396:./lib/chibios/os/common/ports/ARMCMx/chcore_v6m.h **** 
 454              		.loc 4 396 20 view .LVU98
 455              	.LBE440:
 456              	.LBE444:
 457              	.LBE447:
 458              	.LBE461:
 398:./lib/chibios/os/common/ports/ARMCMx/chcore_v6m.h **** }
 459              		.loc 4 398 3 view .LVU99
 460              	.LBB462:
 461              	.LBB448:
 462              	.LBB445:
 463              	.LBB443:
 464              	.LBB441:
 465              	.LBI441:
 129:./lib/chibios/os/common/ext/ARM/CMSIS/Core/Include/cmsis_gcc.h **** {
 466              		.loc 5 129 27 view .LVU100
 467              	.LBB442:
 131:./lib/chibios/os/common/ext/ARM/CMSIS/Core/Include/cmsis_gcc.h **** }
 468              		.loc 5 131 3 view .LVU101
 469              		.syntax divided
 470              	@ 131 "./lib/chibios/os/common/ext/ARM/CMSIS/Core/Include/cmsis_gcc.h" 1
 471 005e 62B6     		cpsie i
 472              	@ 0 "" 2
 473              	.LVL22:
 474              		.thumb
 475              		.syntax unified
 476              	.L14:
 131:./lib/chibios/os/common/ext/ARM/CMSIS/Core/Include/cmsis_gcc.h **** }
 477              		.loc 5 131 3 is_stmt 0 view .LVU102
 478              	.LBE442:
 479              	.LBE441:
 480              	.LBE443:
 481              	.LBE445:
 482              	.LBE448:
 483              	.LBE462:
 359:tmk_core/protocol/chibios/usb_main.c **** 
 484              		.loc 1 359 1 view .LVU103
 485              		@ sp needed
 486              	.LVL23:
 359:tmk_core/protocol/chibios/usb_main.c **** 
 487              		.loc 1 359 1 view .LVU104
 488 0060 70BD     		pop	{r4, r5, r6, pc}
 489              	.LVL24:
 490              	.L18:
 326:tmk_core/protocol/chibios/usb_main.c **** #endif /* SLEEP_LED_ENABLE */
 491              		.loc 1 326 13 is_stmt 1 view .LVU105
 492 0062 FFF7FEFF 		bl	sleep_led_enable
 493              	.LVL25:
 494              	.L19:
 495              	.LBB463:
 333:tmk_core/protocol/chibios/usb_main.c ****                 /* Disconnection event on suspend.*/
 496              		.loc 1 333 17 view .LVU106
 497              	.LBB449:
 498              	.LBI449:
 393:./lib/chibios/os/rt/include/chsys.h **** 
 499              		.loc 3 393 20 view .LVU107
 500              	.LBE449:
 501              	.LBE463:
 395:./lib/chibios/os/rt/include/chsys.h ****   _stats_start_measure_crit_isr();
 502              		.loc 3 395 3 view .LVU108
 503              	.LBB464:
 504              	.LBB457:
 505              	.LBB450:
 506              	.LBI450:
 406:./lib/chibios/os/common/ports/ARMCMx/chcore_v6m.h **** 
 507              		.loc 4 406 20 view .LVU109
 508              	.LBE450:
 509              	.LBE457:
 510              	.LBE464:
 408:./lib/chibios/os/common/ports/ARMCMx/chcore_v6m.h **** }
 511              		.loc 4 408 3 view .LVU110
 512              	.LBB465:
 513              	.LBB458:
 514              	.LBB455:
 515              	.LBB451:
 516              	.LBI451:
 387:./lib/chibios/os/common/ports/ARMCMx/chcore_v6m.h **** 
 517              		.loc 4 387 20 view .LVU111
 518              	.LBE451:
 519              	.LBE455:
 520              	.LBE458:
 521              	.LBE465:
 389:./lib/chibios/os/common/ports/ARMCMx/chcore_v6m.h **** }
 522              		.loc 4 389 3 view .LVU112
 523              	.LBB466:
 524              	.LBB459:
 525              	.LBB456:
 526              	.LBB454:
 527              	.LBB452:
 528              	.LBI452:
 140:./lib/chibios/os/common/ext/ARM/CMSIS/Core/Include/cmsis_gcc.h **** {
 529              		.loc 5 140 27 view .LVU113
 530              	.LBB453:
 531              		.loc 5 142 3 view .LVU114
 532              		.syntax divided
 533              	@ 142 "./lib/chibios/os/common/ext/ARM/CMSIS/Core/Include/cmsis_gcc.h" 1
 534 0066 72B6     		cpsid i
 535              	@ 0 "" 2
 536              		.thumb
 537              		.syntax unified
 538              	.LBE453:
 539              	.LBE452:
 540              	.LBE454:
 541              	.LBE456:
 542              	.LBE459:
 543              	.LBE466:
 396:./lib/chibios/os/rt/include/chsys.h ****   _dbg_check_lock_from_isr();
 544              		.loc 3 396 34 view .LVU115
 397:./lib/chibios/os/rt/include/chsys.h **** }
 545              		.loc 3 397 29 view .LVU116
 546              	.LBB467:
 335:tmk_core/protocol/chibios/usb_main.c ****                 chSysUnlockFromISR();
 547              		.loc 1 335 17 view .LVU117
 548 0068 0E48     		ldr	r0, .L26+24
 549 006a FFF7FEFF 		bl	qmkusbSuspendHookI
 550              	.LVL26:
 551 006e F6E7     		b	.L25
 552              	.LVL27:
 553              	.L16:
 335:tmk_core/protocol/chibios/usb_main.c ****                 chSysUnlockFromISR();
 554              		.loc 1 335 17 is_stmt 0 view .LVU118
 555              	.LBE467:
 556              	.LBB468:
 343:tmk_core/protocol/chibios/usb_main.c ****                 /* Disconnection event on suspend.*/
 557              		.loc 1 343 17 is_stmt 1 discriminator 1 view .LVU119
 558              	.LBB469:
 559              	.LBI469:
 393:./lib/chibios/os/rt/include/chsys.h **** 
 560              		.loc 3 393 20 discriminator 1 view .LVU120
 561              	.LBE469:
 562              	.LBE468:
 395:./lib/chibios/os/rt/include/chsys.h ****   _stats_start_measure_crit_isr();
 563              		.loc 3 395 3 discriminator 1 view .LVU121
 564              	.LBB491:
 565              	.LBB477:
 566              	.LBB470:
 567              	.LBI470:
 406:./lib/chibios/os/common/ports/ARMCMx/chcore_v6m.h **** 
 568              		.loc 4 406 20 discriminator 1 view .LVU122
 569              	.LBE470:
 570              	.LBE477:
 571              	.LBE491:
 408:./lib/chibios/os/common/ports/ARMCMx/chcore_v6m.h **** }
 572              		.loc 4 408 3 discriminator 1 view .LVU123
 573              	.LBB492:
 574              	.LBB478:
 575              	.LBB475:
 576              	.LBB471:
 577              	.LBI471:
 387:./lib/chibios/os/common/ports/ARMCMx/chcore_v6m.h **** 
 578              		.loc 4 387 20 discriminator 1 view .LVU124
 579              	.LBE471:
 580              	.LBE475:
 581              	.LBE478:
 582              	.LBE492:
 389:./lib/chibios/os/common/ports/ARMCMx/chcore_v6m.h **** }
 583              		.loc 4 389 3 discriminator 1 view .LVU125
 584              	.LBB493:
 585              	.LBB479:
 586              	.LBB476:
 587              	.LBB474:
 588              	.LBB472:
 589              	.LBI472:
 140:./lib/chibios/os/common/ext/ARM/CMSIS/Core/Include/cmsis_gcc.h **** {
 590              		.loc 5 140 27 discriminator 1 view .LVU126
 591              	.LBB473:
 592              		.loc 5 142 3 discriminator 1 view .LVU127
 593              		.syntax divided
 594              	@ 142 "./lib/chibios/os/common/ext/ARM/CMSIS/Core/Include/cmsis_gcc.h" 1
 595 0070 72B6     		cpsid i
 596              	@ 0 "" 2
 597              		.thumb
 598              		.syntax unified
 599              	.LBE473:
 600              	.LBE472:
 601              	.LBE474:
 602              	.LBE476:
 603              	.LBE479:
 604              	.LBE493:
 396:./lib/chibios/os/rt/include/chsys.h ****   _dbg_check_lock_from_isr();
 605              		.loc 3 396 34 discriminator 1 view .LVU128
 397:./lib/chibios/os/rt/include/chsys.h **** }
 606              		.loc 3 397 29 discriminator 1 view .LVU129
 607              	.LBB494:
 345:tmk_core/protocol/chibios/usb_main.c ****                 chSysUnlockFromISR();
 608              		.loc 1 345 17 discriminator 1 view .LVU130
 609 0072 0C48     		ldr	r0, .L26+24
 610 0074 FFF7FEFF 		bl	qmkusbWakeupHookI
 611              	.LVL28:
 346:tmk_core/protocol/chibios/usb_main.c ****             }
 612              		.loc 1 346 17 discriminator 1 view .LVU131
 613              	.LBB480:
 614              	.LBI480:
 413:./lib/chibios/os/rt/include/chsys.h **** 
 615              		.loc 3 413 20 discriminator 1 view .LVU132
 616              	.LBE480:
 617              	.LBE494:
 415:./lib/chibios/os/rt/include/chsys.h ****   _stats_stop_measure_crit_isr();
 618              		.loc 3 415 31 discriminator 1 view .LVU133
 416:./lib/chibios/os/rt/include/chsys.h ****   port_unlock_from_isr();
 619              		.loc 3 416 33 discriminator 1 view .LVU134
 620              		.loc 3 417 3 discriminator 1 view .LVU135
 621              	.LBB495:
 622              	.LBB488:
 623              	.LBB481:
 624              	.LBI481:
 416:./lib/chibios/os/common/ports/ARMCMx/chcore_v6m.h **** 
 625              		.loc 4 416 20 discriminator 1 view .LVU136
 626              	.LBE481:
 627              	.LBE488:
 628              	.LBE495:
 629              		.loc 4 418 3 discriminator 1 view .LVU137
 630              	.LBB496:
 631              	.LBB489:
 632              	.LBB486:
 633              	.LBB482:
 634              	.LBI482:
 396:./lib/chibios/os/common/ports/ARMCMx/chcore_v6m.h **** 
 635              		.loc 4 396 20 discriminator 1 view .LVU138
 636              	.LBE482:
 637              	.LBE486:
 638              	.LBE489:
 639              	.LBE496:
 398:./lib/chibios/os/common/ports/ARMCMx/chcore_v6m.h **** }
 640              		.loc 4 398 3 discriminator 1 view .LVU139
 641              	.LBB497:
 642              	.LBB490:
 643              	.LBB487:
 644              	.LBB485:
 645              	.LBB483:
 646              	.LBI483:
 129:./lib/chibios/os/common/ext/ARM/CMSIS/Core/Include/cmsis_gcc.h **** {
 647              		.loc 5 129 27 discriminator 1 view .LVU140
 648              	.LBB484:
 131:./lib/chibios/os/common/ext/ARM/CMSIS/Core/Include/cmsis_gcc.h **** }
 649              		.loc 5 131 3 discriminator 1 view .LVU141
 650              		.syntax divided
 651              	@ 131 "./lib/chibios/os/common/ext/ARM/CMSIS/Core/Include/cmsis_gcc.h" 1
 652 0078 62B6     		cpsie i
 653              	@ 0 "" 2
 654              	.LVL29:
 131:./lib/chibios/os/common/ext/ARM/CMSIS/Core/Include/cmsis_gcc.h **** }
 655              		.loc 5 131 3 is_stmt 0 discriminator 1 view .LVU142
 656              		.thumb
 657              		.syntax unified
 658              	.LBE484:
 659              	.LBE483:
 660              	.LBE485:
 661              	.LBE487:
 662              	.LBE490:
 663              	.LBE497:
 348:tmk_core/protocol/chibios/usb_main.c **** #ifdef SLEEP_LED_ENABLE
 664              		.loc 1 348 13 is_stmt 1 discriminator 1 view .LVU143
 665 007a FFF7FEFF 		bl	suspend_wakeup_init
 666              	.LVL30:
 350:tmk_core/protocol/chibios/usb_main.c ****             // NOTE: converters may not accept this
 667              		.loc 1 350 13 discriminator 1 view .LVU144
 668 007e FFF7FEFF 		bl	sleep_led_disable
 669              	.LVL31:
 352:tmk_core/protocol/chibios/usb_main.c **** #endif /* SLEEP_LED_ENABLE */
 670              		.loc 1 352 13 discriminator 1 view .LVU145
 671 0082 FFF7FEFF 		bl	host_keyboard_leds
 672              	.LVL32:
 673 0086 FFF7FEFF 		bl	led_set
 674              	.LVL33:
 354:tmk_core/protocol/chibios/usb_main.c **** 
 675              		.loc 1 354 13 discriminator 1 view .LVU146
 676 008a E9E7     		b	.L14
 677              	.L27:
 678              		.align	2
 679              	.L26:
 680 008c 00000000 		.word	.LANCHOR3
 681 0090 00000000 		.word	.LANCHOR4
 682 0094 00000000 		.word	drivers
 683 0098 44000000 		.word	drivers+68
 684 009c 68000000 		.word	drivers+104
 685 00a0 8C000000 		.word	drivers+140
 686 00a4 D4000000 		.word	drivers+212
 687              		.cfi_endproc
 688              	.LFE189:
 690              		.section	.text.usb_sof_cb,"ax",%progbits
 691              		.align	1
 692              		.syntax unified
 693              		.code	16
 694              		.thumb_func
 695              		.fpu softvfp
 697              	usb_sof_cb:
 698              	.LVL34:
 699              	.LFB193:
 519:tmk_core/protocol/chibios/usb_main.c ****     kbd_sof_cb(usbp);
 700              		.loc 1 519 41 view -0
 701              		.cfi_startproc
 702              		@ args = 0, pretend = 0, frame = 0
 703              		@ frame_needed = 0, uses_anonymous_args = 0
 520:tmk_core/protocol/chibios/usb_main.c ****     osalSysLockFromISR();
 704              		.loc 1 520 5 view .LVU148
 573:tmk_core/protocol/chibios/usb_main.c **** #endif
 574:tmk_core/protocol/chibios/usb_main.c **** 
 575:tmk_core/protocol/chibios/usb_main.c **** /* start-of-frame handler
 576:tmk_core/protocol/chibios/usb_main.c ****  * TODO: i guess it would be better to re-implement using timers,
 577:tmk_core/protocol/chibios/usb_main.c ****  *  so that this is not going to have to be checked every 1ms */
 578:tmk_core/protocol/chibios/usb_main.c **** void kbd_sof_cb(USBDriver *usbp) { (void)usbp; }
 705              		.loc 1 578 36 view .LVU149
 521:tmk_core/protocol/chibios/usb_main.c ****     for (int i = 0; i < NUM_USB_DRIVERS; i++) {
 706              		.loc 1 521 5 view .LVU150
 707              	.LBB519:
 708              	.LBI519:
 531:./lib/chibios/os/hal/osal/rt/osal.h **** 
 709              		.loc 2 531 20 view .LVU151
 710              	.LBE519:
 533:./lib/chibios/os/hal/osal/rt/osal.h **** }
 711              		.loc 2 533 3 view .LVU152
 712              	.LBB536:
 713              	.LBB520:
 714              	.LBI520:
 393:./lib/chibios/os/rt/include/chsys.h **** 
 715              		.loc 3 393 20 view .LVU153
 716              	.LBE520:
 717              	.LBE536:
 395:./lib/chibios/os/rt/include/chsys.h ****   _stats_start_measure_crit_isr();
 718              		.loc 3 395 3 view .LVU154
 719              	.LBB537:
 720              	.LBB532:
 721              	.LBB521:
 722              	.LBI521:
 406:./lib/chibios/os/common/ports/ARMCMx/chcore_v6m.h **** 
 723              		.loc 4 406 20 view .LVU155
 724              	.LBE521:
 725              	.LBE532:
 726              	.LBE537:
 408:./lib/chibios/os/common/ports/ARMCMx/chcore_v6m.h **** }
 727              		.loc 4 408 3 view .LVU156
 728              	.LBB538:
 729              	.LBB533:
 730              	.LBB529:
 731              	.LBB522:
 732              	.LBI522:
 387:./lib/chibios/os/common/ports/ARMCMx/chcore_v6m.h **** 
 733              		.loc 4 387 20 view .LVU157
 734              	.LBE522:
 735              	.LBE529:
 736              	.LBE533:
 737              	.LBE538:
 389:./lib/chibios/os/common/ports/ARMCMx/chcore_v6m.h **** }
 738              		.loc 4 389 3 view .LVU158
 739              	.LBB539:
 740              	.LBB534:
 741              	.LBB530:
 742              	.LBB527:
 743              	.LBB523:
 744              	.LBI523:
 140:./lib/chibios/os/common/ext/ARM/CMSIS/Core/Include/cmsis_gcc.h **** {
 745              		.loc 5 140 27 view .LVU159
 746              	.LBB524:
 747              		.loc 5 142 3 view .LVU160
 748              	.LBE524:
 749              	.LBE523:
 750              	.LBE527:
 751              	.LBE530:
 752              	.LBE534:
 753              	.LBE539:
 519:tmk_core/protocol/chibios/usb_main.c ****     kbd_sof_cb(usbp);
 754              		.loc 1 519 41 is_stmt 0 view .LVU161
 755 0000 10B5     		push	{r4, lr}
 756              		.cfi_def_cfa_offset 8
 757              		.cfi_offset 4, -8
 758              		.cfi_offset 14, -4
 759              	.LBB540:
 760              	.LBB535:
 761              	.LBB531:
 762              	.LBB528:
 763              	.LBB526:
 764              	.LBB525:
 765              		.loc 5 142 3 view .LVU162
 766              		.syntax divided
 767              	@ 142 "./lib/chibios/os/common/ext/ARM/CMSIS/Core/Include/cmsis_gcc.h" 1
 768 0002 72B6     		cpsid i
 769              	@ 0 "" 2
 770              		.thumb
 771              		.syntax unified
 772              	.LBE525:
 773              	.LBE526:
 774              	.LBE528:
 775              	.LBE531:
 776              	.LBE535:
 777              	.LBE540:
 396:./lib/chibios/os/rt/include/chsys.h ****   _dbg_check_lock_from_isr();
 778              		.loc 3 396 34 is_stmt 1 view .LVU163
 397:./lib/chibios/os/rt/include/chsys.h **** }
 779              		.loc 3 397 29 view .LVU164
 522:tmk_core/protocol/chibios/usb_main.c ****         qmkusbSOFHookI(&drivers.array[i].driver);
 780              		.loc 1 522 5 view .LVU165
 522:tmk_core/protocol/chibios/usb_main.c ****         qmkusbSOFHookI(&drivers.array[i].driver);
 781              		.loc 1 522 10 view .LVU166
 782              	.LVL35:
 783              	.LBB541:
 784              	.LBI541:
 519:tmk_core/protocol/chibios/usb_main.c ****     kbd_sof_cb(usbp);
 785              		.loc 1 519 13 view .LVU167
 786              	.LBB542:
 523:tmk_core/protocol/chibios/usb_main.c ****     }
 787              		.loc 1 523 9 view .LVU168
 788 0004 0248     		ldr	r0, .L29
 789              	.LVL36:
 523:tmk_core/protocol/chibios/usb_main.c ****     }
 790              		.loc 1 523 9 is_stmt 0 view .LVU169
 791 0006 FFF7FEFF 		bl	qmkusbSOFHookI
 792              	.LVL37:
 523:tmk_core/protocol/chibios/usb_main.c ****     }
 793              		.loc 1 523 9 view .LVU170
 794              	.LBE542:
 795              	.LBE541:
 525:tmk_core/protocol/chibios/usb_main.c **** }
 796              		.loc 1 525 5 is_stmt 1 view .LVU171
 797              	.LBB559:
 798              	.LBB543:
 799              	.LBI543:
 542:./lib/chibios/os/hal/osal/rt/osal.h **** 
 800              		.loc 2 542 20 view .LVU172
 801              	.LBE543:
 802              	.LBE559:
 803              		.loc 2 544 3 view .LVU173
 804              	.LBB560:
 805              	.LBB555:
 806              	.LBB544:
 807              	.LBI544:
 413:./lib/chibios/os/rt/include/chsys.h **** 
 808              		.loc 3 413 20 view .LVU174
 809              	.LBE544:
 810              	.LBE555:
 811              	.LBE560:
 415:./lib/chibios/os/rt/include/chsys.h ****   _stats_stop_measure_crit_isr();
 812              		.loc 3 415 31 view .LVU175
 416:./lib/chibios/os/rt/include/chsys.h ****   port_unlock_from_isr();
 813              		.loc 3 416 33 view .LVU176
 814              		.loc 3 417 3 view .LVU177
 815              	.LBB561:
 816              	.LBB556:
 817              	.LBB552:
 818              	.LBB545:
 819              	.LBI545:
 416:./lib/chibios/os/common/ports/ARMCMx/chcore_v6m.h **** 
 820              		.loc 4 416 20 view .LVU178
 821              	.LBE545:
 822              	.LBE552:
 823              	.LBE556:
 824              	.LBE561:
 825              		.loc 4 418 3 view .LVU179
 826              	.LBB562:
 827              	.LBB557:
 828              	.LBB553:
 829              	.LBB550:
 830              	.LBB546:
 831              	.LBI546:
 396:./lib/chibios/os/common/ports/ARMCMx/chcore_v6m.h **** 
 832              		.loc 4 396 20 view .LVU180
 833              	.LBE546:
 834              	.LBE550:
 835              	.LBE553:
 836              	.LBE557:
 837              	.LBE562:
 398:./lib/chibios/os/common/ports/ARMCMx/chcore_v6m.h **** }
 838              		.loc 4 398 3 view .LVU181
 839              	.LBB563:
 840              	.LBB558:
 841              	.LBB554:
 842              	.LBB551:
 843              	.LBB549:
 844              	.LBB547:
 845              	.LBI547:
 129:./lib/chibios/os/common/ext/ARM/CMSIS/Core/Include/cmsis_gcc.h **** {
 846              		.loc 5 129 27 view .LVU182
 847              	.LBB548:
 131:./lib/chibios/os/common/ext/ARM/CMSIS/Core/Include/cmsis_gcc.h **** }
 848              		.loc 5 131 3 view .LVU183
 849              		.syntax divided
 850              	@ 131 "./lib/chibios/os/common/ext/ARM/CMSIS/Core/Include/cmsis_gcc.h" 1
 851 000a 62B6     		cpsie i
 852              	@ 0 "" 2
 853              	.LVL38:
 131:./lib/chibios/os/common/ext/ARM/CMSIS/Core/Include/cmsis_gcc.h **** }
 854              		.loc 5 131 3 is_stmt 0 view .LVU184
 855              		.thumb
 856              		.syntax unified
 857              	.LBE548:
 858              	.LBE547:
 859              	.LBE549:
 860              	.LBE551:
 861              	.LBE554:
 862              	.LBE558:
 863              	.LBE563:
 526:tmk_core/protocol/chibios/usb_main.c **** 
 864              		.loc 1 526 1 view .LVU185
 865              		@ sp needed
 866 000c 10BD     		pop	{r4, pc}
 867              	.L30:
 868 000e C046     		.align	2
 869              	.L29:
 870 0010 D4000000 		.word	drivers+212
 871              		.cfi_endproc
 872              	.LFE193:
 874              		.section	.text.chVTSetI.constprop.8,"ax",%progbits
 875              		.align	1
 876              		.syntax unified
 877              		.code	16
 878              		.thumb_func
 879              		.fpu softvfp
 881              	chVTSetI.constprop.8:
 882              	.LVL39:
 883              	.LFB220:
 884              		.file 6 "./lib/chibios/os/rt/include/chvt.h"
   1:./lib/chibios/os/rt/include/chvt.h **** /*
   2:./lib/chibios/os/rt/include/chvt.h ****     ChibiOS - Copyright (C) 2006..2018 Giovanni Di Sirio.
   3:./lib/chibios/os/rt/include/chvt.h **** 
   4:./lib/chibios/os/rt/include/chvt.h ****     This file is part of ChibiOS.
   5:./lib/chibios/os/rt/include/chvt.h **** 
   6:./lib/chibios/os/rt/include/chvt.h ****     ChibiOS is free software; you can redistribute it and/or modify
   7:./lib/chibios/os/rt/include/chvt.h ****     it under the terms of the GNU General Public License as published by
   8:./lib/chibios/os/rt/include/chvt.h ****     the Free Software Foundation; either version 3 of the License, or
   9:./lib/chibios/os/rt/include/chvt.h ****     (at your option) any later version.
  10:./lib/chibios/os/rt/include/chvt.h **** 
  11:./lib/chibios/os/rt/include/chvt.h ****     ChibiOS is distributed in the hope that it will be useful,
  12:./lib/chibios/os/rt/include/chvt.h ****     but WITHOUT ANY WARRANTY; without even the implied warranty of
  13:./lib/chibios/os/rt/include/chvt.h ****     MERCHANTABILITY or FITNESS FOR A PARTICULAR PURPOSE.  See the
  14:./lib/chibios/os/rt/include/chvt.h ****     GNU General Public License for more details.
  15:./lib/chibios/os/rt/include/chvt.h **** 
  16:./lib/chibios/os/rt/include/chvt.h ****     You should have received a copy of the GNU General Public License
  17:./lib/chibios/os/rt/include/chvt.h ****     along with this program.  If not, see <http://www.gnu.org/licenses/>.
  18:./lib/chibios/os/rt/include/chvt.h **** */
  19:./lib/chibios/os/rt/include/chvt.h **** 
  20:./lib/chibios/os/rt/include/chvt.h **** /**
  21:./lib/chibios/os/rt/include/chvt.h ****  * @file    chvt.h
  22:./lib/chibios/os/rt/include/chvt.h ****  * @brief   Time and Virtual Timers module macros and structures.
  23:./lib/chibios/os/rt/include/chvt.h ****  *
  24:./lib/chibios/os/rt/include/chvt.h ****  * @addtogroup time
  25:./lib/chibios/os/rt/include/chvt.h ****  * @{
  26:./lib/chibios/os/rt/include/chvt.h ****  */
  27:./lib/chibios/os/rt/include/chvt.h **** 
  28:./lib/chibios/os/rt/include/chvt.h **** #ifndef CHVT_H
  29:./lib/chibios/os/rt/include/chvt.h **** #define CHVT_H
  30:./lib/chibios/os/rt/include/chvt.h **** 
  31:./lib/chibios/os/rt/include/chvt.h **** /*===========================================================================*/
  32:./lib/chibios/os/rt/include/chvt.h **** /* Module constants.                                                         */
  33:./lib/chibios/os/rt/include/chvt.h **** /*===========================================================================*/
  34:./lib/chibios/os/rt/include/chvt.h **** 
  35:./lib/chibios/os/rt/include/chvt.h **** /*===========================================================================*/
  36:./lib/chibios/os/rt/include/chvt.h **** /* Module pre-compile time settings.                                         */
  37:./lib/chibios/os/rt/include/chvt.h **** /*===========================================================================*/
  38:./lib/chibios/os/rt/include/chvt.h **** 
  39:./lib/chibios/os/rt/include/chvt.h **** /*===========================================================================*/
  40:./lib/chibios/os/rt/include/chvt.h **** /* Derived constants and error checks.                                       */
  41:./lib/chibios/os/rt/include/chvt.h **** /*===========================================================================*/
  42:./lib/chibios/os/rt/include/chvt.h **** 
  43:./lib/chibios/os/rt/include/chvt.h **** #if (CH_CFG_ST_TIMEDELTA < 0) || (CH_CFG_ST_TIMEDELTA == 1)
  44:./lib/chibios/os/rt/include/chvt.h **** #error "invalid CH_CFG_ST_TIMEDELTA specified, must "                       \
  45:./lib/chibios/os/rt/include/chvt.h ****        "be zero or greater than one"
  46:./lib/chibios/os/rt/include/chvt.h **** #endif
  47:./lib/chibios/os/rt/include/chvt.h **** 
  48:./lib/chibios/os/rt/include/chvt.h **** #if (CH_CFG_ST_TIMEDELTA > 0) && (CH_CFG_TIME_QUANTUM > 0)
  49:./lib/chibios/os/rt/include/chvt.h **** #error "CH_CFG_TIME_QUANTUM not supported in tickless mode"
  50:./lib/chibios/os/rt/include/chvt.h **** #endif
  51:./lib/chibios/os/rt/include/chvt.h **** 
  52:./lib/chibios/os/rt/include/chvt.h **** #if (CH_CFG_ST_TIMEDELTA > 0) && (CH_DBG_THREADS_PROFILING == TRUE)
  53:./lib/chibios/os/rt/include/chvt.h **** #error "CH_DBG_THREADS_PROFILING not supported in tickless mode"
  54:./lib/chibios/os/rt/include/chvt.h **** #endif
  55:./lib/chibios/os/rt/include/chvt.h **** 
  56:./lib/chibios/os/rt/include/chvt.h **** /*===========================================================================*/
  57:./lib/chibios/os/rt/include/chvt.h **** /* Module data structures and types.                                         */
  58:./lib/chibios/os/rt/include/chvt.h **** /*===========================================================================*/
  59:./lib/chibios/os/rt/include/chvt.h **** 
  60:./lib/chibios/os/rt/include/chvt.h **** /*===========================================================================*/
  61:./lib/chibios/os/rt/include/chvt.h **** /* Module macros.                                                            */
  62:./lib/chibios/os/rt/include/chvt.h **** /*===========================================================================*/
  63:./lib/chibios/os/rt/include/chvt.h **** 
  64:./lib/chibios/os/rt/include/chvt.h **** /*===========================================================================*/
  65:./lib/chibios/os/rt/include/chvt.h **** /* External declarations.                                                    */
  66:./lib/chibios/os/rt/include/chvt.h **** /*===========================================================================*/
  67:./lib/chibios/os/rt/include/chvt.h **** 
  68:./lib/chibios/os/rt/include/chvt.h **** /*
  69:./lib/chibios/os/rt/include/chvt.h ****  * Virtual Timers APIs.
  70:./lib/chibios/os/rt/include/chvt.h ****  */
  71:./lib/chibios/os/rt/include/chvt.h **** #ifdef __cplusplus
  72:./lib/chibios/os/rt/include/chvt.h **** extern "C" {
  73:./lib/chibios/os/rt/include/chvt.h **** #endif
  74:./lib/chibios/os/rt/include/chvt.h ****   void _vt_init(void);
  75:./lib/chibios/os/rt/include/chvt.h ****   void chVTDoSetI(virtual_timer_t *vtp, sysinterval_t delay,
  76:./lib/chibios/os/rt/include/chvt.h ****                   vtfunc_t vtfunc, void *par);
  77:./lib/chibios/os/rt/include/chvt.h ****   void chVTDoResetI(virtual_timer_t *vtp);
  78:./lib/chibios/os/rt/include/chvt.h **** #ifdef __cplusplus
  79:./lib/chibios/os/rt/include/chvt.h **** }
  80:./lib/chibios/os/rt/include/chvt.h **** #endif
  81:./lib/chibios/os/rt/include/chvt.h **** 
  82:./lib/chibios/os/rt/include/chvt.h **** /*===========================================================================*/
  83:./lib/chibios/os/rt/include/chvt.h **** /* Module inline functions.                                                  */
  84:./lib/chibios/os/rt/include/chvt.h **** /*===========================================================================*/
  85:./lib/chibios/os/rt/include/chvt.h **** 
  86:./lib/chibios/os/rt/include/chvt.h **** /**
  87:./lib/chibios/os/rt/include/chvt.h ****  * @brief   Initializes a @p virtual_timer_t object.
  88:./lib/chibios/os/rt/include/chvt.h ****  * @note    Initializing a timer object is not strictly required because
  89:./lib/chibios/os/rt/include/chvt.h ****  *          the function @p chVTSetI() initializes the object too. This
  90:./lib/chibios/os/rt/include/chvt.h ****  *          function is only useful if you need to perform a @p chVTIsArmed()
  91:./lib/chibios/os/rt/include/chvt.h ****  *          check before calling @p chVTSetI().
  92:./lib/chibios/os/rt/include/chvt.h ****  *
  93:./lib/chibios/os/rt/include/chvt.h ****  * @param[out] vtp      the @p virtual_timer_t structure pointer
  94:./lib/chibios/os/rt/include/chvt.h ****  *
  95:./lib/chibios/os/rt/include/chvt.h ****  * @init
  96:./lib/chibios/os/rt/include/chvt.h ****  */
  97:./lib/chibios/os/rt/include/chvt.h **** static inline void chVTObjectInit(virtual_timer_t *vtp) {
  98:./lib/chibios/os/rt/include/chvt.h **** 
  99:./lib/chibios/os/rt/include/chvt.h ****   vtp->func = NULL;
 100:./lib/chibios/os/rt/include/chvt.h **** }
 101:./lib/chibios/os/rt/include/chvt.h **** 
 102:./lib/chibios/os/rt/include/chvt.h **** /**
 103:./lib/chibios/os/rt/include/chvt.h ****  * @brief   Current system time.
 104:./lib/chibios/os/rt/include/chvt.h ****  * @details Returns the number of system ticks since the @p chSysInit()
 105:./lib/chibios/os/rt/include/chvt.h ****  *          invocation.
 106:./lib/chibios/os/rt/include/chvt.h ****  * @note    The counter can reach its maximum and then restart from zero.
 107:./lib/chibios/os/rt/include/chvt.h ****  * @note    This function can be called from any context but its atomicity
 108:./lib/chibios/os/rt/include/chvt.h ****  *          is not guaranteed on architectures whose word size is less than
 109:./lib/chibios/os/rt/include/chvt.h ****  *          @p systime_t size.
 110:./lib/chibios/os/rt/include/chvt.h ****  *
 111:./lib/chibios/os/rt/include/chvt.h ****  * @return              The system time in ticks.
 112:./lib/chibios/os/rt/include/chvt.h ****  *
 113:./lib/chibios/os/rt/include/chvt.h ****  * @xclass
 114:./lib/chibios/os/rt/include/chvt.h ****  */
 115:./lib/chibios/os/rt/include/chvt.h **** static inline systime_t chVTGetSystemTimeX(void) {
 116:./lib/chibios/os/rt/include/chvt.h **** 
 117:./lib/chibios/os/rt/include/chvt.h **** #if CH_CFG_ST_TIMEDELTA == 0
 118:./lib/chibios/os/rt/include/chvt.h ****   return ch.vtlist.systime;
 119:./lib/chibios/os/rt/include/chvt.h **** #else /* CH_CFG_ST_TIMEDELTA > 0 */
 120:./lib/chibios/os/rt/include/chvt.h ****   return port_timer_get_time();
 121:./lib/chibios/os/rt/include/chvt.h **** #endif /* CH_CFG_ST_TIMEDELTA > 0 */
 122:./lib/chibios/os/rt/include/chvt.h **** }
 123:./lib/chibios/os/rt/include/chvt.h **** 
 124:./lib/chibios/os/rt/include/chvt.h **** /**
 125:./lib/chibios/os/rt/include/chvt.h ****  * @brief   Current system time.
 126:./lib/chibios/os/rt/include/chvt.h ****  * @details Returns the number of system ticks since the @p chSysInit()
 127:./lib/chibios/os/rt/include/chvt.h ****  *          invocation.
 128:./lib/chibios/os/rt/include/chvt.h ****  * @note    The counter can reach its maximum and then restart from zero.
 129:./lib/chibios/os/rt/include/chvt.h ****  *
 130:./lib/chibios/os/rt/include/chvt.h ****  * @return              The system time in ticks.
 131:./lib/chibios/os/rt/include/chvt.h ****  *
 132:./lib/chibios/os/rt/include/chvt.h ****  * @api
 133:./lib/chibios/os/rt/include/chvt.h ****  */
 134:./lib/chibios/os/rt/include/chvt.h **** static inline systime_t chVTGetSystemTime(void) {
 135:./lib/chibios/os/rt/include/chvt.h ****   systime_t systime;
 136:./lib/chibios/os/rt/include/chvt.h **** 
 137:./lib/chibios/os/rt/include/chvt.h ****   chSysLock();
 138:./lib/chibios/os/rt/include/chvt.h ****   systime = chVTGetSystemTimeX();
 139:./lib/chibios/os/rt/include/chvt.h ****   chSysUnlock();
 140:./lib/chibios/os/rt/include/chvt.h **** 
 141:./lib/chibios/os/rt/include/chvt.h ****   return systime;
 142:./lib/chibios/os/rt/include/chvt.h **** }
 143:./lib/chibios/os/rt/include/chvt.h **** 
 144:./lib/chibios/os/rt/include/chvt.h **** /**
 145:./lib/chibios/os/rt/include/chvt.h ****  * @brief   Returns the elapsed time since the specified start time.
 146:./lib/chibios/os/rt/include/chvt.h ****  *
 147:./lib/chibios/os/rt/include/chvt.h ****  * @param[in] start     start time
 148:./lib/chibios/os/rt/include/chvt.h ****  * @return              The elapsed time.
 149:./lib/chibios/os/rt/include/chvt.h ****  *
 150:./lib/chibios/os/rt/include/chvt.h ****  * @xclass
 151:./lib/chibios/os/rt/include/chvt.h ****  */
 152:./lib/chibios/os/rt/include/chvt.h **** static inline sysinterval_t chVTTimeElapsedSinceX(systime_t start) {
 153:./lib/chibios/os/rt/include/chvt.h **** 
 154:./lib/chibios/os/rt/include/chvt.h ****   return chTimeDiffX(start, chVTGetSystemTimeX());
 155:./lib/chibios/os/rt/include/chvt.h **** }
 156:./lib/chibios/os/rt/include/chvt.h **** 
 157:./lib/chibios/os/rt/include/chvt.h **** /**
 158:./lib/chibios/os/rt/include/chvt.h ****  * @brief   Checks if the current system time is within the specified time
 159:./lib/chibios/os/rt/include/chvt.h ****  *          window.
 160:./lib/chibios/os/rt/include/chvt.h ****  * @note    When start==end then the function returns always true because the
 161:./lib/chibios/os/rt/include/chvt.h ****  *          whole time range is specified.
 162:./lib/chibios/os/rt/include/chvt.h ****  *
 163:./lib/chibios/os/rt/include/chvt.h ****  * @param[in] start     the start of the time window (inclusive)
 164:./lib/chibios/os/rt/include/chvt.h ****  * @param[in] end       the end of the time window (non inclusive)
 165:./lib/chibios/os/rt/include/chvt.h ****  * @retval true         current time within the specified time window.
 166:./lib/chibios/os/rt/include/chvt.h ****  * @retval false        current time not within the specified time window.
 167:./lib/chibios/os/rt/include/chvt.h ****  *
 168:./lib/chibios/os/rt/include/chvt.h ****  * @xclass
 169:./lib/chibios/os/rt/include/chvt.h ****  */
 170:./lib/chibios/os/rt/include/chvt.h **** static inline bool chVTIsSystemTimeWithinX(systime_t start, systime_t end) {
 171:./lib/chibios/os/rt/include/chvt.h **** 
 172:./lib/chibios/os/rt/include/chvt.h ****   return chTimeIsInRangeX(chVTGetSystemTimeX(), start, end);
 173:./lib/chibios/os/rt/include/chvt.h **** }
 174:./lib/chibios/os/rt/include/chvt.h **** 
 175:./lib/chibios/os/rt/include/chvt.h **** /**
 176:./lib/chibios/os/rt/include/chvt.h ****  * @brief   Checks if the current system time is within the specified time
 177:./lib/chibios/os/rt/include/chvt.h ****  *          window.
 178:./lib/chibios/os/rt/include/chvt.h ****  * @note    When start==end then the function returns always true because the
 179:./lib/chibios/os/rt/include/chvt.h ****  *          whole time range is specified.
 180:./lib/chibios/os/rt/include/chvt.h ****  *
 181:./lib/chibios/os/rt/include/chvt.h ****  * @param[in] start     the start of the time window (inclusive)
 182:./lib/chibios/os/rt/include/chvt.h ****  * @param[in] end       the end of the time window (non inclusive)
 183:./lib/chibios/os/rt/include/chvt.h ****  * @retval true         current time within the specified time window.
 184:./lib/chibios/os/rt/include/chvt.h ****  * @retval false        current time not within the specified time window.
 185:./lib/chibios/os/rt/include/chvt.h ****  *
 186:./lib/chibios/os/rt/include/chvt.h ****  * @api
 187:./lib/chibios/os/rt/include/chvt.h ****  */
 188:./lib/chibios/os/rt/include/chvt.h **** static inline bool chVTIsSystemTimeWithin(systime_t start, systime_t end) {
 189:./lib/chibios/os/rt/include/chvt.h **** 
 190:./lib/chibios/os/rt/include/chvt.h ****   return chTimeIsInRangeX(chVTGetSystemTime(), start, end);
 191:./lib/chibios/os/rt/include/chvt.h **** }
 192:./lib/chibios/os/rt/include/chvt.h **** 
 193:./lib/chibios/os/rt/include/chvt.h **** /**
 194:./lib/chibios/os/rt/include/chvt.h ****  * @brief   Returns the time interval until the next timer event.
 195:./lib/chibios/os/rt/include/chvt.h ****  * @note    The return value is not perfectly accurate and can report values
 196:./lib/chibios/os/rt/include/chvt.h ****  *          in excess of @p CH_CFG_ST_TIMEDELTA ticks.
 197:./lib/chibios/os/rt/include/chvt.h ****  * @note    The interval returned by this function is only meaningful if
 198:./lib/chibios/os/rt/include/chvt.h ****  *          more timers are not added to the list until the returned time.
 199:./lib/chibios/os/rt/include/chvt.h ****  *
 200:./lib/chibios/os/rt/include/chvt.h ****  * @param[out] timep    pointer to a variable that will contain the time
 201:./lib/chibios/os/rt/include/chvt.h ****  *                      interval until the next timer elapses. This pointer
 202:./lib/chibios/os/rt/include/chvt.h ****  *                      can be @p NULL if the information is not required.
 203:./lib/chibios/os/rt/include/chvt.h ****  * @return              The time, in ticks, until next time event.
 204:./lib/chibios/os/rt/include/chvt.h ****  * @retval false        if the timers list is empty.
 205:./lib/chibios/os/rt/include/chvt.h ****  * @retval true         if the timers list contains at least one timer.
 206:./lib/chibios/os/rt/include/chvt.h ****  *
 207:./lib/chibios/os/rt/include/chvt.h ****  * @iclass
 208:./lib/chibios/os/rt/include/chvt.h ****  */
 209:./lib/chibios/os/rt/include/chvt.h **** static inline bool chVTGetTimersStateI(sysinterval_t *timep) {
 210:./lib/chibios/os/rt/include/chvt.h **** 
 211:./lib/chibios/os/rt/include/chvt.h ****   chDbgCheckClassI();
 212:./lib/chibios/os/rt/include/chvt.h **** 
 213:./lib/chibios/os/rt/include/chvt.h ****   if (&ch.vtlist == (virtual_timers_list_t *)ch.vtlist.next) {
 214:./lib/chibios/os/rt/include/chvt.h ****     return false;
 215:./lib/chibios/os/rt/include/chvt.h ****   }
 216:./lib/chibios/os/rt/include/chvt.h **** 
 217:./lib/chibios/os/rt/include/chvt.h ****   if (timep != NULL) {
 218:./lib/chibios/os/rt/include/chvt.h **** #if CH_CFG_ST_TIMEDELTA == 0
 219:./lib/chibios/os/rt/include/chvt.h ****     *timep = ch.vtlist.next->delta;
 220:./lib/chibios/os/rt/include/chvt.h **** #else
 221:./lib/chibios/os/rt/include/chvt.h ****     *timep = (ch.vtlist.next->delta + (sysinterval_t)CH_CFG_ST_TIMEDELTA) -
 222:./lib/chibios/os/rt/include/chvt.h ****              chTimeDiffX(ch.vtlist.lasttime, chVTGetSystemTimeX());
 223:./lib/chibios/os/rt/include/chvt.h **** #endif
 224:./lib/chibios/os/rt/include/chvt.h ****   }
 225:./lib/chibios/os/rt/include/chvt.h **** 
 226:./lib/chibios/os/rt/include/chvt.h ****   return true;
 227:./lib/chibios/os/rt/include/chvt.h **** }
 228:./lib/chibios/os/rt/include/chvt.h **** 
 229:./lib/chibios/os/rt/include/chvt.h **** /**
 230:./lib/chibios/os/rt/include/chvt.h ****  * @brief   Returns @p true if the specified timer is armed.
 231:./lib/chibios/os/rt/include/chvt.h ****  * @pre     The timer must have been initialized using @p chVTObjectInit()
 232:./lib/chibios/os/rt/include/chvt.h ****  *          or @p chVTDoSetI().
 233:./lib/chibios/os/rt/include/chvt.h ****  *
 234:./lib/chibios/os/rt/include/chvt.h ****  * @param[in] vtp       the @p virtual_timer_t structure pointer
 235:./lib/chibios/os/rt/include/chvt.h ****  * @return              true if the timer is armed.
 236:./lib/chibios/os/rt/include/chvt.h ****  *
 237:./lib/chibios/os/rt/include/chvt.h ****  * @iclass
 238:./lib/chibios/os/rt/include/chvt.h ****  */
 239:./lib/chibios/os/rt/include/chvt.h **** static inline bool chVTIsArmedI(const virtual_timer_t *vtp) {
 240:./lib/chibios/os/rt/include/chvt.h **** 
 241:./lib/chibios/os/rt/include/chvt.h ****   chDbgCheckClassI();
 242:./lib/chibios/os/rt/include/chvt.h **** 
 243:./lib/chibios/os/rt/include/chvt.h ****   return (bool)(vtp->func != NULL);
 244:./lib/chibios/os/rt/include/chvt.h **** }
 245:./lib/chibios/os/rt/include/chvt.h **** 
 246:./lib/chibios/os/rt/include/chvt.h **** /**
 247:./lib/chibios/os/rt/include/chvt.h ****  * @brief   Returns @p true if the specified timer is armed.
 248:./lib/chibios/os/rt/include/chvt.h ****  * @pre     The timer must have been initialized using @p chVTObjectInit()
 249:./lib/chibios/os/rt/include/chvt.h ****  *          or @p chVTDoSetI().
 250:./lib/chibios/os/rt/include/chvt.h ****  *
 251:./lib/chibios/os/rt/include/chvt.h ****  * @param[in] vtp       the @p virtual_timer_t structure pointer
 252:./lib/chibios/os/rt/include/chvt.h ****  * @return              true if the timer is armed.
 253:./lib/chibios/os/rt/include/chvt.h ****  *
 254:./lib/chibios/os/rt/include/chvt.h ****  * @api
 255:./lib/chibios/os/rt/include/chvt.h ****  */
 256:./lib/chibios/os/rt/include/chvt.h **** static inline bool chVTIsArmed(const virtual_timer_t *vtp) {
 257:./lib/chibios/os/rt/include/chvt.h ****   bool b;
 258:./lib/chibios/os/rt/include/chvt.h **** 
 259:./lib/chibios/os/rt/include/chvt.h ****   chSysLock();
 260:./lib/chibios/os/rt/include/chvt.h ****   b = chVTIsArmedI(vtp);
 261:./lib/chibios/os/rt/include/chvt.h ****   chSysUnlock();
 262:./lib/chibios/os/rt/include/chvt.h **** 
 263:./lib/chibios/os/rt/include/chvt.h ****   return b;
 264:./lib/chibios/os/rt/include/chvt.h **** }
 265:./lib/chibios/os/rt/include/chvt.h **** 
 266:./lib/chibios/os/rt/include/chvt.h **** /**
 267:./lib/chibios/os/rt/include/chvt.h ****  * @brief   Disables a Virtual Timer.
 268:./lib/chibios/os/rt/include/chvt.h ****  * @note    The timer is first checked and disabled only if armed.
 269:./lib/chibios/os/rt/include/chvt.h ****  * @pre     The timer must have been initialized using @p chVTObjectInit()
 270:./lib/chibios/os/rt/include/chvt.h ****  *          or @p chVTDoSetI().
 271:./lib/chibios/os/rt/include/chvt.h ****  *
 272:./lib/chibios/os/rt/include/chvt.h ****  * @param[in] vtp       the @p virtual_timer_t structure pointer
 273:./lib/chibios/os/rt/include/chvt.h ****  *
 274:./lib/chibios/os/rt/include/chvt.h ****  * @iclass
 275:./lib/chibios/os/rt/include/chvt.h ****  */
 276:./lib/chibios/os/rt/include/chvt.h **** static inline void chVTResetI(virtual_timer_t *vtp) {
 277:./lib/chibios/os/rt/include/chvt.h **** 
 278:./lib/chibios/os/rt/include/chvt.h ****   if (chVTIsArmedI(vtp)) {
 279:./lib/chibios/os/rt/include/chvt.h ****     chVTDoResetI(vtp);
 280:./lib/chibios/os/rt/include/chvt.h ****   }
 281:./lib/chibios/os/rt/include/chvt.h **** }
 282:./lib/chibios/os/rt/include/chvt.h **** 
 283:./lib/chibios/os/rt/include/chvt.h **** /**
 284:./lib/chibios/os/rt/include/chvt.h ****  * @brief   Disables a Virtual Timer.
 285:./lib/chibios/os/rt/include/chvt.h ****  * @note    The timer is first checked and disabled only if armed.
 286:./lib/chibios/os/rt/include/chvt.h ****  * @pre     The timer must have been initialized using @p chVTObjectInit()
 287:./lib/chibios/os/rt/include/chvt.h ****  *          or @p chVTDoSetI().
 288:./lib/chibios/os/rt/include/chvt.h ****  *
 289:./lib/chibios/os/rt/include/chvt.h ****  * @param[in] vtp       the @p virtual_timer_t structure pointer
 290:./lib/chibios/os/rt/include/chvt.h ****  *
 291:./lib/chibios/os/rt/include/chvt.h ****  * @api
 292:./lib/chibios/os/rt/include/chvt.h ****  */
 293:./lib/chibios/os/rt/include/chvt.h **** static inline void chVTReset(virtual_timer_t *vtp) {
 294:./lib/chibios/os/rt/include/chvt.h **** 
 295:./lib/chibios/os/rt/include/chvt.h ****   chSysLock();
 296:./lib/chibios/os/rt/include/chvt.h ****   chVTResetI(vtp);
 297:./lib/chibios/os/rt/include/chvt.h ****   chSysUnlock();
 298:./lib/chibios/os/rt/include/chvt.h **** }
 299:./lib/chibios/os/rt/include/chvt.h **** 
 300:./lib/chibios/os/rt/include/chvt.h **** /**
 301:./lib/chibios/os/rt/include/chvt.h ****  * @brief   Enables a virtual timer.
 302:./lib/chibios/os/rt/include/chvt.h ****  * @details If the virtual timer was already enabled then it is re-enabled
 303:./lib/chibios/os/rt/include/chvt.h ****  *          using the new parameters.
 304:./lib/chibios/os/rt/include/chvt.h ****  * @pre     The timer must have been initialized using @p chVTObjectInit()
 305:./lib/chibios/os/rt/include/chvt.h ****  *          or @p chVTDoSetI().
 306:./lib/chibios/os/rt/include/chvt.h ****  *
 307:./lib/chibios/os/rt/include/chvt.h ****  * @param[in] vtp       the @p virtual_timer_t structure pointer
 308:./lib/chibios/os/rt/include/chvt.h ****  * @param[in] delay     the number of ticks before the operation timeouts, the
 309:./lib/chibios/os/rt/include/chvt.h ****  *                      special values are handled as follow:
 310:./lib/chibios/os/rt/include/chvt.h ****  *                      - @a TIME_INFINITE is allowed but interpreted as a
 311:./lib/chibios/os/rt/include/chvt.h ****  *                        normal time specification.
 312:./lib/chibios/os/rt/include/chvt.h ****  *                      - @a TIME_IMMEDIATE this value is not allowed.
 313:./lib/chibios/os/rt/include/chvt.h ****  *                      .
 314:./lib/chibios/os/rt/include/chvt.h ****  * @param[in] vtfunc    the timer callback function. After invoking the
 315:./lib/chibios/os/rt/include/chvt.h ****  *                      callback the timer is disabled and the structure can
 316:./lib/chibios/os/rt/include/chvt.h ****  *                      be disposed or reused.
 317:./lib/chibios/os/rt/include/chvt.h ****  * @param[in] par       a parameter that will be passed to the callback
 318:./lib/chibios/os/rt/include/chvt.h ****  *                      function
 319:./lib/chibios/os/rt/include/chvt.h ****  *
 320:./lib/chibios/os/rt/include/chvt.h ****  * @iclass
 321:./lib/chibios/os/rt/include/chvt.h ****  */
 322:./lib/chibios/os/rt/include/chvt.h **** static inline void chVTSetI(virtual_timer_t *vtp, sysinterval_t delay,
 885              		.loc 6 322 20 is_stmt 1 view -0
 886              		.cfi_startproc
 887              		@ args = 0, pretend = 0, frame = 0
 888              		@ frame_needed = 0, uses_anonymous_args = 0
 323:./lib/chibios/os/rt/include/chvt.h ****                             vtfunc_t vtfunc, void *par) {
 324:./lib/chibios/os/rt/include/chvt.h **** 
 325:./lib/chibios/os/rt/include/chvt.h ****   chVTResetI(vtp);
 889              		.loc 6 325 3 view .LVU187
 890              	.LBB566:
 891              	.LBI566:
 276:./lib/chibios/os/rt/include/chvt.h **** 
 892              		.loc 6 276 20 view .LVU188
 893              	.LBB567:
 278:./lib/chibios/os/rt/include/chvt.h ****     chVTDoResetI(vtp);
 894              		.loc 6 278 3 view .LVU189
 278:./lib/chibios/os/rt/include/chvt.h ****     chVTDoResetI(vtp);
 895              		.loc 6 278 3 is_stmt 0 view .LVU190
 896              	.LBE567:
 897              	.LBE566:
 241:./lib/chibios/os/rt/include/chvt.h **** 
 898              		.loc 6 241 21 is_stmt 1 view .LVU191
 243:./lib/chibios/os/rt/include/chvt.h **** }
 899              		.loc 6 243 3 view .LVU192
 322:./lib/chibios/os/rt/include/chvt.h ****                             vtfunc_t vtfunc, void *par) {
 900              		.loc 6 322 20 is_stmt 0 view .LVU193
 901 0000 70B5     		push	{r4, r5, r6, lr}
 902              		.cfi_def_cfa_offset 16
 903              		.cfi_offset 4, -16
 904              		.cfi_offset 5, -12
 905              		.cfi_offset 6, -8
 906              		.cfi_offset 14, -4
 907              	.LBB571:
 908              	.LBB568:
 278:./lib/chibios/os/rt/include/chvt.h ****     chVTDoResetI(vtp);
 909              		.loc 6 278 7 view .LVU194
 910 0002 084C     		ldr	r4, .L36
 911              	.LBE568:
 912              	.LBE571:
 322:./lib/chibios/os/rt/include/chvt.h ****                             vtfunc_t vtfunc, void *par) {
 913              		.loc 6 322 20 view .LVU195
 914 0004 0500     		movs	r5, r0
 915              	.LBB572:
 916              	.LBB569:
 278:./lib/chibios/os/rt/include/chvt.h ****     chVTDoResetI(vtp);
 917              		.loc 6 278 6 view .LVU196
 918 0006 E368     		ldr	r3, [r4, #12]
 919              	.LBE569:
 920              	.LBE572:
 322:./lib/chibios/os/rt/include/chvt.h ****                             vtfunc_t vtfunc, void *par) {
 921              		.loc 6 322 20 view .LVU197
 922 0008 0E00     		movs	r6, r1
 923              	.LBB573:
 924              	.LBB570:
 278:./lib/chibios/os/rt/include/chvt.h ****     chVTDoResetI(vtp);
 925              		.loc 6 278 6 view .LVU198
 926 000a 002B     		cmp	r3, #0
 927 000c 02D0     		beq	.L32
 279:./lib/chibios/os/rt/include/chvt.h ****   }
 928              		.loc 6 279 5 is_stmt 1 view .LVU199
 929 000e 2000     		movs	r0, r4
 930              	.LVL40:
 279:./lib/chibios/os/rt/include/chvt.h ****   }
 931              		.loc 6 279 5 is_stmt 0 view .LVU200
 932 0010 FFF7FEFF 		bl	chVTDoResetI
 933              	.LVL41:
 934              	.L32:
 279:./lib/chibios/os/rt/include/chvt.h ****   }
 935              		.loc 6 279 5 view .LVU201
 936              	.LBE570:
 937              	.LBE573:
 326:./lib/chibios/os/rt/include/chvt.h ****   chVTDoSetI(vtp, delay, vtfunc, par);
